
bin\Debug\Bibo.elf:     file format elf32-avr

Sections:
Idx Name          Size      VMA       LMA       File off  Algn
  0 .data         00000074  00800200  00002494  00002548  2**0
                  CONTENTS, ALLOC, LOAD, DATA
  1 .text         00002494  00000000  00000000  000000b4  2**1
                  CONTENTS, ALLOC, LOAD, READONLY, CODE
  2 .bss          00000039  00800274  00800274  000025bc  2**0
                  ALLOC
  3 .fuse         00000003  00820000  00820000  000025bc  2**0
                  CONTENTS, ALLOC, LOAD, DATA
  4 .comment      00000012  00000000  00000000  000025bf  2**0
                  CONTENTS, READONLY
  5 .note.gnu.avr.deviceinfo 00000040  00000000  00000000  000025d4  2**2
                  CONTENTS, READONLY, OCTETS
  6 .debug_aranges 00000278  00000000  00000000  00002618  2**3
                  CONTENTS, READONLY, DEBUGGING, OCTETS
  7 .debug_info   00004104  00000000  00000000  00002890  2**0
                  CONTENTS, READONLY, DEBUGGING, OCTETS
  8 .debug_abbrev 00001b2c  00000000  00000000  00006994  2**0
                  CONTENTS, READONLY, DEBUGGING, OCTETS
  9 .debug_line   0000459d  00000000  00000000  000084c0  2**0
                  CONTENTS, READONLY, DEBUGGING, OCTETS
 10 .debug_frame  000009a0  00000000  00000000  0000ca60  2**2
                  CONTENTS, READONLY, DEBUGGING, OCTETS
 11 .debug_str    00000ded  00000000  00000000  0000d400  2**0
                  CONTENTS, READONLY, DEBUGGING, OCTETS
 12 .debug_line_str 00000300  00000000  00000000  0000e1ed  2**0
                  CONTENTS, READONLY, DEBUGGING, OCTETS
 13 .debug_loclists 00000c48  00000000  00000000  0000e4ed  2**0
                  CONTENTS, READONLY, DEBUGGING, OCTETS
 14 .debug_rnglists 00000060  00000000  00000000  0000f135  2**0
                  CONTENTS, READONLY, DEBUGGING, OCTETS

Disassembly of section .text:

00000000 <__vectors>:
       0:	0c 94 a2 00 	jmp	0x144	; 0x144 <__ctors_end>
       4:	0c 94 8a 01 	jmp	0x314	; 0x314 <__vector_1>
       8:	0c 94 c3 00 	jmp	0x186	; 0x186 <__bad_interrupt>
       c:	0c 94 c3 00 	jmp	0x186	; 0x186 <__bad_interrupt>
      10:	0c 94 c3 00 	jmp	0x186	; 0x186 <__bad_interrupt>
      14:	0c 94 c3 00 	jmp	0x186	; 0x186 <__bad_interrupt>
      18:	0c 94 c3 00 	jmp	0x186	; 0x186 <__bad_interrupt>
      1c:	0c 94 c3 00 	jmp	0x186	; 0x186 <__bad_interrupt>
      20:	0c 94 c3 00 	jmp	0x186	; 0x186 <__bad_interrupt>
      24:	0c 94 c3 00 	jmp	0x186	; 0x186 <__bad_interrupt>
      28:	0c 94 c3 00 	jmp	0x186	; 0x186 <__bad_interrupt>
      2c:	0c 94 c3 00 	jmp	0x186	; 0x186 <__bad_interrupt>
      30:	0c 94 c3 00 	jmp	0x186	; 0x186 <__bad_interrupt>
      34:	0c 94 c3 00 	jmp	0x186	; 0x186 <__bad_interrupt>
      38:	0c 94 c3 00 	jmp	0x186	; 0x186 <__bad_interrupt>
      3c:	0c 94 b0 0b 	jmp	0x1760	; 0x1760 <__vector_15>
      40:	0c 94 c3 00 	jmp	0x186	; 0x186 <__bad_interrupt>
      44:	0c 94 c3 00 	jmp	0x186	; 0x186 <__bad_interrupt>
      48:	0c 94 c3 00 	jmp	0x186	; 0x186 <__bad_interrupt>
      4c:	0c 94 c3 00 	jmp	0x186	; 0x186 <__bad_interrupt>
      50:	0c 94 c3 00 	jmp	0x186	; 0x186 <__bad_interrupt>
      54:	0c 94 c3 00 	jmp	0x186	; 0x186 <__bad_interrupt>
      58:	0c 94 c3 00 	jmp	0x186	; 0x186 <__bad_interrupt>
      5c:	0c 94 71 0b 	jmp	0x16e2	; 0x16e2 <__vector_23>
      60:	0c 94 c3 00 	jmp	0x186	; 0x186 <__bad_interrupt>
      64:	0c 94 c3 00 	jmp	0x186	; 0x186 <__bad_interrupt>
      68:	0c 94 c3 00 	jmp	0x186	; 0x186 <__bad_interrupt>
      6c:	0c 94 c3 00 	jmp	0x186	; 0x186 <__bad_interrupt>
      70:	0c 94 c3 00 	jmp	0x186	; 0x186 <__bad_interrupt>
      74:	0c 94 c3 00 	jmp	0x186	; 0x186 <__bad_interrupt>
      78:	0c 94 c3 00 	jmp	0x186	; 0x186 <__bad_interrupt>
      7c:	0c 94 c3 00 	jmp	0x186	; 0x186 <__bad_interrupt>
      80:	0c 94 c3 00 	jmp	0x186	; 0x186 <__bad_interrupt>
      84:	0c 94 c3 00 	jmp	0x186	; 0x186 <__bad_interrupt>
      88:	0c 94 c3 00 	jmp	0x186	; 0x186 <__bad_interrupt>
      8c:	0c 94 c3 00 	jmp	0x186	; 0x186 <__bad_interrupt>
      90:	0c 94 c3 00 	jmp	0x186	; 0x186 <__bad_interrupt>
      94:	0c 94 c3 00 	jmp	0x186	; 0x186 <__bad_interrupt>
      98:	0c 94 c3 00 	jmp	0x186	; 0x186 <__bad_interrupt>
      9c:	0c 94 c3 00 	jmp	0x186	; 0x186 <__bad_interrupt>
      a0:	0c 94 c3 00 	jmp	0x186	; 0x186 <__bad_interrupt>
      a4:	0c 94 fb 02 	jmp	0x5f6	; 0x5f6 <__vector_41>
      a8:	0c 94 c3 00 	jmp	0x186	; 0x186 <__bad_interrupt>
      ac:	0c 94 c3 00 	jmp	0x186	; 0x186 <__bad_interrupt>
      b0:	0c 94 c3 00 	jmp	0x186	; 0x186 <__bad_interrupt>
      b4:	0c 94 c3 00 	jmp	0x186	; 0x186 <__bad_interrupt>
      b8:	0c 94 4f 03 	jmp	0x69e	; 0x69e <__vector_46>
      bc:	0c 94 c3 00 	jmp	0x186	; 0x186 <__bad_interrupt>
      c0:	0c 94 c3 00 	jmp	0x186	; 0x186 <__bad_interrupt>
      c4:	0c 94 c3 00 	jmp	0x186	; 0x186 <__bad_interrupt>
      c8:	0c 94 ef 0b 	jmp	0x17de	; 0x17de <__vector_50>
      cc:	0c 94 c3 00 	jmp	0x186	; 0x186 <__bad_interrupt>
      d0:	0c 94 c3 00 	jmp	0x186	; 0x186 <__bad_interrupt>
      d4:	0c 94 c3 00 	jmp	0x186	; 0x186 <__bad_interrupt>
      d8:	0c 94 c3 00 	jmp	0x186	; 0x186 <__bad_interrupt>
      dc:	0c 94 c3 00 	jmp	0x186	; 0x186 <__bad_interrupt>
      e0:	0c 94 c3 00 	jmp	0x186	; 0x186 <__bad_interrupt>

000000e4 <__trampolines_start>:
      e4:	0c 94 e9 02 	jmp	0x5d2	; 0x5d2 <.L28>
      e8:	0c 94 d1 02 	jmp	0x5a2	; 0x5a2 <.L32>
      ec:	0c 94 dd 02 	jmp	0x5ba	; 0x5ba <.L30>
      f0:	0c 94 92 09 	jmp	0x1324	; 0x1324 <.L40>
      f4:	0c 94 86 09 	jmp	0x130c	; 0x130c <.L42>
      f8:	0c 94 ea 08 	jmp	0x11d4	; 0x11d4 <.L55>
      fc:	0c 94 cb 02 	jmp	0x596	; 0x596 <.L33>
     100:	0c 94 62 09 	jmp	0x12c4	; 0x12c4 <.L45>
     104:	0c 94 32 09 	jmp	0x1264	; 0x1264 <.L49>
     108:	0c 94 1a 09 	jmp	0x1234	; 0x1234 <.L51>
     10c:	0c 94 02 09 	jmp	0x1204	; 0x1204 <.L53>
     110:	0c 94 d7 02 	jmp	0x5ae	; 0x5ae <.L31>
     114:	0c 94 7a 09 	jmp	0x12f4	; 0x12f4 <.L43>
     118:	0c 94 56 09 	jmp	0x12ac	; 0x12ac <.L46>
     11c:	0c 94 3e 09 	jmp	0x127c	; 0x127c <.L48>
     120:	0c 94 e3 02 	jmp	0x5c6	; 0x5c6 <.L29>
     124:	0c 94 f6 08 	jmp	0x11ec	; 0x11ec <.L54>
     128:	0c 94 c5 02 	jmp	0x58a	; 0x58a <.L34>
     12c:	0c 94 ef 02 	jmp	0x5de	; 0x5de <.L27>
     130:	0c 94 4a 09 	jmp	0x1294	; 0x1294 <.L47>
     134:	0c 94 26 09 	jmp	0x124c	; 0x124c <.L50>
     138:	0c 94 f5 02 	jmp	0x5ea	; 0x5ea <.L25>
     13c:	0c 94 6e 09 	jmp	0x12dc	; 0x12dc <.L44>
     140:	0c 94 0e 09 	jmp	0x121c	; 0x121c <.L52>

00000144 <__ctors_end>:
     144:	11 24       	eor	r1, r1
     146:	1f be       	out	0x3f, r1	; 63
     148:	cf ef       	ldi	r28, 0xFF	; 255
     14a:	d1 e2       	ldi	r29, 0x21	; 33
     14c:	de bf       	out	0x3e, r29	; 62
     14e:	cd bf       	out	0x3d, r28	; 61
     150:	00 e0       	ldi	r16, 0x00	; 0
     152:	0c bf       	out	0x3c, r16	; 60

00000154 <__do_copy_data>:
     154:	12 e0       	ldi	r17, 0x02	; 2

00000156 <.Loc.1>:
     156:	a0 e0       	ldi	r26, 0x00	; 0

00000158 <.Loc.2>:
     158:	b2 e0       	ldi	r27, 0x02	; 2

0000015a <.Loc.3>:
     15a:	e4 e9       	ldi	r30, 0x94	; 148

0000015c <.Loc.4>:
     15c:	f4 e2       	ldi	r31, 0x24	; 36

0000015e <.Loc.5>:
     15e:	00 e0       	ldi	r16, 0x00	; 0

00000160 <.Loc.6>:
     160:	0b bf       	out	0x3b, r16	; 59

00000162 <.Loc.7>:
     162:	02 c0       	rjmp	.+4      	; 0x168 <.L__do_copy_data_start>

00000164 <.L__do_copy_data_loop>:
     164:	07 90       	elpm	r0, Z+

00000166 <.Loc.9>:
     166:	0d 92       	st	X+, r0

00000168 <.L__do_copy_data_start>:
     168:	a4 37       	cpi	r26, 0x74	; 116

0000016a <.Loc.11>:
     16a:	b1 07       	cpc	r27, r17

0000016c <.Loc.12>:
     16c:	d9 f7       	brne	.-10     	; 0x164 <.L__do_copy_data_loop>

0000016e <__do_clear_bss>:
     16e:	22 e0       	ldi	r18, 0x02	; 2

00000170 <.Loc.1>:
     170:	a4 e7       	ldi	r26, 0x74	; 116

00000172 <.Loc.2>:
     172:	b2 e0       	ldi	r27, 0x02	; 2

00000174 <.Loc.3>:
     174:	01 c0       	rjmp	.+2      	; 0x178 <.Loc.5>

00000176 <.Loc.4>:
     176:	1d 92       	st	X+, r1

00000178 <.Loc.5>:
     178:	ad 3a       	cpi	r26, 0xAD	; 173

0000017a <.Loc.6>:
     17a:	b2 07       	cpc	r27, r18

0000017c <.Loc.7>:
     17c:	e1 f7       	brne	.-8      	; 0x176 <.Loc.4>

0000017e <L0^A>:
     17e:	0e 94 5f 07 	call	0xebe	; 0xebe <main>
     182:	0c 94 30 12 	jmp	0x2460	; 0x2460 <_exit>

00000186 <__bad_interrupt>:
     186:	0c 94 00 00 	jmp	0	; 0x0 <__vectors>

0000018a <donk_init>:
     18a:	ea e0       	ldi	r30, 0x0A	; 10
     18c:	f1 e0       	ldi	r31, 0x01	; 1
     18e:	80 81       	ld	r24, Z
     190:	87 7f       	andi	r24, 0xF7	; 247
     192:	80 83       	st	Z, r24

00000194 <.Loc.3>:
     194:	80 81       	ld	r24, Z
     196:	8b 7f       	andi	r24, 0xFB	; 251
     198:	80 83       	st	Z, r24

0000019a <.Loc.5>:
     19a:	eb e0       	ldi	r30, 0x0B	; 11
     19c:	f1 e0       	ldi	r31, 0x01	; 1
     19e:	80 81       	ld	r24, Z

000001a0 <.Loc.6>:
     1a0:	88 60       	ori	r24, 0x08	; 8
     1a2:	80 83       	st	Z, r24

000001a4 <.Loc.7>:
     1a4:	80 81       	ld	r24, Z

000001a6 <.Loc.8>:
     1a6:	84 60       	ori	r24, 0x04	; 4
     1a8:	80 83       	st	Z, r24

000001aa <.Loc.9>:
     1aa:	08 95       	ret

000001ac <buttons_init>:
     1ac:	52 98       	cbi	0x0a, 2	; 10

000001ae <.Loc.13>:
     1ae:	5a 9a       	sbi	0x0b, 2	; 11

000001b0 <.Loc.15>:
     1b0:	81 98       	cbi	0x10, 1	; 16

000001b2 <.Loc.17>:
     1b2:	59 9a       	sbi	0x0b, 1	; 11

000001b4 <.Loc.19>:
     1b4:	53 98       	cbi	0x0a, 3	; 10

000001b6 <.Loc.21>:
     1b6:	5b 9a       	sbi	0x0b, 3	; 11

000001b8 <.Loc.23>:
     1b8:	08 95       	ret

000001ba <init_stop_button>:
     1ba:	50 98       	cbi	0x0a, 0	; 10

000001bc <.Loc.27>:
     1bc:	e9 e6       	ldi	r30, 0x69	; 105
     1be:	f0 e0       	ldi	r31, 0x00	; 0
     1c0:	80 81       	ld	r24, Z

000001c2 <.Loc.28>:
     1c2:	83 60       	ori	r24, 0x03	; 3
     1c4:	80 83       	st	Z, r24

000001c6 <.Loc.29>:
     1c6:	e8 9a       	sbi	0x1d, 0	; 29

000001c8 <.Loc.31>:
     1c8:	08 95       	ret

000001ca <donk_left>:
     1ca:	80 91 09 01 	lds	r24, 0x0109	; 0x800109 <__TEXT_REGION_LENGTH__+0x700109>

000001ce <.Loc.35>:
     1ce:	83 fb       	bst	r24, 3
     1d0:	88 27       	eor	r24, r24
     1d2:	80 f9       	bld	r24, 0

000001d4 <.Loc.36>:
     1d4:	91 e0       	ldi	r25, 0x01	; 1
     1d6:	89 27       	eor	r24, r25
     1d8:	08 95       	ret

000001da <donk_right>:
     1da:	80 91 09 01 	lds	r24, 0x0109	; 0x800109 <__TEXT_REGION_LENGTH__+0x700109>

000001de <.Loc.40>:
     1de:	82 fb       	bst	r24, 2
     1e0:	88 27       	eor	r24, r24
     1e2:	80 f9       	bld	r24, 0

000001e4 <.Loc.41>:
     1e4:	91 e0       	ldi	r25, 0x01	; 1
     1e6:	89 27       	eor	r24, r25
     1e8:	08 95       	ret

000001ea <plus_pressed>:
     1ea:	89 b1       	in	r24, 0x09	; 9

000001ec <.Loc.45>:
     1ec:	82 fb       	bst	r24, 2
     1ee:	88 27       	eor	r24, r24
     1f0:	80 f9       	bld	r24, 0

000001f2 <.Loc.46>:
     1f2:	91 e0       	ldi	r25, 0x01	; 1
     1f4:	89 27       	eor	r24, r25
     1f6:	08 95       	ret

000001f8 <minus_pressed>:
     1f8:	89 b1       	in	r24, 0x09	; 9

000001fa <.Loc.50>:
     1fa:	86 95       	lsr	r24
     1fc:	81 70       	andi	r24, 0x01	; 1

000001fe <.Loc.51>:
     1fe:	91 e0       	ldi	r25, 0x01	; 1
     200:	89 27       	eor	r24, r25
     202:	08 95       	ret

00000204 <enter_pressed>:
     204:	89 b1       	in	r24, 0x09	; 9

00000206 <.Loc.55>:
     206:	83 fb       	bst	r24, 3
     208:	88 27       	eor	r24, r24
     20a:	80 f9       	bld	r24, 0

0000020c <.Loc.56>:
     20c:	91 e0       	ldi	r25, 0x01	; 1
     20e:	89 27       	eor	r24, r25
     210:	08 95       	ret

00000212 <stop_pressed>:
     212:	89 b1       	in	r24, 0x09	; 9

00000214 <.Loc.60>:
     214:	81 70       	andi	r24, 0x01	; 1
     216:	08 95       	ret

00000218 <plus_pressed_once>:
     218:	0e 94 f5 00 	call	0x1ea	; 0x1ea <plus_pressed>

0000021c <.LVL0>:
     21c:	88 23       	and	r24, r24
     21e:	a9 f0       	breq	.+42     	; 0x24a <.L11>

00000220 <.Loc.66>:
     220:	80 91 78 02 	lds	r24, 0x0278	; 0x800278 <pressed_before.2>
     224:	90 91 79 02 	lds	r25, 0x0279	; 0x800279 <pressed_before.2+0x1>
     228:	89 2b       	or	r24, r25
     22a:	11 f0       	breq	.+4      	; 0x230 <.L14>

0000022c <.Loc.68>:
     22c:	80 e0       	ldi	r24, 0x00	; 0

0000022e <.L10>:
     22e:	08 95       	ret

00000230 <.L14>:
	#else
		//round up by default
		__ticks_dc = (uint32_t)(ceil(fabs(__tmp)));
	#endif

	__builtin_avr_delay_cycles(__ticks_dc);
     230:	8f e3       	ldi	r24, 0x3F	; 63
     232:	9c e9       	ldi	r25, 0x9C	; 156

00000234 <.L1^B1>:
     234:	01 97       	sbiw	r24, 0x01	; 1
     236:	f1 f7       	brne	.-4      	; 0x234 <.L1^B1>
     238:	00 c0       	rjmp	.+0      	; 0x23a <L0^A>

0000023a <L0^A>:
	...

0000023c <.LBE14>:
     23c:	81 e0       	ldi	r24, 0x01	; 1
     23e:	90 e0       	ldi	r25, 0x00	; 0
     240:	90 93 79 02 	sts	0x0279, r25	; 0x800279 <pressed_before.2+0x1>
     244:	80 93 78 02 	sts	0x0278, r24	; 0x800278 <pressed_before.2>

00000248 <.Loc.81>:
     248:	08 95       	ret

0000024a <.L11>:
     24a:	20 91 78 02 	lds	r18, 0x0278	; 0x800278 <pressed_before.2>
     24e:	30 91 79 02 	lds	r19, 0x0279	; 0x800279 <pressed_before.2+0x1>
     252:	23 2b       	or	r18, r19
     254:	61 f3       	breq	.-40     	; 0x22e <.L10>

00000256 <.LBB16>:
     256:	ef e3       	ldi	r30, 0x3F	; 63
     258:	fc e9       	ldi	r31, 0x9C	; 156

0000025a <.L1^B2>:
     25a:	31 97       	sbiw	r30, 0x01	; 1
     25c:	f1 f7       	brne	.-4      	; 0x25a <.L1^B2>
     25e:	00 c0       	rjmp	.+0      	; 0x260 <L0^A>

00000260 <L0^A>:
	...

00000262 <.LBE16>:
     262:	10 92 79 02 	sts	0x0279, r1	; 0x800279 <pressed_before.2+0x1>
     266:	10 92 78 02 	sts	0x0278, r1	; 0x800278 <pressed_before.2>
     26a:	08 95       	ret

0000026c <minus_pressed_once>:
     26c:	0e 94 fc 00 	call	0x1f8	; 0x1f8 <minus_pressed>

00000270 <.LVL5>:
     270:	88 23       	and	r24, r24
     272:	a9 f0       	breq	.+42     	; 0x29e <.L16>

00000274 <.Loc.101>:
     274:	80 91 76 02 	lds	r24, 0x0276	; 0x800276 <pressed_before.1>
     278:	90 91 77 02 	lds	r25, 0x0277	; 0x800277 <pressed_before.1+0x1>
     27c:	89 2b       	or	r24, r25
     27e:	11 f0       	breq	.+4      	; 0x284 <.L19>

00000280 <.Loc.103>:
     280:	80 e0       	ldi	r24, 0x00	; 0

00000282 <.L15>:
     282:	08 95       	ret

00000284 <.L19>:
     284:	8f e3       	ldi	r24, 0x3F	; 63
     286:	9c e9       	ldi	r25, 0x9C	; 156

00000288 <.L1^B3>:
     288:	01 97       	sbiw	r24, 0x01	; 1
     28a:	f1 f7       	brne	.-4      	; 0x288 <.L1^B3>
     28c:	00 c0       	rjmp	.+0      	; 0x28e <L0^A>

0000028e <L0^A>:
	...

00000290 <.LBE18>:
     290:	81 e0       	ldi	r24, 0x01	; 1
     292:	90 e0       	ldi	r25, 0x00	; 0
     294:	90 93 77 02 	sts	0x0277, r25	; 0x800277 <pressed_before.1+0x1>
     298:	80 93 76 02 	sts	0x0276, r24	; 0x800276 <pressed_before.1>

0000029c <.Loc.116>:
     29c:	08 95       	ret

0000029e <.L16>:
     29e:	20 91 76 02 	lds	r18, 0x0276	; 0x800276 <pressed_before.1>
     2a2:	30 91 77 02 	lds	r19, 0x0277	; 0x800277 <pressed_before.1+0x1>
     2a6:	23 2b       	or	r18, r19
     2a8:	61 f3       	breq	.-40     	; 0x282 <.L15>

000002aa <.LBB20>:
     2aa:	ef e3       	ldi	r30, 0x3F	; 63
     2ac:	fc e9       	ldi	r31, 0x9C	; 156

000002ae <.L1^B4>:
     2ae:	31 97       	sbiw	r30, 0x01	; 1
     2b0:	f1 f7       	brne	.-4      	; 0x2ae <.L1^B4>
     2b2:	00 c0       	rjmp	.+0      	; 0x2b4 <L0^A>

000002b4 <L0^A>:
	...

000002b6 <.LBE20>:
     2b6:	10 92 77 02 	sts	0x0277, r1	; 0x800277 <pressed_before.1+0x1>
     2ba:	10 92 76 02 	sts	0x0276, r1	; 0x800276 <pressed_before.1>
     2be:	08 95       	ret

000002c0 <enter_pressed_once>:
     2c0:	0e 94 02 01 	call	0x204	; 0x204 <enter_pressed>

000002c4 <.LVL10>:
     2c4:	88 23       	and	r24, r24
     2c6:	a9 f0       	breq	.+42     	; 0x2f2 <.L21>

000002c8 <.Loc.136>:
     2c8:	80 91 74 02 	lds	r24, 0x0274	; 0x800274 <pressed_before.0>
     2cc:	90 91 75 02 	lds	r25, 0x0275	; 0x800275 <pressed_before.0+0x1>
     2d0:	89 2b       	or	r24, r25
     2d2:	11 f0       	breq	.+4      	; 0x2d8 <.L24>

000002d4 <.Loc.138>:
     2d4:	80 e0       	ldi	r24, 0x00	; 0

000002d6 <.L20>:
     2d6:	08 95       	ret

000002d8 <.L24>:
     2d8:	8f e3       	ldi	r24, 0x3F	; 63
     2da:	9c e9       	ldi	r25, 0x9C	; 156

000002dc <.L1^B5>:
     2dc:	01 97       	sbiw	r24, 0x01	; 1
     2de:	f1 f7       	brne	.-4      	; 0x2dc <.L1^B5>
     2e0:	00 c0       	rjmp	.+0      	; 0x2e2 <L0^A>

000002e2 <L0^A>:
	...

000002e4 <.LBE22>:
     2e4:	81 e0       	ldi	r24, 0x01	; 1
     2e6:	90 e0       	ldi	r25, 0x00	; 0
     2e8:	90 93 75 02 	sts	0x0275, r25	; 0x800275 <pressed_before.0+0x1>
     2ec:	80 93 74 02 	sts	0x0274, r24	; 0x800274 <pressed_before.0>

000002f0 <.Loc.151>:
     2f0:	08 95       	ret

000002f2 <.L21>:
     2f2:	20 91 74 02 	lds	r18, 0x0274	; 0x800274 <pressed_before.0>
     2f6:	30 91 75 02 	lds	r19, 0x0275	; 0x800275 <pressed_before.0+0x1>
     2fa:	23 2b       	or	r18, r19
     2fc:	61 f3       	breq	.-40     	; 0x2d6 <.L20>

000002fe <.LBB24>:
     2fe:	ef e3       	ldi	r30, 0x3F	; 63
     300:	fc e9       	ldi	r31, 0x9C	; 156

00000302 <.L1^B6>:
     302:	31 97       	sbiw	r30, 0x01	; 1
     304:	f1 f7       	brne	.-4      	; 0x302 <.L1^B6>
     306:	00 c0       	rjmp	.+0      	; 0x308 <L0^A>

00000308 <L0^A>:
	...

0000030a <.LBE24>:
     30a:	10 92 75 02 	sts	0x0275, r1	; 0x800275 <pressed_before.0+0x1>
     30e:	10 92 74 02 	sts	0x0274, r1	; 0x800274 <pressed_before.0>
     312:	08 95       	ret

00000314 <__vector_1>:
     314:	1f 92       	push	r1
     316:	0f 92       	push	r0
     318:	0f b6       	in	r0, 0x3f	; 63
     31a:	0f 92       	push	r0
     31c:	11 24       	eor	r1, r1
     31e:	0b b6       	in	r0, 0x3b	; 59
     320:	0f 92       	push	r0
     322:	2f 93       	push	r18
     324:	3f 93       	push	r19
     326:	4f 93       	push	r20
     328:	5f 93       	push	r21
     32a:	6f 93       	push	r22
     32c:	7f 93       	push	r23
     32e:	8f 93       	push	r24
     330:	9f 93       	push	r25
     332:	af 93       	push	r26
     334:	bf 93       	push	r27
     336:	cf 93       	push	r28
     338:	df 93       	push	r29
     33a:	ef 93       	push	r30
     33c:	ff 93       	push	r31

0000033e <.LBB34>:
     33e:	c1 e0       	ldi	r28, 0x01	; 1
     340:	d1 e0       	ldi	r29, 0x01	; 1

00000342 <.Loc.171>:
     342:	48 99       	sbic	0x09, 0	; 9
     344:	20 c0       	rjmp	.+64     	; 0x386 <.L26>

00000346 <.L25>:
     346:	ff 91       	pop	r31
     348:	ef 91       	pop	r30
     34a:	df 91       	pop	r29
     34c:	cf 91       	pop	r28
     34e:	bf 91       	pop	r27
     350:	af 91       	pop	r26
     352:	9f 91       	pop	r25
     354:	8f 91       	pop	r24
     356:	7f 91       	pop	r23
     358:	6f 91       	pop	r22
     35a:	5f 91       	pop	r21
     35c:	4f 91       	pop	r20
     35e:	3f 91       	pop	r19
     360:	2f 91       	pop	r18
     362:	0f 90       	pop	r0
     364:	0b be       	out	0x3b, r0	; 59
     366:	0f 90       	pop	r0
     368:	0f be       	out	0x3f, r0	; 63
     36a:	0f 90       	pop	r0
     36c:	1f 90       	pop	r1
     36e:	18 95       	reti

00000370 <.L31>:
     370:	9d 98       	cbi	0x13, 5	; 19

00000372 <.Loc.175>:
     372:	88 81       	ld	r24, Y
     374:	8f 7b       	andi	r24, 0xBF	; 191
     376:	88 83       	st	Y, r24

00000378 <.Loc.177>:
     378:	80 e0       	ldi	r24, 0x00	; 0
     37a:	0e 94 aa 07 	call	0xf54	; 0xf54 <buzzer_enable>

0000037e <.LBB36>:
     37e:	48 9b       	sbis	0x09, 0	; 9
     380:	0f c0       	rjmp	.+30     	; 0x3a0 <.L28>

00000382 <.Loc.182>:
     382:	0e 94 6a 10 	call	0x20d4	; 0x20d4 <display_txt_stop>

00000386 <.L26>:
     386:	0e 94 0c 01 	call	0x218	; 0x218 <plus_pressed_once>

0000038a <.LVL17>:
     38a:	88 23       	and	r24, r24
     38c:	89 f3       	breq	.-30     	; 0x370 <.L31>

0000038e <.LBB38>:
     38e:	48 99       	sbic	0x09, 0	; 9
     390:	ef cf       	rjmp	.-34     	; 0x370 <.L31>

00000392 <.Loc.189>:
     392:	9d 9a       	sbi	0x13, 5	; 19

00000394 <.Loc.191>:
     394:	e1 e0       	ldi	r30, 0x01	; 1
     396:	f1 e0       	ldi	r31, 0x01	; 1
     398:	80 81       	ld	r24, Z

0000039a <.Loc.192>:
     39a:	80 64       	ori	r24, 0x40	; 64
     39c:	80 83       	st	Z, r24

0000039e <.Loc.193>:
     39e:	d3 cf       	rjmp	.-90     	; 0x346 <.L25>

000003a0 <.L28>:
     3a0:	0e 94 60 01 	call	0x2c0	; 0x2c0 <enter_pressed_once>

000003a4 <.LVL18>:
     3a4:	88 23       	and	r24, r24
     3a6:	79 f3       	breq	.-34     	; 0x386 <.L26>

000003a8 <.LBB40>:
     3a8:	48 99       	sbic	0x09, 0	; 9
     3aa:	ed cf       	rjmp	.-38     	; 0x386 <.L26>

000003ac <.Loc.200>:
     3ac:	f8 94       	cli

000003ae <.Loc.201>:
     3ae:	88 e1       	ldi	r24, 0x18	; 24
     3b0:	80 93 60 00 	sts	0x0060, r24	; 0x800060 <__TEXT_REGION_LENGTH__+0x700060>

000003b4 <.L30>:
     3b4:	ff cf       	rjmp	.-2      	; 0x3b4 <.L30>

000003b6 <led_control>:
     3b6:	88 23       	and	r24, r24
     3b8:	11 f0       	breq	.+4      	; 0x3be <.L34>

000003ba <.Loc.209>:
     3ba:	5f 98       	cbi	0x0b, 7	; 11
     3bc:	08 95       	ret

000003be <.L34>:
     3be:	5f 9a       	sbi	0x0b, 7	; 11

000003c0 <.Loc.213>:
     3c0:	08 95       	ret

000003c2 <led_init>:
     3c2:	57 9a       	sbi	0x0a, 7	; 10

000003c4 <.Loc.217>:
     3c4:	80 e0       	ldi	r24, 0x00	; 0
     3c6:	0e 94 db 01 	call	0x3b6	; 0x3b6 <led_control>

000003ca <.LVL20>:
     3ca:	08 95       	ret

000003cc <basic_io_init>:
     3cc:	0e 94 c5 00 	call	0x18a	; 0x18a <donk_init>

000003d0 <.LVL21>:
     3d0:	0e 94 d6 00 	call	0x1ac	; 0x1ac <buttons_init>

000003d4 <.LVL22>:
     3d4:	0e 94 dd 00 	call	0x1ba	; 0x1ba <init_stop_button>

000003d8 <.LVL23>:
     3d8:	0e 94 e1 01 	call	0x3c2	; 0x3c2 <led_init>

000003dc <.LVL24>:
     3dc:	08 95       	ret

000003de <USART0_init>:
     3de:	9c 01       	movw	r18, r24
     3e0:	40 e0       	ldi	r20, 0x00	; 0
     3e2:	50 e0       	ldi	r21, 0x00	; 0
     3e4:	60 e4       	ldi	r22, 0x40	; 64
     3e6:	72 e4       	ldi	r23, 0x42	; 66
     3e8:	8f e0       	ldi	r24, 0x0F	; 15
     3ea:	90 e0       	ldi	r25, 0x00	; 0
     3ec:	0e 94 93 10 	call	0x2126	; 0x2126 <__udivmodsi4>

000003f0 <.Loc.3>:
     3f0:	21 50       	subi	r18, 0x01	; 1
     3f2:	31 09       	sbc	r19, r1

000003f4 <.Loc.4>:
     3f4:	30 93 c5 00 	sts	0x00C5, r19	; 0x8000c5 <__TEXT_REGION_LENGTH__+0x7000c5>

000003f8 <.Loc.6>:
     3f8:	20 93 c4 00 	sts	0x00C4, r18	; 0x8000c4 <__TEXT_REGION_LENGTH__+0x7000c4>

000003fc <.Loc.8>:
     3fc:	88 e1       	ldi	r24, 0x18	; 24

000003fe <.Loc.10>:
     3fe:	80 93 c1 00 	sts	0x00C1, r24	; 0x8000c1 <__TEXT_REGION_LENGTH__+0x7000c1>

00000402 <.Loc.11>:
     402:	86 e0       	ldi	r24, 0x06	; 6
     404:	80 93 c2 00 	sts	0x00C2, r24	; 0x8000c2 <__TEXT_REGION_LENGTH__+0x7000c2>

00000408 <.Loc.13>:
     408:	08 95       	ret

0000040a <USART1_init>:
     40a:	9c 01       	movw	r18, r24
     40c:	40 e0       	ldi	r20, 0x00	; 0
     40e:	50 e0       	ldi	r21, 0x00	; 0
     410:	60 e4       	ldi	r22, 0x40	; 64
     412:	72 e4       	ldi	r23, 0x42	; 66
     414:	8f e0       	ldi	r24, 0x0F	; 15
     416:	90 e0       	ldi	r25, 0x00	; 0
     418:	0e 94 93 10 	call	0x2126	; 0x2126 <__udivmodsi4>

0000041c <.Loc.17>:
     41c:	21 50       	subi	r18, 0x01	; 1
     41e:	31 09       	sbc	r19, r1

00000420 <.Loc.18>:
     420:	30 93 cd 00 	sts	0x00CD, r19	; 0x8000cd <__TEXT_REGION_LENGTH__+0x7000cd>

00000424 <.Loc.20>:
     424:	20 93 cc 00 	sts	0x00CC, r18	; 0x8000cc <__TEXT_REGION_LENGTH__+0x7000cc>

00000428 <.Loc.22>:
     428:	88 e1       	ldi	r24, 0x18	; 24

0000042a <.Loc.24>:
     42a:	80 93 c9 00 	sts	0x00C9, r24	; 0x8000c9 <__TEXT_REGION_LENGTH__+0x7000c9>

0000042e <.Loc.25>:
     42e:	86 e0       	ldi	r24, 0x06	; 6
     430:	80 93 ca 00 	sts	0x00CA, r24	; 0x8000ca <__TEXT_REGION_LENGTH__+0x7000ca>

00000434 <.Loc.27>:
     434:	08 95       	ret

00000436 <USART0_sendByte>:
     436:	e0 ec       	ldi	r30, 0xC0	; 192
     438:	f0 e0       	ldi	r31, 0x00	; 0

0000043a <.L4>:
     43a:	90 81       	ld	r25, Z

0000043c <.Loc.33>:
     43c:	95 ff       	sbrs	r25, 5
     43e:	fd cf       	rjmp	.-6      	; 0x43a <.L4>

00000440 <.Loc.34>:
     440:	80 93 c6 00 	sts	0x00C6, r24	; 0x8000c6 <__TEXT_REGION_LENGTH__+0x7000c6>

00000444 <.Loc.36>:
     444:	08 95       	ret

00000446 <USART0_sendString>:
     446:	cf 93       	push	r28
     448:	df 93       	push	r29
     44a:	c8 2f       	mov	r28, r24
     44c:	d9 2f       	mov	r29, r25

0000044e <.Loc.39>:
     44e:	88 81       	ld	r24, Y
     450:	88 23       	and	r24, r24
     452:	31 f0       	breq	.+12     	; 0x460 <.L6>
     454:	21 96       	adiw	r28, 0x01	; 1

00000456 <.L8>:
     456:	0e 94 1b 02 	call	0x436	; 0x436 <USART0_sendByte>

0000045a <.LVL10>:
     45a:	89 91       	ld	r24, Y+

0000045c <.Loc.44>:
     45c:	81 11       	cpse	r24, r1
     45e:	fb cf       	rjmp	.-10     	; 0x456 <.L8>

00000460 <.L6>:
     460:	df 91       	pop	r29
     462:	cf 91       	pop	r28
     464:	08 95       	ret

00000466 <USART0_sendHexByte>:
     466:	1f 93       	push	r17
     468:	cf 93       	push	r28
     46a:	df 93       	push	r29
     46c:	cd b7       	in	r28, 0x3d	; 61
     46e:	de b7       	in	r29, 0x3e	; 62
     470:	61 97       	sbiw	r28, 0x11	; 17
     472:	0f b6       	in	r0, 0x3f	; 63
     474:	f8 94       	cli
     476:	de bf       	out	0x3e, r29	; 62
     478:	0f be       	out	0x3f, r0	; 63
     47a:	cd bf       	out	0x3d, r28	; 61
     47c:	18 2f       	mov	r17, r24

0000047e <.Loc.48>:
     47e:	81 e1       	ldi	r24, 0x11	; 17

00000480 <.Loc.50>:
     480:	ef e2       	ldi	r30, 0x2F	; 47
     482:	f2 e0       	ldi	r31, 0x02	; 2
     484:	de 01       	movw	r26, r28
     486:	11 96       	adiw	r26, 0x01	; 1

00000488 <.L^B1>:
     488:	01 90       	ld	r0, Z+
     48a:	0d 92       	st	X+, r0
     48c:	8a 95       	dec	r24
     48e:	e1 f7       	brne	.-8      	; 0x488 <.L^B1>

00000490 <.Loc.51>:
     490:	81 2f       	mov	r24, r17
     492:	82 95       	swap	r24
     494:	8f 70       	andi	r24, 0x0F	; 15

00000496 <.Loc.53>:
     496:	e1 e0       	ldi	r30, 0x01	; 1
     498:	f0 e0       	ldi	r31, 0x00	; 0
     49a:	ec 0f       	add	r30, r28
     49c:	fd 1f       	adc	r31, r29
     49e:	e8 0f       	add	r30, r24
     4a0:	f1 1d       	adc	r31, r1

000004a2 <.Loc.54>:
     4a2:	80 81       	ld	r24, Z
     4a4:	0e 94 1b 02 	call	0x436	; 0x436 <USART0_sendByte>

000004a8 <.LVL15>:
     4a8:	1f 70       	andi	r17, 0x0F	; 15

000004aa <.Loc.57>:
     4aa:	e1 e0       	ldi	r30, 0x01	; 1
     4ac:	f0 e0       	ldi	r31, 0x00	; 0
     4ae:	ec 0f       	add	r30, r28
     4b0:	fd 1f       	adc	r31, r29
     4b2:	e1 0f       	add	r30, r17
     4b4:	f1 1d       	adc	r31, r1

000004b6 <.Loc.58>:
     4b6:	80 81       	ld	r24, Z
     4b8:	0e 94 1b 02 	call	0x436	; 0x436 <USART0_sendByte>

000004bc <.LVL17>:
     4bc:	61 96       	adiw	r28, 0x11	; 17
     4be:	0f b6       	in	r0, 0x3f	; 63
     4c0:	f8 94       	cli
     4c2:	de bf       	out	0x3e, r29	; 62
     4c4:	0f be       	out	0x3f, r0	; 63
     4c6:	cd bf       	out	0x3d, r28	; 61
     4c8:	df 91       	pop	r29
     4ca:	cf 91       	pop	r28
     4cc:	1f 91       	pop	r17
     4ce:	08 95       	ret

000004d0 <USART1_sendCommand>:
     4d0:	0f 93       	push	r16
     4d2:	1f 93       	push	r17
     4d4:	cf 93       	push	r28
     4d6:	df 93       	push	r29
     4d8:	08 2f       	mov	r16, r24
     4da:	16 2f       	mov	r17, r22
     4dc:	d4 2f       	mov	r29, r20
     4de:	c2 2f       	mov	r28, r18

000004e0 <.Loc.62>:
     4e0:	80 e4       	ldi	r24, 0x40	; 64
     4e2:	92 e0       	ldi	r25, 0x02	; 2

000004e4 <.Loc.63>:
     4e4:	0e 94 23 02 	call	0x446	; 0x446 <USART0_sendString>

000004e8 <.LVL20>:
     4e8:	80 2f       	mov	r24, r16
     4ea:	0e 94 33 02 	call	0x466	; 0x466 <USART0_sendHexByte>

000004ee <.LVL21>:
     4ee:	80 e2       	ldi	r24, 0x20	; 32
     4f0:	0e 94 1b 02 	call	0x436	; 0x436 <USART0_sendByte>

000004f4 <.LVL22>:
     4f4:	81 2f       	mov	r24, r17
     4f6:	0e 94 33 02 	call	0x466	; 0x466 <USART0_sendHexByte>

000004fa <.LVL23>:
     4fa:	80 e2       	ldi	r24, 0x20	; 32
     4fc:	0e 94 1b 02 	call	0x436	; 0x436 <USART0_sendByte>

00000500 <.LVL24>:
     500:	8d 2f       	mov	r24, r29
     502:	0e 94 33 02 	call	0x466	; 0x466 <USART0_sendHexByte>

00000506 <.LVL25>:
     506:	80 e2       	ldi	r24, 0x20	; 32
     508:	0e 94 1b 02 	call	0x436	; 0x436 <USART0_sendByte>

0000050c <.LVL26>:
     50c:	8c 2f       	mov	r24, r28
     50e:	0e 94 33 02 	call	0x466	; 0x466 <USART0_sendHexByte>

00000512 <.LVL27>:
     512:	80 e7       	ldi	r24, 0x70	; 112
     514:	92 e0       	ldi	r25, 0x02	; 2
     516:	0e 94 23 02 	call	0x446	; 0x446 <USART0_sendString>

0000051a <.LVL28>:
     51a:	e8 ec       	ldi	r30, 0xC8	; 200
     51c:	f0 e0       	ldi	r31, 0x00	; 0

0000051e <.L12>:
     51e:	90 81       	ld	r25, Z

00000520 <.Loc.77>:
     520:	95 ff       	sbrs	r25, 5
     522:	fd cf       	rjmp	.-6      	; 0x51e <.L12>

00000524 <.Loc.78>:
     524:	00 93 ce 00 	sts	0x00CE, r16	; 0x8000ce <__TEXT_REGION_LENGTH__+0x7000ce>

00000528 <.Loc.80>:
     528:	e8 ec       	ldi	r30, 0xC8	; 200
     52a:	f0 e0       	ldi	r31, 0x00	; 0

0000052c <.L13>:
     52c:	90 81       	ld	r25, Z

0000052e <.Loc.85>:
     52e:	95 ff       	sbrs	r25, 5
     530:	fd cf       	rjmp	.-6      	; 0x52c <.L13>

00000532 <.Loc.86>:
     532:	10 93 ce 00 	sts	0x00CE, r17	; 0x8000ce <__TEXT_REGION_LENGTH__+0x7000ce>

00000536 <.Loc.88>:
     536:	e8 ec       	ldi	r30, 0xC8	; 200
     538:	f0 e0       	ldi	r31, 0x00	; 0

0000053a <.L14>:
     53a:	90 81       	ld	r25, Z

0000053c <.Loc.93>:
     53c:	95 ff       	sbrs	r25, 5
     53e:	fd cf       	rjmp	.-6      	; 0x53a <.L14>

00000540 <.Loc.94>:
     540:	d0 93 ce 00 	sts	0x00CE, r29	; 0x8000ce <__TEXT_REGION_LENGTH__+0x7000ce>

00000544 <.Loc.96>:
     544:	e8 ec       	ldi	r30, 0xC8	; 200
     546:	f0 e0       	ldi	r31, 0x00	; 0

00000548 <.L15>:
     548:	90 81       	ld	r25, Z

0000054a <.Loc.101>:
     54a:	95 ff       	sbrs	r25, 5
     54c:	fd cf       	rjmp	.-6      	; 0x548 <.L15>

0000054e <.Loc.102>:
     54e:	c0 93 ce 00 	sts	0x00CE, r28	; 0x8000ce <__TEXT_REGION_LENGTH__+0x7000ce>

00000552 <.Loc.104>:
     552:	8b e5       	ldi	r24, 0x5B	; 91
     554:	92 e0       	ldi	r25, 0x02	; 2
     556:	0e 94 23 02 	call	0x446	; 0x446 <USART0_sendString>

0000055a <.LVL29>:
     55a:	df 91       	pop	r29

0000055c <.Loc.106>:
     55c:	cf 91       	pop	r28

0000055e <.Loc.107>:
     55e:	1f 91       	pop	r17

00000560 <.Loc.108>:
     560:	0f 91       	pop	r16

00000562 <.Loc.109>:
     562:	08 95       	ret

00000564 <USART1_receiveByte>:
     564:	e8 ec       	ldi	r30, 0xC8	; 200
     566:	f0 e0       	ldi	r31, 0x00	; 0

00000568 <.L21>:
     568:	80 81       	ld	r24, Z

0000056a <.Loc.115>:
     56a:	88 23       	and	r24, r24
     56c:	ec f7       	brge	.-6      	; 0x568 <.L21>

0000056e <.Loc.116>:
     56e:	80 91 ce 00 	lds	r24, 0x00CE	; 0x8000ce <__TEXT_REGION_LENGTH__+0x7000ce>

00000572 <.Loc.118>:
     572:	08 95       	ret

00000574 <task_manager>:
     574:	e8 2f       	mov	r30, r24
     576:	f9 2f       	mov	r31, r25
     578:	24 2f       	mov	r18, r20

0000057a <.Loc.121>:
     57a:	09 97       	sbiw	r24, 0x09	; 9
     57c:	d8 f5       	brcc	.+118    	; 0x5f4 <.L23>
     57e:	88 27       	eor	r24, r24
     580:	ee 5c       	subi	r30, 0xCE	; 206
     582:	fd 4e       	sbci	r31, 0xED	; 237
     584:	8f 4f       	sbci	r24, 0xFF	; 255
     586:	0c 94 d4 10 	jmp	0x21a8	; 0x21a8 <__tablejump2__>

0000058a <.L34>:
     58a:	46 2f       	mov	r20, r22

0000058c <.Loc.123>:
     58c:	60 e8       	ldi	r22, 0x80	; 128

0000058e <.Loc.124>:
     58e:	81 e0       	ldi	r24, 0x01	; 1
     590:	0e 94 68 02 	call	0x4d0	; 0x4d0 <USART1_sendCommand>

00000594 <.LVL38>:
     594:	08 95       	ret

00000596 <.L33>:
     596:	46 2f       	mov	r20, r22
     598:	6f ef       	ldi	r22, 0xFF	; 255

0000059a <.Loc.127>:
     59a:	81 e0       	ldi	r24, 0x01	; 1
     59c:	0e 94 68 02 	call	0x4d0	; 0x4d0 <USART1_sendCommand>

000005a0 <.LVL41>:
     5a0:	08 95       	ret

000005a2 <.L32>:
     5a2:	46 2f       	mov	r20, r22
     5a4:	60 e0       	ldi	r22, 0x00	; 0

000005a6 <.Loc.130>:
     5a6:	81 e0       	ldi	r24, 0x01	; 1
     5a8:	0e 94 68 02 	call	0x4d0	; 0x4d0 <USART1_sendCommand>

000005ac <.LVL44>:
     5ac:	08 95       	ret

000005ae <.L31>:
     5ae:	46 2f       	mov	r20, r22
     5b0:	6e e7       	ldi	r22, 0x7E	; 126

000005b2 <.Loc.133>:
     5b2:	81 e0       	ldi	r24, 0x01	; 1
     5b4:	0e 94 68 02 	call	0x4d0	; 0x4d0 <USART1_sendCommand>

000005b8 <.LVL47>:
     5b8:	08 95       	ret

000005ba <.L30>:
     5ba:	46 2f       	mov	r20, r22
     5bc:	6f e7       	ldi	r22, 0x7F	; 127

000005be <.Loc.136>:
     5be:	81 e0       	ldi	r24, 0x01	; 1
     5c0:	0e 94 68 02 	call	0x4d0	; 0x4d0 <USART1_sendCommand>

000005c4 <.LVL50>:
     5c4:	08 95       	ret

000005c6 <.L29>:
     5c6:	46 2f       	mov	r20, r22
     5c8:	61 e0       	ldi	r22, 0x01	; 1

000005ca <.Loc.139>:
     5ca:	82 e0       	ldi	r24, 0x02	; 2
     5cc:	0e 94 68 02 	call	0x4d0	; 0x4d0 <USART1_sendCommand>

000005d0 <.LVL53>:
     5d0:	08 95       	ret

000005d2 <.L28>:
     5d2:	46 2f       	mov	r20, r22
     5d4:	62 e0       	ldi	r22, 0x02	; 2

000005d6 <.Loc.142>:
     5d6:	82 e0       	ldi	r24, 0x02	; 2
     5d8:	0e 94 68 02 	call	0x4d0	; 0x4d0 <USART1_sendCommand>

000005dc <.LVL56>:
     5dc:	08 95       	ret

000005de <.L27>:
     5de:	46 2f       	mov	r20, r22
     5e0:	61 e0       	ldi	r22, 0x01	; 1

000005e2 <.Loc.145>:
     5e2:	83 e0       	ldi	r24, 0x03	; 3
     5e4:	0e 94 68 02 	call	0x4d0	; 0x4d0 <USART1_sendCommand>

000005e8 <.LVL59>:
     5e8:	08 95       	ret

000005ea <.L25>:
     5ea:	46 2f       	mov	r20, r22
     5ec:	62 e0       	ldi	r22, 0x02	; 2

000005ee <.Loc.148>:
     5ee:	83 e0       	ldi	r24, 0x03	; 3
     5f0:	0e 94 68 02 	call	0x4d0	; 0x4d0 <USART1_sendCommand>

000005f4 <.L23>:
     5f4:	08 95       	ret

000005f6 <__vector_41>:
     5f6:	0f 92       	push	r0
     5f8:	0f b6       	in	r0, 0x3f	; 63
     5fa:	0f 92       	push	r0
     5fc:	1f 92       	push	r1
     5fe:	11 24       	eor	r1, r1
     600:	2f 93       	push	r18
     602:	2b b7       	in	r18, 0x3b	; 59
     604:	2f 93       	push	r18
     606:	3f 93       	push	r19
     608:	6f 93       	push	r22
     60a:	7f 93       	push	r23
     60c:	8f 93       	push	r24
     60e:	9f 93       	push	r25
     610:	af 93       	push	r26
     612:	bf 93       	push	r27
     614:	ef 93       	push	r30
     616:	ff 93       	push	r31

00000618 <.Loc.1>:
     618:	80 91 a1 00 	lds	r24, 0x00A1	; 0x8000a1 <__TEXT_REGION_LENGTH__+0x7000a1>

0000061c <.Loc.4>:
     61c:	86 ff       	sbrs	r24, 6
     61e:	1e c0       	rjmp	.+60     	; 0x65c <.L2>

00000620 <.Loc.5>:
     620:	80 91 a6 00 	lds	r24, 0x00A6	; 0x8000a6 <__TEXT_REGION_LENGTH__+0x7000a6>
     624:	90 91 a7 00 	lds	r25, 0x00A7	; 0x8000a7 <__TEXT_REGION_LENGTH__+0x7000a7>

00000628 <.Loc.7>:
     628:	90 93 81 02 	sts	0x0281, r25	; 0x800281 <start_time.1+0x1>
     62c:	80 93 80 02 	sts	0x0280, r24	; 0x800280 <start_time.1>

00000630 <.Loc.8>:
     630:	e1 ea       	ldi	r30, 0xA1	; 161
     632:	f0 e0       	ldi	r31, 0x00	; 0
     634:	80 81       	ld	r24, Z
     636:	8f 7b       	andi	r24, 0xBF	; 191
     638:	80 83       	st	Z, r24

0000063a <.L1>:
     63a:	ff 91       	pop	r31
     63c:	ef 91       	pop	r30
     63e:	bf 91       	pop	r27
     640:	af 91       	pop	r26
     642:	9f 91       	pop	r25
     644:	8f 91       	pop	r24
     646:	7f 91       	pop	r23
     648:	6f 91       	pop	r22
     64a:	3f 91       	pop	r19
     64c:	2f 91       	pop	r18
     64e:	2b bf       	out	0x3b, r18	; 59
     650:	2f 91       	pop	r18
     652:	1f 90       	pop	r1
     654:	0f 90       	pop	r0
     656:	0f be       	out	0x3f, r0	; 63
     658:	0f 90       	pop	r0
     65a:	18 95       	reti

0000065c <.L2>:
     65c:	e1 ea       	ldi	r30, 0xA1	; 161
     65e:	f0 e0       	ldi	r31, 0x00	; 0
     660:	80 81       	ld	r24, Z

00000662 <.Loc.12>:
     662:	80 64       	ori	r24, 0x40	; 64
     664:	80 83       	st	Z, r24

00000666 <.Loc.13>:
     666:	20 91 a6 00 	lds	r18, 0x00A6	; 0x8000a6 <__TEXT_REGION_LENGTH__+0x7000a6>
     66a:	30 91 a7 00 	lds	r19, 0x00A7	; 0x8000a7 <__TEXT_REGION_LENGTH__+0x7000a7>

0000066e <.Loc.15>:
     66e:	80 91 80 02 	lds	r24, 0x0280	; 0x800280 <start_time.1>
     672:	90 91 81 02 	lds	r25, 0x0281	; 0x800281 <start_time.1+0x1>
     676:	28 1b       	sub	r18, r24
     678:	39 0b       	sbc	r19, r25

0000067a <.Loc.16>:
     67a:	a9 e0       	ldi	r26, 0x09	; 9
     67c:	bc e8       	ldi	r27, 0x8C	; 140
     67e:	0e 94 dc 10 	call	0x21b8	; 0x21b8 <__umulhisi3>
     682:	00 24       	eor	r0, r0
     684:	88 0f       	add	r24, r24
     686:	99 1f       	adc	r25, r25
     688:	00 1c       	adc	r0, r0
     68a:	88 0f       	add	r24, r24
     68c:	99 1f       	adc	r25, r25
     68e:	00 1c       	adc	r0, r0
     690:	89 2f       	mov	r24, r25
     692:	90 2d       	mov	r25, r0

00000694 <.Loc.17>:
     694:	90 93 7d 02 	sts	0x027D, r25	; 0x80027d <left_distance+0x1>
     698:	80 93 7c 02 	sts	0x027C, r24	; 0x80027c <left_distance>

0000069c <.Loc.18>:
     69c:	ce cf       	rjmp	.-100    	; 0x63a <.L1>

0000069e <__vector_46>:
     69e:	0f 92       	push	r0
     6a0:	0f b6       	in	r0, 0x3f	; 63
     6a2:	0f 92       	push	r0
     6a4:	1f 92       	push	r1
     6a6:	11 24       	eor	r1, r1
     6a8:	2f 93       	push	r18
     6aa:	2b b7       	in	r18, 0x3b	; 59
     6ac:	2f 93       	push	r18
     6ae:	3f 93       	push	r19
     6b0:	6f 93       	push	r22
     6b2:	7f 93       	push	r23
     6b4:	8f 93       	push	r24
     6b6:	9f 93       	push	r25
     6b8:	af 93       	push	r26
     6ba:	bf 93       	push	r27
     6bc:	ef 93       	push	r30
     6be:	ff 93       	push	r31

000006c0 <.Loc.20>:
     6c0:	80 91 21 01 	lds	r24, 0x0121	; 0x800121 <__TEXT_REGION_LENGTH__+0x700121>

000006c4 <.Loc.23>:
     6c4:	86 ff       	sbrs	r24, 6
     6c6:	1e c0       	rjmp	.+60     	; 0x704 <.L5>

000006c8 <.Loc.24>:
     6c8:	80 91 26 01 	lds	r24, 0x0126	; 0x800126 <__TEXT_REGION_LENGTH__+0x700126>
     6cc:	90 91 27 01 	lds	r25, 0x0127	; 0x800127 <__TEXT_REGION_LENGTH__+0x700127>

000006d0 <.Loc.26>:
     6d0:	90 93 7f 02 	sts	0x027F, r25	; 0x80027f <start_time.0+0x1>
     6d4:	80 93 7e 02 	sts	0x027E, r24	; 0x80027e <start_time.0>

000006d8 <.Loc.27>:
     6d8:	e1 e2       	ldi	r30, 0x21	; 33
     6da:	f1 e0       	ldi	r31, 0x01	; 1
     6dc:	80 81       	ld	r24, Z
     6de:	8f 7b       	andi	r24, 0xBF	; 191
     6e0:	80 83       	st	Z, r24

000006e2 <.L4>:
     6e2:	ff 91       	pop	r31
     6e4:	ef 91       	pop	r30
     6e6:	bf 91       	pop	r27
     6e8:	af 91       	pop	r26
     6ea:	9f 91       	pop	r25
     6ec:	8f 91       	pop	r24
     6ee:	7f 91       	pop	r23
     6f0:	6f 91       	pop	r22
     6f2:	3f 91       	pop	r19
     6f4:	2f 91       	pop	r18
     6f6:	2b bf       	out	0x3b, r18	; 59
     6f8:	2f 91       	pop	r18
     6fa:	1f 90       	pop	r1
     6fc:	0f 90       	pop	r0
     6fe:	0f be       	out	0x3f, r0	; 63
     700:	0f 90       	pop	r0
     702:	18 95       	reti

00000704 <.L5>:
     704:	e1 e2       	ldi	r30, 0x21	; 33
     706:	f1 e0       	ldi	r31, 0x01	; 1
     708:	80 81       	ld	r24, Z

0000070a <.Loc.31>:
     70a:	80 64       	ori	r24, 0x40	; 64
     70c:	80 83       	st	Z, r24

0000070e <.Loc.32>:
     70e:	20 91 26 01 	lds	r18, 0x0126	; 0x800126 <__TEXT_REGION_LENGTH__+0x700126>
     712:	30 91 27 01 	lds	r19, 0x0127	; 0x800127 <__TEXT_REGION_LENGTH__+0x700127>

00000716 <.Loc.34>:
     716:	80 91 7e 02 	lds	r24, 0x027E	; 0x80027e <start_time.0>
     71a:	90 91 7f 02 	lds	r25, 0x027F	; 0x80027f <start_time.0+0x1>
     71e:	28 1b       	sub	r18, r24
     720:	39 0b       	sbc	r19, r25

00000722 <.Loc.35>:
     722:	a9 e0       	ldi	r26, 0x09	; 9
     724:	bc e8       	ldi	r27, 0x8C	; 140
     726:	0e 94 dc 10 	call	0x21b8	; 0x21b8 <__umulhisi3>
     72a:	00 24       	eor	r0, r0
     72c:	88 0f       	add	r24, r24
     72e:	99 1f       	adc	r25, r25
     730:	00 1c       	adc	r0, r0
     732:	88 0f       	add	r24, r24
     734:	99 1f       	adc	r25, r25
     736:	00 1c       	adc	r0, r0
     738:	89 2f       	mov	r24, r25
     73a:	90 2d       	mov	r25, r0

0000073c <.Loc.36>:
     73c:	90 93 7b 02 	sts	0x027B, r25	; 0x80027b <right_distance+0x1>
     740:	80 93 7a 02 	sts	0x027A, r24	; 0x80027a <right_distance>

00000744 <.Loc.37>:
     744:	ce cf       	rjmp	.-100    	; 0x6e2 <.L4>

00000746 <ultrasonic_sync>:
     746:	10 92 a5 00 	sts	0x00A5, r1	; 0x8000a5 <__TEXT_REGION_LENGTH__+0x7000a5>
     74a:	10 92 a4 00 	sts	0x00A4, r1	; 0x8000a4 <__TEXT_REGION_LENGTH__+0x7000a4>

0000074e <.Loc.41>:
     74e:	10 92 25 01 	sts	0x0125, r1	; 0x800125 <__TEXT_REGION_LENGTH__+0x700125>
     752:	10 92 24 01 	sts	0x0124, r1	; 0x800124 <__TEXT_REGION_LENGTH__+0x700124>

00000756 <.Loc.43>:
     756:	08 95       	ret

00000758 <ultrasonic_select>:
     758:	81 11       	cpse	r24, r1
     75a:	10 c0       	rjmp	.+32     	; 0x77c <.L9>

0000075c <.Loc.47>:
     75c:	e0 ea       	ldi	r30, 0xA0	; 160
     75e:	f0 e0       	ldi	r31, 0x00	; 0
     760:	80 81       	ld	r24, Z

00000762 <.Loc.48>:
     762:	80 62       	ori	r24, 0x20	; 32
     764:	80 83       	st	Z, r24

00000766 <.Loc.49>:
     766:	e0 e2       	ldi	r30, 0x20	; 32
     768:	f1 e0       	ldi	r31, 0x01	; 1
     76a:	80 81       	ld	r24, Z
     76c:	8f 7d       	andi	r24, 0xDF	; 223
     76e:	80 83       	st	Z, r24

00000770 <.Loc.51>:
     770:	eb e0       	ldi	r30, 0x0B	; 11
     772:	f1 e0       	ldi	r31, 0x01	; 1
     774:	80 81       	ld	r24, Z
     776:	8f 7e       	andi	r24, 0xEF	; 239
     778:	80 83       	st	Z, r24
     77a:	08 95       	ret

0000077c <.L9>:
     77c:	e0 ea       	ldi	r30, 0xA0	; 160
     77e:	f0 e0       	ldi	r31, 0x00	; 0
     780:	80 81       	ld	r24, Z

00000782 <.Loc.55>:
     782:	8f 7d       	andi	r24, 0xDF	; 223
     784:	80 83       	st	Z, r24

00000786 <.Loc.56>:
     786:	e2 e0       	ldi	r30, 0x02	; 2
     788:	f1 e0       	ldi	r31, 0x01	; 1
     78a:	80 81       	ld	r24, Z
     78c:	8f 7e       	andi	r24, 0xEF	; 239
     78e:	80 83       	st	Z, r24

00000790 <.Loc.58>:
     790:	e0 e2       	ldi	r30, 0x20	; 32
     792:	f1 e0       	ldi	r31, 0x01	; 1
     794:	80 81       	ld	r24, Z

00000796 <.Loc.59>:
     796:	80 62       	ori	r24, 0x20	; 32
     798:	80 83       	st	Z, r24

0000079a <.Loc.60>:
     79a:	08 95       	ret

0000079c <ultrasonic_init>:
     79c:	e1 e0       	ldi	r30, 0x01	; 1
     79e:	f1 e0       	ldi	r31, 0x01	; 1
     7a0:	80 81       	ld	r24, Z

000007a2 <.Loc.63>:
     7a2:	80 61       	ori	r24, 0x10	; 16
     7a4:	80 83       	st	Z, r24

000007a6 <.Loc.64>:
     7a6:	e2 e0       	ldi	r30, 0x02	; 2
     7a8:	f1 e0       	ldi	r31, 0x01	; 1
     7aa:	80 81       	ld	r24, Z
     7ac:	8f 7e       	andi	r24, 0xEF	; 239
     7ae:	80 83       	st	Z, r24

000007b0 <.Loc.66>:
     7b0:	ea e0       	ldi	r30, 0x0A	; 10
     7b2:	f1 e0       	ldi	r31, 0x01	; 1
     7b4:	80 81       	ld	r24, Z

000007b6 <.Loc.67>:
     7b6:	80 61       	ori	r24, 0x10	; 16
     7b8:	80 83       	st	Z, r24

000007ba <.Loc.68>:
     7ba:	ab e0       	ldi	r26, 0x0B	; 11
     7bc:	b1 e0       	ldi	r27, 0x01	; 1
     7be:	8c 91       	ld	r24, X
     7c0:	8f 7e       	andi	r24, 0xEF	; 239
     7c2:	8c 93       	st	X, r24

000007c4 <.Loc.70>:
     7c4:	80 81       	ld	r24, Z
     7c6:	8e 7f       	andi	r24, 0xFE	; 254
     7c8:	80 83       	st	Z, r24

000007ca <.Loc.72>:
     7ca:	80 81       	ld	r24, Z
     7cc:	8d 7f       	andi	r24, 0xFD	; 253
     7ce:	80 83       	st	Z, r24

000007d0 <.Loc.74>:
     7d0:	93 e2       	ldi	r25, 0x23	; 35
     7d2:	90 93 a0 00 	sts	0x00A0, r25	; 0x8000a0 <__TEXT_REGION_LENGTH__+0x7000a0>

000007d6 <.Loc.76>:
     7d6:	8a e5       	ldi	r24, 0x5A	; 90
     7d8:	80 93 a1 00 	sts	0x00A1, r24	; 0x8000a1 <__TEXT_REGION_LENGTH__+0x7000a1>

000007dc <.Loc.78>:
     7dc:	20 e2       	ldi	r18, 0x20	; 32
     7de:	20 93 72 00 	sts	0x0072, r18	; 0x800072 <__TEXT_REGION_LENGTH__+0x700072>

000007e2 <.Loc.80>:
     7e2:	90 93 20 01 	sts	0x0120, r25	; 0x800120 <__TEXT_REGION_LENGTH__+0x700120>

000007e6 <.Loc.82>:
     7e6:	80 93 21 01 	sts	0x0121, r24	; 0x800121 <__TEXT_REGION_LENGTH__+0x700121>

000007ea <.Loc.84>:
     7ea:	81 e2       	ldi	r24, 0x21	; 33
     7ec:	80 93 73 00 	sts	0x0073, r24	; 0x800073 <__TEXT_REGION_LENGTH__+0x700073>

000007f0 <.Loc.86>:
     7f0:	8f ef       	ldi	r24, 0xFF	; 255
     7f2:	9f ef       	ldi	r25, 0xFF	; 255
     7f4:	90 93 a9 00 	sts	0x00A9, r25	; 0x8000a9 <__TEXT_REGION_LENGTH__+0x7000a9>
     7f8:	80 93 a8 00 	sts	0x00A8, r24	; 0x8000a8 <__TEXT_REGION_LENGTH__+0x7000a8>

000007fc <.Loc.88>:
     7fc:	90 93 29 01 	sts	0x0129, r25	; 0x800129 <__TEXT_REGION_LENGTH__+0x700129>
     800:	80 93 28 01 	sts	0x0128, r24	; 0x800128 <__TEXT_REGION_LENGTH__+0x700128>

00000804 <.Loc.90>:
     804:	84 e1       	ldi	r24, 0x14	; 20
     806:	90 e0       	ldi	r25, 0x00	; 0
     808:	90 93 ab 00 	sts	0x00AB, r25	; 0x8000ab <__TEXT_REGION_LENGTH__+0x7000ab>
     80c:	80 93 aa 00 	sts	0x00AA, r24	; 0x8000aa <__TEXT_REGION_LENGTH__+0x7000aa>

00000810 <.Loc.92>:
     810:	90 93 2b 01 	sts	0x012B, r25	; 0x80012b <__TEXT_REGION_LENGTH__+0x70012b>
     814:	80 93 2a 01 	sts	0x012A, r24	; 0x80012a <__TEXT_REGION_LENGTH__+0x70012a>

00000818 <.Loc.94>:
     818:	0e 94 a3 03 	call	0x746	; 0x746 <ultrasonic_sync>

0000081c <.LVL4>:
     81c:	80 e0       	ldi	r24, 0x00	; 0
     81e:	0e 94 ac 03 	call	0x758	; 0x758 <ultrasonic_select>

00000822 <.LVL5>:
     822:	08 95       	ret

00000824 <get_left_distance>:
     824:	2f b7       	in	r18, 0x3f	; 63

00000826 <.LBB13>:
    return 1;
}

static __inline__ uint8_t __iCliRetVal(void)
{
    cli();
     826:	f8 94       	cli

00000828 <.LBE13>:
     828:	80 91 7c 02 	lds	r24, 0x027C	; 0x80027c <left_distance>
     82c:	90 91 7d 02 	lds	r25, 0x027D	; 0x80027d <left_distance+0x1>

00000830 <.LBB15>:
    (void)__s;
}

static __inline__ void __iRestore(const  uint8_t *__s)
{
    SREG = *__s;
     830:	2f bf       	out	0x3f, r18	; 63

00000832 <.LBE12>:
     832:	08 95       	ret

00000834 <get_right_distance>:
     834:	2f b7       	in	r18, 0x3f	; 63

00000836 <.LBB18>:
    cli();
     836:	f8 94       	cli

00000838 <.LBE18>:
     838:	80 91 7a 02 	lds	r24, 0x027A	; 0x80027a <right_distance>
     83c:	90 91 7b 02 	lds	r25, 0x027B	; 0x80027b <right_distance+0x1>

00000840 <.LBB20>:
    SREG = *__s;
     840:	2f bf       	out	0x3f, r18	; 63

00000842 <.LBE17>:
     842:	08 95       	ret

00000844 <init_gp_timer>:
     844:	10 92 80 00 	sts	0x0080, r1	; 0x800080 <__TEXT_REGION_LENGTH__+0x700080>

00000848 <.Loc.3>:
     848:	8b e0       	ldi	r24, 0x0B	; 11
     84a:	80 93 81 00 	sts	0x0081, r24	; 0x800081 <__TEXT_REGION_LENGTH__+0x700081>

0000084e <.Loc.5>:
     84e:	88 ea       	ldi	r24, 0xA8	; 168
     850:	91 e6       	ldi	r25, 0x61	; 97
     852:	90 93 89 00 	sts	0x0089, r25	; 0x800089 <__TEXT_REGION_LENGTH__+0x700089>
     856:	80 93 88 00 	sts	0x0088, r24	; 0x800088 <__TEXT_REGION_LENGTH__+0x700088>

0000085a <.Loc.7>:
     85a:	08 95       	ret

0000085c <itermediate_control_init>:
     85c:	0e 94 22 04 	call	0x844	; 0x844 <init_gp_timer>

00000860 <.LVL0>:
     860:	08 95       	ret

00000862 <init>:
     862:	0e 94 e6 01 	call	0x3cc	; 0x3cc <basic_io_init>

00000866 <.LVL1>:
     866:	0e 94 ce 03 	call	0x79c	; 0x79c <ultrasonic_init>

0000086a <.LVL2>:
     86a:	0e 94 36 0f 	call	0x1e6c	; 0x1e6c <display_init>

0000086e <.LVL3>:
     86e:	0e 94 ee 0d 	call	0x1bdc	; 0x1bdc <stepper_init>

00000872 <.LBB4>:
     872:	0e 94 22 04 	call	0x844	; 0x844 <init_gp_timer>

00000876 <.LBE4>:
     876:	0e 94 9b 07 	call	0xf36	; 0xf36 <music_init>

0000087a <.LVL6>:
     87a:	78 94       	sei

0000087c <.Loc.21>:
     87c:	08 95       	ret

0000087e <gp_timer>:
     87e:	28 2f       	mov	r18, r24
     880:	39 2f       	mov	r19, r25

00000882 <.Loc.24>:
     882:	2f 3f       	cpi	r18, 0xFF	; 255
     884:	32 07       	cpc	r19, r18
     886:	c9 f0       	breq	.+50     	; 0x8ba <.L5>

00000888 <.Loc.27>:
     888:	80 91 00 02 	lds	r24, 0x0200	; 0x800200 <count.14>
     88c:	90 91 01 02 	lds	r25, 0x0201	; 0x800201 <count.14+0x1>

00000890 <.Loc.29>:
     890:	8f 3f       	cpi	r24, 0xFF	; 255
     892:	98 07       	cpc	r25, r24
     894:	91 f0       	breq	.+36     	; 0x8ba <.L5>

00000896 <.Loc.30>:
     896:	18 16       	cp	r1, r24
     898:	19 06       	cpc	r1, r25
     89a:	dc f4       	brge	.+54     	; 0x8d2 <.L8>

0000089c <.Loc.32>:
     89c:	b1 9b       	sbis	0x16, 1	; 22
     89e:	25 c0       	rjmp	.+74     	; 0x8ea <.L9>

000008a0 <.Loc.34>:
     8a0:	82 e0       	ldi	r24, 0x02	; 2
     8a2:	86 bb       	out	0x16, r24	; 22

000008a4 <.Loc.36>:
     8a4:	80 91 00 02 	lds	r24, 0x0200	; 0x800200 <count.14>
     8a8:	90 91 01 02 	lds	r25, 0x0201	; 0x800201 <count.14+0x1>
     8ac:	01 97       	sbiw	r24, 0x01	; 1
     8ae:	90 93 01 02 	sts	0x0201, r25	; 0x800201 <count.14+0x1>
     8b2:	80 93 00 02 	sts	0x0200, r24	; 0x800200 <count.14>

000008b6 <.Loc.38>:
     8b6:	80 e0       	ldi	r24, 0x00	; 0
     8b8:	08 95       	ret

000008ba <.L5>:
     8ba:	30 93 01 02 	sts	0x0201, r19	; 0x800201 <count.14+0x1>
     8be:	20 93 00 02 	sts	0x0200, r18	; 0x800200 <count.14>

000008c2 <.Loc.41>:
     8c2:	82 e0       	ldi	r24, 0x02	; 2
     8c4:	86 bb       	out	0x16, r24	; 22

000008c6 <.Loc.43>:
     8c6:	10 92 85 00 	sts	0x0085, r1	; 0x800085 <__TEXT_REGION_LENGTH__+0x700085>
     8ca:	10 92 84 00 	sts	0x0084, r1	; 0x800084 <__TEXT_REGION_LENGTH__+0x700084>

000008ce <.Loc.45>:
     8ce:	80 e0       	ldi	r24, 0x00	; 0
     8d0:	08 95       	ret

000008d2 <.L8>:
     8d2:	89 2b       	or	r24, r25
     8d4:	11 f0       	breq	.+4      	; 0x8da <.L11>

000008d6 <.Loc.48>:
     8d6:	80 e0       	ldi	r24, 0x00	; 0

000008d8 <.Loc.49>:
     8d8:	08 95       	ret

000008da <.L11>:
     8da:	8f ef       	ldi	r24, 0xFF	; 255
     8dc:	9f ef       	ldi	r25, 0xFF	; 255
     8de:	90 93 01 02 	sts	0x0201, r25	; 0x800201 <count.14+0x1>
     8e2:	80 93 00 02 	sts	0x0200, r24	; 0x800200 <count.14>

000008e6 <.Loc.52>:
     8e6:	81 e0       	ldi	r24, 0x01	; 1
     8e8:	08 95       	ret

000008ea <.L9>:
     8ea:	80 e0       	ldi	r24, 0x00	; 0
     8ec:	08 95       	ret

000008ee <wall_detected>:
     8ee:	0f 93       	push	r16
     8f0:	1f 93       	push	r17
     8f2:	cf 93       	push	r28
     8f4:	df 93       	push	r29

000008f6 <.Loc.56>:
     8f6:	0e 94 12 04 	call	0x824	; 0x824 <get_left_distance>

000008fa <.LVL9>:
     8fa:	c8 2f       	mov	r28, r24
     8fc:	d9 2f       	mov	r29, r25

000008fe <.Loc.61>:
     8fe:	0e 94 1a 04 	call	0x834	; 0x834 <get_right_distance>

00000902 <.LVL11>:
     902:	08 2f       	mov	r16, r24
     904:	19 2f       	mov	r17, r25

00000906 <.Loc.63>:
     906:	81 e0       	ldi	r24, 0x01	; 1
     908:	90 e0       	ldi	r25, 0x00	; 0
     90a:	0e 94 3f 04 	call	0x87e	; 0x87e <gp_timer>

0000090e <.LVL13>:
     90e:	88 23       	and	r24, r24
     910:	29 f1       	breq	.+74     	; 0x95c <.L12>

00000912 <.Loc.66>:
     912:	21 97       	sbiw	r28, 0x01	; 1

00000914 <.Loc.68>:
     914:	69 97       	sbiw	r28, 0x19	; 25
     916:	e8 f4       	brcc	.+58     	; 0x952 <.L14>

00000918 <.Loc.69>:
     918:	01 50       	subi	r16, 0x01	; 1
     91a:	11 09       	sbc	r17, r1

0000091c <.Loc.70>:
     91c:	09 31       	cpi	r16, 0x19	; 25
     91e:	11 05       	cpc	r17, r1
     920:	c0 f4       	brcc	.+48     	; 0x952 <.L14>

00000922 <.Loc.71>:
     922:	80 91 97 02 	lds	r24, 0x0297	; 0x800297 <last_detection.13>
     926:	90 91 98 02 	lds	r25, 0x0298	; 0x800298 <last_detection.13+0x1>

0000092a <.Loc.73>:
     92a:	84 30       	cpi	r24, 0x04	; 4
     92c:	91 05       	cpc	r25, r1
     92e:	3c f4       	brge	.+14     	; 0x93e <.L16>

00000930 <.Loc.74>:
     930:	01 96       	adiw	r24, 0x01	; 1
     932:	90 93 98 02 	sts	0x0298, r25	; 0x800298 <last_detection.13+0x1>
     936:	80 93 97 02 	sts	0x0297, r24	; 0x800297 <last_detection.13>

0000093a <.Loc.76>:
     93a:	80 e0       	ldi	r24, 0x00	; 0

0000093c <.Loc.77>:
     93c:	0f c0       	rjmp	.+30     	; 0x95c <.L12>

0000093e <.L16>:
     93e:	10 92 98 02 	sts	0x0298, r1	; 0x800298 <last_detection.13+0x1>
     942:	10 92 97 02 	sts	0x0297, r1	; 0x800297 <last_detection.13>

00000946 <.Loc.80>:
     946:	8f ef       	ldi	r24, 0xFF	; 255
     948:	9f ef       	ldi	r25, 0xFF	; 255
     94a:	0e 94 3f 04 	call	0x87e	; 0x87e <gp_timer>

0000094e <.LVL16>:
     94e:	81 e0       	ldi	r24, 0x01	; 1
     950:	05 c0       	rjmp	.+10     	; 0x95c <.L12>

00000952 <.L14>:
     952:	10 92 98 02 	sts	0x0298, r1	; 0x800298 <last_detection.13+0x1>
     956:	10 92 97 02 	sts	0x0297, r1	; 0x800297 <last_detection.13>

0000095a <.Loc.85>:
     95a:	80 e0       	ldi	r24, 0x00	; 0

0000095c <.L12>:
     95c:	df 91       	pop	r29
     95e:	cf 91       	pop	r28
     960:	1f 91       	pop	r17
     962:	0f 91       	pop	r16
     964:	08 95       	ret

00000966 <check_path_end>:
     966:	81 e0       	ldi	r24, 0x01	; 1
     968:	90 e0       	ldi	r25, 0x00	; 0
     96a:	0e 94 3f 04 	call	0x87e	; 0x87e <gp_timer>

0000096e <.LVL19>:
     96e:	81 11       	cpse	r24, r1
     970:	01 c0       	rjmp	.+2      	; 0x974 <.L21>

00000972 <.L17>:
     972:	08 95       	ret

00000974 <.L21>:
     974:	0e 94 12 04 	call	0x824	; 0x824 <get_left_distance>

00000978 <.LVL20>:
     978:	4a 97       	sbiw	r24, 0x1a	; 26
     97a:	34 f4       	brge	.+12     	; 0x988 <.L22>

0000097c <.L19>:
     97c:	10 92 96 02 	sts	0x0296, r1	; 0x800296 <last_detection.12+0x1>
     980:	10 92 95 02 	sts	0x0295, r1	; 0x800295 <last_detection.12>

00000984 <.Loc.98>:
     984:	80 e0       	ldi	r24, 0x00	; 0
     986:	f5 cf       	rjmp	.-22     	; 0x972 <.L17>

00000988 <.L22>:
     988:	0e 94 1a 04 	call	0x834	; 0x834 <get_right_distance>

0000098c <.LVL21>:
     98c:	4a 97       	sbiw	r24, 0x1a	; 26
     98e:	b4 f3       	brlt	.-20     	; 0x97c <.L19>

00000990 <.Loc.101>:
     990:	80 91 95 02 	lds	r24, 0x0295	; 0x800295 <last_detection.12>
     994:	90 91 96 02 	lds	r25, 0x0296	; 0x800296 <last_detection.12+0x1>

00000998 <.Loc.103>:
     998:	84 30       	cpi	r24, 0x04	; 4
     99a:	91 05       	cpc	r25, r1
     99c:	3c f4       	brge	.+14     	; 0x9ac <.L23>

0000099e <.Loc.104>:
     99e:	01 96       	adiw	r24, 0x01	; 1
     9a0:	90 93 96 02 	sts	0x0296, r25	; 0x800296 <last_detection.12+0x1>
     9a4:	80 93 95 02 	sts	0x0295, r24	; 0x800295 <last_detection.12>

000009a8 <.Loc.106>:
     9a8:	80 e0       	ldi	r24, 0x00	; 0

000009aa <.Loc.107>:
     9aa:	08 95       	ret

000009ac <.L23>:
     9ac:	10 92 96 02 	sts	0x0296, r1	; 0x800296 <last_detection.12+0x1>
     9b0:	10 92 95 02 	sts	0x0295, r1	; 0x800295 <last_detection.12>

000009b4 <.Loc.110>:
     9b4:	8f ef       	ldi	r24, 0xFF	; 255
     9b6:	9f ef       	ldi	r25, 0xFF	; 255
     9b8:	0e 94 3f 04 	call	0x87e	; 0x87e <gp_timer>

000009bc <.LVL22>:
     9bc:	81 e0       	ldi	r24, 0x01	; 1
     9be:	08 95       	ret

000009c0 <donk_detection>:
     9c0:	0f 93       	push	r16
     9c2:	1f 93       	push	r17
     9c4:	cf 93       	push	r28
     9c6:	df 93       	push	r29
     9c8:	c8 2f       	mov	r28, r24
     9ca:	d9 2f       	mov	r29, r25
     9cc:	06 2f       	mov	r16, r22
     9ce:	17 2f       	mov	r17, r23

000009d0 <.Loc.115>:
     9d0:	0e 94 e5 00 	call	0x1ca	; 0x1ca <donk_left>

000009d4 <.LVL24>:
     9d4:	81 11       	cpse	r24, r1
     9d6:	01 c0       	rjmp	.+2      	; 0x9da <.L25>

000009d8 <.Loc.118>:
     9d8:	18 82       	st	Y, r1

000009da <.L25>:
     9da:	0e 94 ed 00 	call	0x1da	; 0x1da <donk_right>

000009de <.LVL25>:
     9de:	81 11       	cpse	r24, r1
     9e0:	02 c0       	rjmp	.+4      	; 0x9e6 <.L26>

000009e2 <.Loc.123>:
     9e2:	f8 01       	movw	r30, r16
     9e4:	10 82       	st	Z, r1

000009e6 <.L26>:
     9e6:	0e 94 e5 00 	call	0x1ca	; 0x1ca <donk_left>

000009ea <.LVL26>:
     9ea:	88 23       	and	r24, r24
     9ec:	19 f0       	breq	.+6      	; 0x9f4 <.L27>

000009ee <.Loc.128>:
     9ee:	88 81       	ld	r24, Y
     9f0:	88 23       	and	r24, r24
     9f2:	51 f0       	breq	.+20     	; 0xa08 <.L28>

000009f4 <.L27>:
     9f4:	0e 94 ed 00 	call	0x1da	; 0x1da <donk_right>

000009f8 <.LVL27>:
     9f8:	88 23       	and	r24, r24
     9fa:	71 f0       	breq	.+28     	; 0xa18 <.L24>

000009fc <.Loc.131>:
     9fc:	f8 01       	movw	r30, r16
     9fe:	80 81       	ld	r24, Z
     a00:	88 23       	and	r24, r24
     a02:	11 f0       	breq	.+4      	; 0xa08 <.L28>

00000a04 <.Loc.132>:
     a04:	80 e0       	ldi	r24, 0x00	; 0
     a06:	08 c0       	rjmp	.+16     	; 0xa18 <.L24>

00000a08 <.L28>:
     a08:	0e 94 e5 00 	call	0x1ca	; 0x1ca <donk_left>

00000a0c <.LVL28>:
     a0c:	88 83       	st	Y, r24

00000a0e <.Loc.136>:
     a0e:	0e 94 ed 00 	call	0x1da	; 0x1da <donk_right>

00000a12 <.LVL29>:
     a12:	f8 01       	movw	r30, r16
     a14:	80 83       	st	Z, r24

00000a16 <.Loc.139>:
     a16:	81 e0       	ldi	r24, 0x01	; 1

00000a18 <.L24>:
     a18:	df 91       	pop	r29
     a1a:	cf 91       	pop	r28
     a1c:	1f 91       	pop	r17
     a1e:	0f 91       	pop	r16
     a20:	08 95       	ret

00000a22 <path_steering>:
     a22:	cf 93       	push	r28
     a24:	df 93       	push	r29

00000a26 <.Loc.143>:
     a26:	0e 94 12 04 	call	0x824	; 0x824 <get_left_distance>

00000a2a <.LVL30>:
     a2a:	c8 2f       	mov	r28, r24
     a2c:	d9 2f       	mov	r29, r25

00000a2e <.Loc.148>:
     a2e:	0e 94 1a 04 	call	0x834	; 0x834 <get_right_distance>

00000a32 <.LVL32>:
     a32:	28 2f       	mov	r18, r24
     a34:	39 2f       	mov	r19, r25

00000a36 <.Loc.150>:
     a36:	cf 30       	cpi	r28, 0x0F	; 15
     a38:	d1 05       	cpc	r29, r1
     a3a:	3c f5       	brge	.+78     	; 0xa8a <.L32>

00000a3c <.Loc.152>:
     a3c:	2f 30       	cpi	r18, 0x0F	; 15
     a3e:	31 05       	cpc	r19, r1
     a40:	cc f4       	brge	.+50     	; 0xa74 <.L33>

00000a42 <.Loc.153>:
     a42:	2c 1b       	sub	r18, r28
     a44:	3d 0b       	sbc	r19, r29

00000a46 <.Loc.155>:
     a46:	30 93 94 02 	sts	0x0294, r19	; 0x800294 <steering_error.11+0x1>
     a4a:	20 93 93 02 	sts	0x0293, r18	; 0x800293 <steering_error.11>

00000a4e <.L34>:
     a4e:	80 91 93 02 	lds	r24, 0x0293	; 0x800293 <steering_error.11>
     a52:	90 91 94 02 	lds	r25, 0x0294	; 0x800294 <steering_error.11+0x1>
     a56:	9c 01       	movw	r18, r24
     a58:	2f 5f       	subi	r18, 0xFF	; 255
     a5a:	3f 4f       	sbci	r19, 0xFF	; 255

00000a5c <.Loc.158>:
     a5c:	23 30       	cpi	r18, 0x03	; 3
     a5e:	31 05       	cpc	r19, r1
     a60:	00 f5       	brcc	.+64     	; 0xaa2 <.L35>

00000a62 <.Loc.159>:
     a62:	60 e0       	ldi	r22, 0x00	; 0
     a64:	70 e0       	ldi	r23, 0x00	; 0
     a66:	8a e0       	ldi	r24, 0x0A	; 10
     a68:	90 e0       	ldi	r25, 0x00	; 0
     a6a:	0e 94 79 0d 	call	0x1af2	; 0x1af2 <stepper_control>

00000a6e <.L31>:
     a6e:	df 91       	pop	r29
     a70:	cf 91       	pop	r28
     a72:	08 95       	ret

00000a74 <.L33>:
     a74:	2a 97       	sbiw	r28, 0x0a	; 10

00000a76 <.Loc.164>:
     a76:	d1 95       	neg	r29
     a78:	c1 95       	neg	r28
     a7a:	d1 09       	sbc	r29, r1

00000a7c <.Loc.165>:
     a7c:	cc 0f       	add	r28, r28
     a7e:	dd 1f       	adc	r29, r29

00000a80 <.Loc.166>:
     a80:	d0 93 94 02 	sts	0x0294, r29	; 0x800294 <steering_error.11+0x1>
     a84:	c0 93 93 02 	sts	0x0293, r28	; 0x800293 <steering_error.11>
     a88:	e2 cf       	rjmp	.-60     	; 0xa4e <.L34>

00000a8a <.L32>:
     a8a:	2f 30       	cpi	r18, 0x0F	; 15
     a8c:	31 05       	cpc	r19, r1
     a8e:	fc f6       	brge	.-66     	; 0xa4e <.L34>

00000a90 <.Loc.169>:
     a90:	2a 50       	subi	r18, 0x0A	; 10
     a92:	31 09       	sbc	r19, r1

00000a94 <.Loc.171>:
     a94:	22 0f       	add	r18, r18
     a96:	33 1f       	adc	r19, r19

00000a98 <.Loc.172>:
     a98:	30 93 94 02 	sts	0x0294, r19	; 0x800294 <steering_error.11+0x1>
     a9c:	20 93 93 02 	sts	0x0293, r18	; 0x800293 <steering_error.11>
     aa0:	d6 cf       	rjmp	.-84     	; 0xa4e <.L34>

00000aa2 <.L35>:
     aa2:	bc 01       	movw	r22, r24
     aa4:	66 0f       	add	r22, r22
     aa6:	77 1f       	adc	r23, r23
     aa8:	66 0f       	add	r22, r22
     aaa:	77 1f       	adc	r23, r23
     aac:	66 0f       	add	r22, r22
     aae:	77 1f       	adc	r23, r23
     ab0:	68 1b       	sub	r22, r24
     ab2:	79 0b       	sbc	r23, r25
     ab4:	8a e0       	ldi	r24, 0x0A	; 10
     ab6:	90 e0       	ldi	r25, 0x00	; 0
     ab8:	0e 94 79 0d 	call	0x1af2	; 0x1af2 <stepper_control>

00000abc <.LVL45>:
     abc:	d8 cf       	rjmp	.-80     	; 0xa6e <.L31>

00000abe <person_steering>:
     abe:	cf 93       	push	r28
     ac0:	df 93       	push	r29
     ac2:	c8 2f       	mov	r28, r24
     ac4:	d9 2f       	mov	r29, r25

00000ac6 <.Loc.177>:
     ac6:	0e 94 12 04 	call	0x824	; 0x824 <get_left_distance>

00000aca <.LVL47>:
     aca:	90 93 92 02 	sts	0x0292, r25	; 0x800292 <left.10+0x1>
     ace:	80 93 91 02 	sts	0x0291, r24	; 0x800291 <left.10>

00000ad2 <.Loc.186>:
     ad2:	0e 94 1a 04 	call	0x834	; 0x834 <get_right_distance>

00000ad6 <.LVL48>:
     ad6:	28 2f       	mov	r18, r24
     ad8:	39 2f       	mov	r19, r25

00000ada <.Loc.188>:
     ada:	30 93 90 02 	sts	0x0290, r19	; 0x800290 <right.9+0x1>
     ade:	20 93 8f 02 	sts	0x028F, r18	; 0x80028f <right.9>

00000ae2 <.Loc.189>:
     ae2:	40 91 91 02 	lds	r20, 0x0291	; 0x800291 <left.10>
     ae6:	50 91 92 02 	lds	r21, 0x0292	; 0x800292 <left.10+0x1>
     aea:	ca 01       	movw	r24, r20
     aec:	82 1b       	sub	r24, r18
     aee:	93 0b       	sbc	r25, r19

00000af0 <.Loc.191>:
     af0:	bc 01       	movw	r22, r24
     af2:	62 5f       	subi	r22, 0xF2	; 242
     af4:	7f 4f       	sbci	r23, 0xFF	; 255

00000af6 <.Loc.193>:
     af6:	6d 31       	cpi	r22, 0x1D	; 29
     af8:	71 05       	cpc	r23, r1
     afa:	08 f4       	brcc	.+2      	; 0xafe <.Loc.194>

00000afc <L0^A>:
     afc:	4e c0       	rjmp	.+156    	; 0xb9a <.L51>

00000afe <.Loc.194>:
     afe:	0f 97       	sbiw	r24, 0x0f	; 15
     b00:	0c f4       	brge	.+2      	; 0xb04 <.Loc.196>

00000b02 <L0^A>:
     b02:	6c c0       	rjmp	.+216    	; 0xbdc <.L41>

00000b04 <.Loc.196>:
     b04:	80 91 8b 02 	lds	r24, 0x028B	; 0x80028b <speed.6>
     b08:	90 91 8c 02 	lds	r25, 0x028C	; 0x80028c <speed.6+0x1>

00000b0c <.Loc.198>:
     b0c:	00 97       	sbiw	r24, 0x00	; 0
     b0e:	09 f0       	breq	.+2      	; 0xb12 <.Loc.199>

00000b10 <L0^A>:
     b10:	60 c0       	rjmp	.+192    	; 0xbd2 <.L42>

00000b12 <.Loc.199>:
     b12:	66 e0       	ldi	r22, 0x06	; 6
     b14:	70 e0       	ldi	r23, 0x00	; 0
     b16:	80 e0       	ldi	r24, 0x00	; 0
     b18:	90 e0       	ldi	r25, 0x00	; 0
     b1a:	0e 94 79 0d 	call	0x1af2	; 0x1af2 <stepper_control>

00000b1e <.L43>:
     b1e:	80 91 8f 02 	lds	r24, 0x028F	; 0x80028f <right.9>
     b22:	90 91 90 02 	lds	r25, 0x0290	; 0x800290 <right.9+0x1>
     b26:	90 93 8e 02 	sts	0x028E, r25	; 0x80028e <distance.7+0x1>
     b2a:	80 93 8d 02 	sts	0x028D, r24	; 0x80028d <distance.7>

00000b2e <.Loc.202>:
     b2e:	0e 94 0e 10 	call	0x201c	; 0x201c <display_rght>

00000b32 <.L40>:
     b32:	80 91 8d 02 	lds	r24, 0x028D	; 0x80028d <distance.7>
     b36:	90 91 8e 02 	lds	r25, 0x028E	; 0x80028e <distance.7+0x1>
     b3a:	8c 1b       	sub	r24, r28
     b3c:	9d 0b       	sbc	r25, r29
     b3e:	85 36       	cpi	r24, 0x65	; 101
     b40:	91 05       	cpc	r25, r1
     b42:	14 f0       	brlt	.+4      	; 0xb48 <.L46>
     b44:	84 e6       	ldi	r24, 0x64	; 100
     b46:	90 e0       	ldi	r25, 0x00	; 0

00000b48 <.L46>:
     b48:	99 23       	and	r25, r25
     b4a:	0c f4       	brge	.+2      	; 0xb4e <.L47>

00000b4c <L0^A>:
     b4c:	63 c0       	rjmp	.+198    	; 0xc14 <.L52>

00000b4e <.L47>:
     b4e:	90 93 8c 02 	sts	0x028C, r25	; 0x80028c <speed.6+0x1>
     b52:	80 93 8b 02 	sts	0x028B, r24	; 0x80028b <speed.6>

00000b56 <.Loc.206>:
     b56:	81 e0       	ldi	r24, 0x01	; 1
     b58:	90 e0       	ldi	r25, 0x00	; 0
     b5a:	0e 94 3f 04 	call	0x87e	; 0x87e <gp_timer>

00000b5e <.LVL51>:
     b5e:	88 23       	and	r24, r24
     b60:	09 f4       	brne	.+2      	; 0xb64 <.Loc.209>

00000b62 <L0^A>:
     b62:	66 c0       	rjmp	.+204    	; 0xc30 <.L37>

00000b64 <.Loc.209>:
     b64:	e2 96       	adiw	r28, 0x32	; 50

00000b66 <.Loc.211>:
     b66:	80 91 91 02 	lds	r24, 0x0291	; 0x800291 <left.10>
     b6a:	90 91 92 02 	lds	r25, 0x0292	; 0x800292 <left.10+0x1>
     b6e:	c8 17       	cp	r28, r24
     b70:	d9 07       	cpc	r29, r25
     b72:	0c f0       	brlt	.+2      	; 0xb76 <.Loc.212>

00000b74 <L0^A>:
     b74:	5a c0       	rjmp	.+180    	; 0xc2a <.L49>

00000b76 <.Loc.212>:
     b76:	80 91 8f 02 	lds	r24, 0x028F	; 0x80028f <right.9>
     b7a:	90 91 90 02 	lds	r25, 0x0290	; 0x800290 <right.9+0x1>
     b7e:	c8 17       	cp	r28, r24
     b80:	d9 07       	cpc	r29, r25
     b82:	0c f0       	brlt	.+2      	; 0xb86 <.Loc.213>

00000b84 <L0^A>:
     b84:	52 c0       	rjmp	.+164    	; 0xc2a <.L49>

00000b86 <.Loc.213>:
     b86:	80 91 8a 02 	lds	r24, 0x028A	; 0x80028a <previous_limit_reached.5>

00000b8a <.Loc.215>:
     b8a:	82 30       	cpi	r24, 0x02	; 2
     b8c:	0c f0       	brlt	.+2      	; 0xb90 <.Loc.216>

00000b8e <L0^A>:
     b8e:	45 c0       	rjmp	.+138    	; 0xc1a <.L53>

00000b90 <.Loc.216>:
     b90:	8f 5f       	subi	r24, 0xFF	; 255
     b92:	80 93 8a 02 	sts	0x028A, r24	; 0x80028a <previous_limit_reached.5>

00000b96 <.Loc.218>:
     b96:	80 e0       	ldi	r24, 0x00	; 0

00000b98 <.Loc.219>:
     b98:	4b c0       	rjmp	.+150    	; 0xc30 <.L37>

00000b9a <.L51>:
     b9a:	24 0f       	add	r18, r20
     b9c:	35 1f       	adc	r19, r21

00000b9e <.Loc.222>:
     b9e:	33 23       	and	r19, r19
     ba0:	ac f0       	brlt	.+42     	; 0xbcc <.L54>

00000ba2 <.L39>:
     ba2:	35 95       	asr	r19
     ba4:	27 95       	ror	r18

00000ba6 <.Loc.223>:
     ba6:	30 93 8e 02 	sts	0x028E, r19	; 0x80028e <distance.7+0x1>
     baa:	20 93 8d 02 	sts	0x028D, r18	; 0x80028d <distance.7>

00000bae <.Loc.224>:
     bae:	60 e0       	ldi	r22, 0x00	; 0
     bb0:	70 e0       	ldi	r23, 0x00	; 0
     bb2:	80 91 8b 02 	lds	r24, 0x028B	; 0x80028b <speed.6>
     bb6:	90 91 8c 02 	lds	r25, 0x028C	; 0x80028c <speed.6+0x1>
     bba:	0e 94 79 0d 	call	0x1af2	; 0x1af2 <stepper_control>

00000bbe <.LVL52>:
     bbe:	80 91 8d 02 	lds	r24, 0x028D	; 0x80028d <distance.7>
     bc2:	90 91 8e 02 	lds	r25, 0x028E	; 0x80028e <distance.7+0x1>
     bc6:	0e 94 87 0e 	call	0x1d0e	; 0x1d0e <display_number>

00000bca <.LVL53>:
     bca:	b3 cf       	rjmp	.-154    	; 0xb32 <.L40>

00000bcc <.L54>:
     bcc:	2f 5f       	subi	r18, 0xFF	; 255
     bce:	3f 4f       	sbci	r19, 0xFF	; 255
     bd0:	e8 cf       	rjmp	.-48     	; 0xba2 <.L39>

00000bd2 <.L42>:
     bd2:	6c e3       	ldi	r22, 0x3C	; 60
     bd4:	70 e0       	ldi	r23, 0x00	; 0
     bd6:	0e 94 79 0d 	call	0x1af2	; 0x1af2 <stepper_control>

00000bda <.LVL54>:
     bda:	a1 cf       	rjmp	.-190    	; 0xb1e <.L43>

00000bdc <.L41>:
     bdc:	80 91 8b 02 	lds	r24, 0x028B	; 0x80028b <speed.6>
     be0:	90 91 8c 02 	lds	r25, 0x028C	; 0x80028c <speed.6+0x1>

00000be4 <.Loc.230>:
     be4:	00 97       	sbiw	r24, 0x00	; 0
     be6:	89 f4       	brne	.+34     	; 0xc0a <.L44>

00000be8 <.Loc.231>:
     be8:	6a ef       	ldi	r22, 0xFA	; 250
     bea:	7f ef       	ldi	r23, 0xFF	; 255
     bec:	80 e0       	ldi	r24, 0x00	; 0
     bee:	90 e0       	ldi	r25, 0x00	; 0
     bf0:	0e 94 79 0d 	call	0x1af2	; 0x1af2 <stepper_control>

00000bf4 <.L45>:
     bf4:	80 91 91 02 	lds	r24, 0x0291	; 0x800291 <left.10>
     bf8:	90 91 92 02 	lds	r25, 0x0292	; 0x800292 <left.10+0x1>
     bfc:	90 93 8e 02 	sts	0x028E, r25	; 0x80028e <distance.7+0x1>
     c00:	80 93 8d 02 	sts	0x028D, r24	; 0x80028d <distance.7>

00000c04 <.Loc.234>:
     c04:	0e 94 f9 0f 	call	0x1ff2	; 0x1ff2 <display_left>

00000c08 <.LVL56>:
     c08:	94 cf       	rjmp	.-216    	; 0xb32 <.L40>

00000c0a <.L44>:
     c0a:	64 ec       	ldi	r22, 0xC4	; 196
     c0c:	7f ef       	ldi	r23, 0xFF	; 255
     c0e:	0e 94 79 0d 	call	0x1af2	; 0x1af2 <stepper_control>

00000c12 <.LVL57>:
     c12:	f0 cf       	rjmp	.-32     	; 0xbf4 <.L45>

00000c14 <.L52>:
     c14:	80 e0       	ldi	r24, 0x00	; 0
     c16:	90 e0       	ldi	r25, 0x00	; 0
     c18:	9a cf       	rjmp	.-204    	; 0xb4e <.L47>

00000c1a <.L53>:
     c1a:	10 92 8a 02 	sts	0x028A, r1	; 0x80028a <previous_limit_reached.5>

00000c1e <.Loc.239>:
     c1e:	8f ef       	ldi	r24, 0xFF	; 255
     c20:	9f ef       	ldi	r25, 0xFF	; 255
     c22:	0e 94 3f 04 	call	0x87e	; 0x87e <gp_timer>

00000c26 <.LVL58>:
     c26:	81 e0       	ldi	r24, 0x01	; 1
     c28:	03 c0       	rjmp	.+6      	; 0xc30 <.L37>

00000c2a <.L49>:
     c2a:	10 92 8a 02 	sts	0x028A, r1	; 0x80028a <previous_limit_reached.5>

00000c2e <.Loc.244>:
     c2e:	80 e0       	ldi	r24, 0x00	; 0

00000c30 <.L37>:
     c30:	df 91       	pop	r29
     c32:	cf 91       	pop	r28
     c34:	08 95       	ret

00000c36 <set_first_turn>:
     c36:	cf 93       	push	r28
     c38:	df 93       	push	r29
     c3a:	c8 2f       	mov	r28, r24
     c3c:	d9 2f       	mov	r29, r25

00000c3e <.Loc.248>:
     c3e:	0e 94 0c 01 	call	0x218	; 0x218 <plus_pressed_once>

00000c42 <.LVL60>:
     c42:	88 23       	and	r24, r24
     c44:	51 f0       	breq	.+20     	; 0xc5a <.L59>

00000c46 <.L56>:
     c46:	88 81       	ld	r24, Y
     c48:	8f 5f       	subi	r24, 0xFF	; 255
     c4a:	88 83       	st	Y, r24

00000c4c <.L57>:
     c4c:	88 81       	ld	r24, Y
     c4e:	82 30       	cpi	r24, 0x02	; 2
     c50:	0c f0       	brlt	.+2      	; 0xc54 <.L55>

00000c52 <.Loc.255>:
     c52:	18 82       	st	Y, r1

00000c54 <.L55>:
     c54:	df 91       	pop	r29
     c56:	cf 91       	pop	r28
     c58:	08 95       	ret

00000c5a <.L59>:
     c5a:	0e 94 36 01 	call	0x26c	; 0x26c <minus_pressed_once>

00000c5e <.LVL61>:
     c5e:	88 23       	and	r24, r24
     c60:	a9 f3       	breq	.-22     	; 0xc4c <.L57>
     c62:	f1 cf       	rjmp	.-30     	; 0xc46 <.L56>

00000c64 <set_package_count>:
     c64:	cf 93       	push	r28
     c66:	df 93       	push	r29
     c68:	c8 2f       	mov	r28, r24
     c6a:	d9 2f       	mov	r29, r25

00000c6c <.Loc.262>:
     c6c:	0e 94 0c 01 	call	0x218	; 0x218 <plus_pressed_once>

00000c70 <.LVL63>:
     c70:	88 23       	and	r24, r24
     c72:	41 f0       	breq	.+16     	; 0xc84 <.L61>

00000c74 <.Loc.265>:
     c74:	88 81       	ld	r24, Y
     c76:	99 81       	ldd	r25, Y+1	; 0x01

00000c78 <.Loc.266>:
     c78:	83 36       	cpi	r24, 0x63	; 99
     c7a:	91 05       	cpc	r25, r1
     c7c:	1c f4       	brge	.+6      	; 0xc84 <.L61>

00000c7e <.Loc.267>:
     c7e:	01 96       	adiw	r24, 0x01	; 1
     c80:	99 83       	std	Y+1, r25	; 0x01
     c82:	88 83       	st	Y, r24

00000c84 <.L61>:
     c84:	0e 94 36 01 	call	0x26c	; 0x26c <minus_pressed_once>

00000c88 <.LVL64>:
     c88:	88 23       	and	r24, r24
     c8a:	41 f0       	breq	.+16     	; 0xc9c <.L60>

00000c8c <.Loc.272>:
     c8c:	88 81       	ld	r24, Y
     c8e:	99 81       	ldd	r25, Y+1	; 0x01

00000c90 <.Loc.273>:
     c90:	82 30       	cpi	r24, 0x02	; 2
     c92:	91 05       	cpc	r25, r1
     c94:	1c f0       	brlt	.+6      	; 0xc9c <.L60>

00000c96 <.Loc.274>:
     c96:	01 97       	sbiw	r24, 0x01	; 1
     c98:	99 83       	std	Y+1, r25	; 0x01
     c9a:	88 83       	st	Y, r24

00000c9c <.L60>:
     c9c:	df 91       	pop	r29
     c9e:	cf 91       	pop	r28
     ca0:	08 95       	ret

00000ca2 <set_follow_distance>:
     ca2:	cf 93       	push	r28
     ca4:	df 93       	push	r29
     ca6:	c8 2f       	mov	r28, r24
     ca8:	d9 2f       	mov	r29, r25

00000caa <.Loc.279>:
     caa:	0e 94 0c 01 	call	0x218	; 0x218 <plus_pressed_once>

00000cae <.LVL66>:
     cae:	88 23       	and	r24, r24
     cb0:	41 f0       	breq	.+16     	; 0xcc2 <.L64>

00000cb2 <.Loc.282>:
     cb2:	88 81       	ld	r24, Y
     cb4:	99 81       	ldd	r25, Y+1	; 0x01

00000cb6 <.Loc.283>:
     cb6:	84 36       	cpi	r24, 0x64	; 100
     cb8:	91 05       	cpc	r25, r1
     cba:	1c f4       	brge	.+6      	; 0xcc2 <.L64>

00000cbc <.Loc.284>:
     cbc:	0a 96       	adiw	r24, 0x0a	; 10
     cbe:	99 83       	std	Y+1, r25	; 0x01
     cc0:	88 83       	st	Y, r24

00000cc2 <.L64>:
     cc2:	0e 94 36 01 	call	0x26c	; 0x26c <minus_pressed_once>

00000cc6 <.LVL67>:
     cc6:	88 23       	and	r24, r24
     cc8:	41 f0       	breq	.+16     	; 0xcda <.L63>

00000cca <.Loc.289>:
     cca:	88 81       	ld	r24, Y
     ccc:	99 81       	ldd	r25, Y+1	; 0x01

00000cce <.Loc.290>:
     cce:	8b 30       	cpi	r24, 0x0B	; 11
     cd0:	91 05       	cpc	r25, r1
     cd2:	1c f0       	brlt	.+6      	; 0xcda <.L63>

00000cd4 <.Loc.291>:
     cd4:	0a 97       	sbiw	r24, 0x0a	; 10
     cd6:	99 83       	std	Y+1, r25	; 0x01
     cd8:	88 83       	st	Y, r24

00000cda <.L63>:
     cda:	df 91       	pop	r29
     cdc:	cf 91       	pop	r28
     cde:	08 95       	ret

00000ce0 <person_detected>:
     ce0:	0f 93       	push	r16
     ce2:	1f 93       	push	r17
     ce4:	cf 93       	push	r28
     ce6:	df 93       	push	r29
     ce8:	c8 2f       	mov	r28, r24
     cea:	d9 2f       	mov	r29, r25

00000cec <.Loc.296>:
     cec:	0e 94 12 04 	call	0x824	; 0x824 <get_left_distance>

00000cf0 <.LVL69>:
     cf0:	90 93 89 02 	sts	0x0289, r25	; 0x800289 <left.4+0x1>
     cf4:	80 93 88 02 	sts	0x0288, r24	; 0x800288 <left.4>

00000cf8 <.Loc.302>:
     cf8:	0e 94 1a 04 	call	0x834	; 0x834 <get_right_distance>

00000cfc <.LVL70>:
     cfc:	08 2f       	mov	r16, r24
     cfe:	19 2f       	mov	r17, r25

00000d00 <.Loc.304>:
     d00:	10 93 87 02 	sts	0x0287, r17	; 0x800287 <right.3+0x1>
     d04:	00 93 86 02 	sts	0x0286, r16	; 0x800286 <right.3>

00000d08 <.Loc.305>:
     d08:	81 e0       	ldi	r24, 0x01	; 1
     d0a:	90 e0       	ldi	r25, 0x00	; 0
     d0c:	0e 94 3f 04 	call	0x87e	; 0x87e <gp_timer>

00000d10 <.LVL71>:
     d10:	88 23       	and	r24, r24
     d12:	41 f1       	breq	.+80     	; 0xd64 <.L66>

00000d14 <.Loc.308>:
     d14:	6d 96       	adiw	r28, 0x1d	; 29

00000d16 <.Loc.310>:
     d16:	80 91 88 02 	lds	r24, 0x0288	; 0x800288 <left.4>
     d1a:	90 91 89 02 	lds	r25, 0x0289	; 0x800289 <left.4+0x1>
     d1e:	c8 17       	cp	r28, r24
     d20:	d9 07       	cpc	r29, r25
     d22:	dc f0       	brlt	.+54     	; 0xd5a <.L68>

00000d24 <.Loc.311>:
     d24:	c0 17       	cp	r28, r16
     d26:	d1 07       	cpc	r29, r17
     d28:	c4 f0       	brlt	.+48     	; 0xd5a <.L68>

00000d2a <.Loc.312>:
     d2a:	80 91 84 02 	lds	r24, 0x0284	; 0x800284 <last_detection.2>
     d2e:	90 91 85 02 	lds	r25, 0x0285	; 0x800285 <last_detection.2+0x1>

00000d32 <.Loc.314>:
     d32:	82 30       	cpi	r24, 0x02	; 2
     d34:	91 05       	cpc	r25, r1
     d36:	3c f4       	brge	.+14     	; 0xd46 <.L70>

00000d38 <.Loc.315>:
     d38:	01 96       	adiw	r24, 0x01	; 1
     d3a:	90 93 85 02 	sts	0x0285, r25	; 0x800285 <last_detection.2+0x1>
     d3e:	80 93 84 02 	sts	0x0284, r24	; 0x800284 <last_detection.2>

00000d42 <.Loc.317>:
     d42:	80 e0       	ldi	r24, 0x00	; 0

00000d44 <.Loc.318>:
     d44:	0f c0       	rjmp	.+30     	; 0xd64 <.L66>

00000d46 <.L70>:
     d46:	10 92 85 02 	sts	0x0285, r1	; 0x800285 <last_detection.2+0x1>
     d4a:	10 92 84 02 	sts	0x0284, r1	; 0x800284 <last_detection.2>

00000d4e <.Loc.321>:
     d4e:	8f ef       	ldi	r24, 0xFF	; 255
     d50:	9f ef       	ldi	r25, 0xFF	; 255
     d52:	0e 94 3f 04 	call	0x87e	; 0x87e <gp_timer>

00000d56 <.LVL72>:
     d56:	81 e0       	ldi	r24, 0x01	; 1
     d58:	05 c0       	rjmp	.+10     	; 0xd64 <.L66>

00000d5a <.L68>:
     d5a:	10 92 85 02 	sts	0x0285, r1	; 0x800285 <last_detection.2+0x1>
     d5e:	10 92 84 02 	sts	0x0284, r1	; 0x800284 <last_detection.2>

00000d62 <.Loc.326>:
     d62:	80 e0       	ldi	r24, 0x00	; 0

00000d64 <.L66>:
     d64:	df 91       	pop	r29
     d66:	cf 91       	pop	r28
     d68:	1f 91       	pop	r17
     d6a:	0f 91       	pop	r16
     d6c:	08 95       	ret

00000d6e <step_count_end>:
     d6e:	80 91 a3 02 	lds	r24, 0x02A3	; 0x8002a3 <step_count_left>
     d72:	90 91 a4 02 	lds	r25, 0x02A4	; 0x8002a4 <step_count_left+0x1>

00000d76 <.Loc.331>:
     d76:	01 96       	adiw	r24, 0x01	; 1
     d78:	11 f0       	breq	.+4      	; 0xd7e <.L75>

00000d7a <.Loc.332>:
     d7a:	80 e0       	ldi	r24, 0x00	; 0

00000d7c <.L71>:
     d7c:	08 95       	ret

00000d7e <.L75>:
     d7e:	20 91 a1 02 	lds	r18, 0x02A1	; 0x8002a1 <step_count_right>
     d82:	30 91 a2 02 	lds	r19, 0x02A2	; 0x8002a2 <step_count_right+0x1>

00000d86 <.Loc.335>:
     d86:	81 e0       	ldi	r24, 0x01	; 1
     d88:	2f 3f       	cpi	r18, 0xFF	; 255
     d8a:	3f 4f       	sbci	r19, 0xFF	; 255
     d8c:	b9 f3       	breq	.-18     	; 0xd7c <.L71>
     d8e:	80 e0       	ldi	r24, 0x00	; 0
     d90:	08 95       	ret

00000d92 <sensor_turn>:
     d92:	cf 93       	push	r28
     d94:	df 93       	push	r29
     d96:	00 d0       	rcall	.+0      	; 0xd98 <L0^A>

00000d98 <L0^A>:
     d98:	0f 92       	push	r0
     d9a:	cd b7       	in	r28, 0x3d	; 61
     d9c:	de b7       	in	r29, 0x3e	; 62

00000d9e <.Loc.338>:
     d9e:	88 23       	and	r24, r24
     da0:	09 f4       	brne	.+2      	; 0xda4 <.Loc.342>

00000da2 <L0^A>:
     da2:	4a c0       	rjmp	.+148    	; 0xe38 <.L77>

00000da4 <.Loc.342>:
     da4:	0e 94 1a 04 	call	0x834	; 0x834 <get_right_distance>

00000da8 <.LVL74>:
     da8:	28 2f       	mov	r18, r24
     daa:	39 2f       	mov	r19, r25

00000dac <.Loc.345>:
     dac:	2b 3b       	cpi	r18, 0xBB	; 187
     dae:	8f ef       	ldi	r24, 0xFF	; 255
     db0:	38 07       	cpc	r19, r24
     db2:	94 f0       	brlt	.+36     	; 0xdd8 <.L81>

00000db4 <.Loc.347>:
     db4:	2e 35       	cpi	r18, 0x5E	; 94
     db6:	31 05       	cpc	r19, r1
     db8:	d4 f5       	brge	.+116    	; 0xe2e <.L82>

00000dba <.Loc.348>:
     dba:	2c 50       	subi	r18, 0x0C	; 12
     dbc:	31 09       	sbc	r19, r1

00000dbe <.Loc.349>:
     dbe:	c9 01       	movw	r24, r18
     dc0:	33 0f       	add	r19, r19
     dc2:	aa 0b       	sbc	r26, r26
     dc4:	bb 0b       	sbc	r27, r27
     dc6:	89 83       	std	Y+1, r24	; 0x01
     dc8:	9a 83       	std	Y+2, r25	; 0x02
     dca:	ab 83       	std	Y+3, r26	; 0x03
     dcc:	bc 83       	std	Y+4, r27	; 0x04
     dce:	bc 01       	movw	r22, r24
     dd0:	cd 01       	movw	r24, r26
     dd2:	0e 94 37 11 	call	0x226e	; 0x226e <__floatsisf>

00000dd6 <.LVL75>:
     dd6:	04 c0       	rjmp	.+8      	; 0xde0 <.L78>

00000dd8 <.L81>:
     dd8:	60 e0       	ldi	r22, 0x00	; 0
     dda:	70 e0       	ldi	r23, 0x00	; 0
     ddc:	82 ea       	ldi	r24, 0xA2	; 162
     dde:	92 ec       	ldi	r25, 0xC2	; 194

00000de0 <.L78>:
     de0:	2a e9       	ldi	r18, 0x9A	; 154
     de2:	39 e9       	ldi	r19, 0x99	; 153
     de4:	49 e9       	ldi	r20, 0x99	; 153
     de6:	5f e3       	ldi	r21, 0x3F	; 63
     de8:	69 83       	std	Y+1, r22	; 0x01
     dea:	7a 83       	std	Y+2, r23	; 0x02
     dec:	8b 83       	std	Y+3, r24	; 0x03
     dee:	9c 83       	std	Y+4, r25	; 0x04
     df0:	69 81       	ldd	r22, Y+1	; 0x01
     df2:	7a 81       	ldd	r23, Y+2	; 0x02
     df4:	8b 81       	ldd	r24, Y+3	; 0x03
     df6:	9c 81       	ldd	r25, Y+4	; 0x04
     df8:	0e 94 9b 11 	call	0x2336	; 0x2336 <__mulsf3>

00000dfc <.LVL76>:
     dfc:	69 83       	std	Y+1, r22	; 0x01
     dfe:	7a 83       	std	Y+2, r23	; 0x02
     e00:	8b 83       	std	Y+3, r24	; 0x03
     e02:	9c 83       	std	Y+4, r25	; 0x04
     e04:	69 81       	ldd	r22, Y+1	; 0x01
     e06:	7a 81       	ldd	r23, Y+2	; 0x02
     e08:	8b 81       	ldd	r24, Y+3	; 0x03
     e0a:	9c 81       	ldd	r25, Y+4	; 0x04
     e0c:	0e 94 ff 10 	call	0x21fe	; 0x21fe <__fixsfsi>

00000e10 <.L79>:
     e10:	70 93 83 02 	sts	0x0283, r23	; 0x800283 <turn_ratio.0+0x1>
     e14:	60 93 82 02 	sts	0x0282, r22	; 0x800282 <turn_ratio.0>

00000e18 <.Loc.354>:
     e18:	88 e0       	ldi	r24, 0x08	; 8
     e1a:	90 e0       	ldi	r25, 0x00	; 0
     e1c:	0e 94 79 0d 	call	0x1af2	; 0x1af2 <stepper_control>

00000e20 <.LVL78>:
     e20:	0f 90       	pop	r0
     e22:	0f 90       	pop	r0
     e24:	0f 90       	pop	r0
     e26:	0f 90       	pop	r0
     e28:	df 91       	pop	r29
     e2a:	cf 91       	pop	r28
     e2c:	08 95       	ret

00000e2e <.L82>:
     e2e:	60 e0       	ldi	r22, 0x00	; 0
     e30:	70 e0       	ldi	r23, 0x00	; 0
     e32:	82 ea       	ldi	r24, 0xA2	; 162
     e34:	92 e4       	ldi	r25, 0x42	; 66
     e36:	d4 cf       	rjmp	.-88     	; 0xde0 <.L78>

00000e38 <.L77>:
     e38:	0e 94 12 04 	call	0x824	; 0x824 <get_left_distance>

00000e3c <.LVL80>:
     e3c:	28 2f       	mov	r18, r24
     e3e:	39 2f       	mov	r19, r25

00000e40 <.Loc.360>:
     e40:	2b 3b       	cpi	r18, 0xBB	; 187
     e42:	9f ef       	ldi	r25, 0xFF	; 255
     e44:	39 07       	cpc	r19, r25
     e46:	94 f0       	brlt	.+36     	; 0xe6c <.L83>

00000e48 <.Loc.362>:
     e48:	2e 35       	cpi	r18, 0x5E	; 94
     e4a:	31 05       	cpc	r19, r1
     e4c:	64 f5       	brge	.+88     	; 0xea6 <.L84>

00000e4e <.Loc.363>:
     e4e:	2c 50       	subi	r18, 0x0C	; 12
     e50:	31 09       	sbc	r19, r1

00000e52 <.Loc.364>:
     e52:	c9 01       	movw	r24, r18
     e54:	33 0f       	add	r19, r19
     e56:	aa 0b       	sbc	r26, r26
     e58:	bb 0b       	sbc	r27, r27
     e5a:	89 83       	std	Y+1, r24	; 0x01
     e5c:	9a 83       	std	Y+2, r25	; 0x02
     e5e:	ab 83       	std	Y+3, r26	; 0x03
     e60:	bc 83       	std	Y+4, r27	; 0x04
     e62:	bc 01       	movw	r22, r24
     e64:	cd 01       	movw	r24, r26
     e66:	0e 94 37 11 	call	0x226e	; 0x226e <__floatsisf>

00000e6a <.LVL81>:
     e6a:	04 c0       	rjmp	.+8      	; 0xe74 <.L80>

00000e6c <.L83>:
     e6c:	60 e0       	ldi	r22, 0x00	; 0
     e6e:	70 e0       	ldi	r23, 0x00	; 0
     e70:	82 ea       	ldi	r24, 0xA2	; 162
     e72:	92 ec       	ldi	r25, 0xC2	; 194

00000e74 <.L80>:
     e74:	2a e9       	ldi	r18, 0x9A	; 154
     e76:	39 e9       	ldi	r19, 0x99	; 153
     e78:	49 e9       	ldi	r20, 0x99	; 153
     e7a:	5f eb       	ldi	r21, 0xBF	; 191
     e7c:	69 83       	std	Y+1, r22	; 0x01
     e7e:	7a 83       	std	Y+2, r23	; 0x02
     e80:	8b 83       	std	Y+3, r24	; 0x03
     e82:	9c 83       	std	Y+4, r25	; 0x04
     e84:	69 81       	ldd	r22, Y+1	; 0x01
     e86:	7a 81       	ldd	r23, Y+2	; 0x02
     e88:	8b 81       	ldd	r24, Y+3	; 0x03
     e8a:	9c 81       	ldd	r25, Y+4	; 0x04
     e8c:	0e 94 9b 11 	call	0x2336	; 0x2336 <__mulsf3>

00000e90 <.LVL82>:
     e90:	69 83       	std	Y+1, r22	; 0x01
     e92:	7a 83       	std	Y+2, r23	; 0x02
     e94:	8b 83       	std	Y+3, r24	; 0x03
     e96:	9c 83       	std	Y+4, r25	; 0x04
     e98:	69 81       	ldd	r22, Y+1	; 0x01
     e9a:	7a 81       	ldd	r23, Y+2	; 0x02
     e9c:	8b 81       	ldd	r24, Y+3	; 0x03
     e9e:	9c 81       	ldd	r25, Y+4	; 0x04
     ea0:	0e 94 ff 10 	call	0x21fe	; 0x21fe <__fixsfsi>

00000ea4 <.LVL83>:
     ea4:	b5 cf       	rjmp	.-150    	; 0xe10 <.L79>

00000ea6 <.L84>:
     ea6:	60 e0       	ldi	r22, 0x00	; 0
     ea8:	70 e0       	ldi	r23, 0x00	; 0
     eaa:	82 ea       	ldi	r24, 0xA2	; 162
     eac:	92 e4       	ldi	r25, 0x42	; 66
     eae:	e2 cf       	rjmp	.-60     	; 0xe74 <.L80>

00000eb0 <start_button_init>:


//OPERATOR (MASTER)
void start_button_init(void){
    // Set PD1 startbutton
    DDRD &= ~((1 << PD1));
     eb0:	51 98       	cbi	0x0a, 1	; 10

00000eb2 <.Loc.3>:

    // Optional: Enable pull-up resistors startbutton
    PORTD |= (1 << PD1);
     eb2:	59 9a       	sbi	0x0b, 1	; 11

00000eb4 <.Loc.5>:
}
     eb4:	08 95       	ret

00000eb6 <starting_button>:
//starting button
uint8_t starting_button() {
    return (PIND & (1 << PD1)) ? 1 : 0;
     eb6:	89 b1       	in	r24, 0x09	; 9

00000eb8 <.Loc.9>:
}
     eb8:	86 95       	lsr	r24
     eba:	81 70       	andi	r24, 0x01	; 1
     ebc:	08 95       	ret

00000ebe <main>:


int main(void)
{
     ebe:	00 d0       	rcall	.+0      	; 0xec0 <L0^A>

00000ec0 <L0^A>:
     ec0:	00 d0       	rcall	.+0      	; 0xec2 <L0^A>

00000ec2 <L0^A>:
     ec2:	00 d0       	rcall	.+0      	; 0xec4 <L0^A>

00000ec4 <L0^A>:
     ec4:	0f 92       	push	r0
     ec6:	cd b7       	in	r28, 0x3d	; 61
     ec8:	de b7       	in	r29, 0x3e	; 62

00000eca <.Loc.11>:
    int change_demo_package=    4;
    int package_detected_donk=  0;

    /// --- Init --- ///
    // Deze twee moet je in de main (of op de plek waar je de functie roept als dat niet in main is)
    spi_device rfid_left = {&PORTB, PB0, &DDRB};
     eca:	85 e0       	ldi	r24, 0x05	; 5
     ecc:	e6 e0       	ldi	r30, 0x06	; 6
     ece:	f2 e0       	ldi	r31, 0x02	; 2
     ed0:	de 01       	movw	r26, r28
     ed2:	11 96       	adiw	r26, 0x01	; 1

00000ed4 <.L^B1>:
     ed4:	01 90       	ld	r0, Z+
     ed6:	0d 92       	st	X+, r0
     ed8:	8a 95       	dec	r24
     eda:	e1 f7       	brne	.-8      	; 0xed4 <.L^B1>

00000edc <.Loc.19>:
    spi_device rfid_right = {&PORTL, PL0, &DDRL};
     edc:	85 e0       	ldi	r24, 0x05	; 5
     ede:	eb e0       	ldi	r30, 0x0B	; 11
     ee0:	f2 e0       	ldi	r31, 0x02	; 2
     ee2:	de 01       	movw	r26, r28
     ee4:	16 96       	adiw	r26, 0x06	; 6

00000ee6 <.L^B2>:
     ee6:	01 90       	ld	r0, Z+
     ee8:	0d 92       	st	X+, r0
     eea:	8a 95       	dec	r24
     eec:	e1 f7       	brne	.-8      	; 0xee6 <.L^B2>

00000eee <.Loc.21>:
    init();
     eee:	0e 94 31 04 	call	0x862	; 0x862 <init>

00000ef2 <.LVL1>:
    rfid_init(rfid_left);
     ef2:	49 81       	ldd	r20, Y+1	; 0x01
     ef4:	5a 81       	ldd	r21, Y+2	; 0x02
     ef6:	6b 81       	ldd	r22, Y+3	; 0x03
     ef8:	7c 81       	ldd	r23, Y+4	; 0x04
     efa:	8d 81       	ldd	r24, Y+5	; 0x05
     efc:	0e 94 1d 0a 	call	0x143a	; 0x143a <rfid_init>

00000f00 <.LVL2>:
    rfid_init(rfid_right);
     f00:	4e 81       	ldd	r20, Y+6	; 0x06
     f02:	5f 81       	ldd	r21, Y+7	; 0x07
     f04:	68 85       	ldd	r22, Y+8	; 0x08
     f06:	79 85       	ldd	r23, Y+9	; 0x09
     f08:	8a 85       	ldd	r24, Y+10	; 0x0a
     f0a:	0e 94 1d 0a 	call	0x143a	; 0x143a <rfid_init>

00000f0e <.LVL3>:
            if(USART1_receiveByte()==0x01){
                display_turn();
                task_manager(turn_right, standard_speed, standard_acceleration);
            }
        default:
            if(starting_button()){
     f0e:	0e 94 5b 07 	call	0xeb6	; 0xeb6 <starting_button>

00000f12 <.LVL4>:
     f12:	81 11       	cpse	r24, r1
     f14:	09 c0       	rjmp	.+18     	; 0xf28 <.L5>

00000f16 <.L4>:

        //display_statemachine(current_state);
    } // end of Main loop //

    return 0;
}} // end of Main //
     f16:	80 e0       	ldi	r24, 0x00	; 0
     f18:	90 e0       	ldi	r25, 0x00	; 0
     f1a:	2a 96       	adiw	r28, 0x0a	; 10
     f1c:	0f b6       	in	r0, 0x3f	; 63
     f1e:	f8 94       	cli
     f20:	de bf       	out	0x3e, r29	; 62
     f22:	0f be       	out	0x3f, r0	; 63
     f24:	cd bf       	out	0x3d, r28	; 61
     f26:	08 95       	ret

00000f28 <.L5>:
            task_manager(forward_fast, standard_speed, standard_acceleration);}//does AGV return an ack here?
     f28:	41 e0       	ldi	r20, 0x01	; 1
     f2a:	61 e0       	ldi	r22, 0x01	; 1
     f2c:	81 e0       	ldi	r24, 0x01	; 1
     f2e:	90 e0       	ldi	r25, 0x00	; 0
     f30:	0e 94 ba 02 	call	0x574	; 0x574 <task_manager>

00000f34 <.LVL5>:
     f34:	f0 cf       	rjmp	.-32     	; 0xf16 <.L4>

00000f36 <music_init>:
     f36:	6d 98       	cbi	0x0d, 5	; 13

00000f38 <.Loc.3>:
     f38:	75 9a       	sbi	0x0e, 5	; 14

00000f3a <.Loc.5>:
     f3a:	82 e0       	ldi	r24, 0x02	; 2
     f3c:	80 93 90 00 	sts	0x0090, r24	; 0x800090 <__TEXT_REGION_LENGTH__+0x700090>

00000f40 <.Loc.7>:
     f40:	89 e1       	ldi	r24, 0x19	; 25
     f42:	80 93 91 00 	sts	0x0091, r24	; 0x800091 <__TEXT_REGION_LENGTH__+0x700091>

00000f46 <.Loc.10>:
     f46:	8e e1       	ldi	r24, 0x1E	; 30
     f48:	95 e0       	ldi	r25, 0x05	; 5
     f4a:	90 93 9d 00 	sts	0x009D, r25	; 0x80009d <__TEXT_REGION_LENGTH__+0x70009d>
     f4e:	80 93 9c 00 	sts	0x009C, r24	; 0x80009c <__TEXT_REGION_LENGTH__+0x70009c>

00000f52 <.Loc.11>:
     f52:	08 95       	ret

00000f54 <buzzer_enable>:
     f54:	88 23       	and	r24, r24
     f56:	39 f0       	breq	.+14     	; 0xf66 <.L3>

00000f58 <.Loc.15>:
     f58:	6d 9a       	sbi	0x0d, 5	; 13

00000f5a <.Loc.17>:
     f5a:	e0 e9       	ldi	r30, 0x90	; 144
     f5c:	f0 e0       	ldi	r31, 0x00	; 0
     f5e:	80 81       	ld	r24, Z

00000f60 <.Loc.18>:
     f60:	8c 60       	ori	r24, 0x0C	; 12
     f62:	80 83       	st	Z, r24
     f64:	08 95       	ret

00000f66 <.L3>:
     f66:	6d 98       	cbi	0x0d, 5	; 13

00000f68 <.Loc.21>:
     f68:	e0 e9       	ldi	r30, 0x90	; 144
     f6a:	f0 e0       	ldi	r31, 0x00	; 0
     f6c:	80 81       	ld	r24, Z

00000f6e <.Loc.23>:
     f6e:	83 7f       	andi	r24, 0xF3	; 243
     f70:	80 83       	st	Z, r24

00000f72 <.Loc.24>:
     f72:	08 95       	ret

00000f74 <hz_to_icr_value>:
     f74:	9c 01       	movw	r18, r24
     f76:	99 0f       	add	r25, r25
     f78:	44 0b       	sbc	r20, r20
     f7a:	55 0b       	sbc	r21, r21
     f7c:	60 e0       	ldi	r22, 0x00	; 0
     f7e:	74 e2       	ldi	r23, 0x24	; 36
     f80:	84 ef       	ldi	r24, 0xF4	; 244
     f82:	90 e0       	ldi	r25, 0x00	; 0
     f84:	0e 94 b5 10 	call	0x216a	; 0x216a <__divmodsi4>

00000f88 <.Loc.28>:
     f88:	c9 01       	movw	r24, r18

00000f8a <.Loc.29>:
     f8a:	08 95       	ret

00000f8c <play_note>:
     f8c:	ef 92       	push	r14
     f8e:	ff 92       	push	r15
     f90:	0f 93       	push	r16
     f92:	1f 93       	push	r17
     f94:	cf 93       	push	r28
     f96:	df 93       	push	r29
     f98:	c8 2f       	mov	r28, r24
     f9a:	d9 2f       	mov	r29, r25
     f9c:	cb 01       	movw	r24, r22

00000f9e <.Loc.32>:
     f9e:	e4 2e       	mov	r14, r20
     fa0:	f5 2e       	mov	r15, r21
     fa2:	02 2f       	mov	r16, r18
     fa4:	13 2f       	mov	r17, r19

00000fa6 <.Loc.33>:
     fa6:	0e 94 3f 04 	call	0x87e	; 0x87e <gp_timer>

00000faa <.LVL8>:
     faa:	81 11       	cpse	r24, r1
     fac:	22 c0       	rjmp	.+68     	; 0xff2 <.L7>

00000fae <.LBB5>:
     fae:	9e 01       	movw	r18, r28
     fb0:	dd 0f       	add	r29, r29
     fb2:	44 0b       	sbc	r20, r20
     fb4:	55 0b       	sbc	r21, r21
     fb6:	60 e0       	ldi	r22, 0x00	; 0
     fb8:	74 e2       	ldi	r23, 0x24	; 36
     fba:	84 ef       	ldi	r24, 0xF4	; 244
     fbc:	90 e0       	ldi	r25, 0x00	; 0
     fbe:	0e 94 b5 10 	call	0x216a	; 0x216a <__divmodsi4>

00000fc2 <.Loc.43>:
     fc2:	30 93 97 00 	sts	0x0097, r19	; 0x800097 <__TEXT_REGION_LENGTH__+0x700097>
     fc6:	20 93 96 00 	sts	0x0096, r18	; 0x800096 <__TEXT_REGION_LENGTH__+0x700096>

00000fca <.Loc.44>:
     fca:	2f e8       	ldi	r18, 0x8F	; 143
     fcc:	32 e0       	ldi	r19, 0x02	; 2
     fce:	e2 9e       	mul	r14, r18
     fd0:	c0 01       	movw	r24, r0
     fd2:	e3 9e       	mul	r14, r19
     fd4:	90 0d       	add	r25, r0
     fd6:	f2 9e       	mul	r15, r18
     fd8:	90 0d       	add	r25, r0
     fda:	11 24       	eor	r1, r1

00000fdc <.Loc.46>:
     fdc:	90 93 9d 00 	sts	0x009D, r25	; 0x80009d <__TEXT_REGION_LENGTH__+0x70009d>
     fe0:	80 93 9c 00 	sts	0x009C, r24	; 0x80009c <__TEXT_REGION_LENGTH__+0x70009c>

00000fe4 <.L6>:
     fe4:	df 91       	pop	r29
     fe6:	cf 91       	pop	r28
     fe8:	1f 91       	pop	r17
     fea:	0f 91       	pop	r16
     fec:	ff 90       	pop	r15
     fee:	ef 90       	pop	r14
     ff0:	08 95       	ret

00000ff2 <.L7>:
     ff2:	f8 01       	movw	r30, r16
     ff4:	80 81       	ld	r24, Z
     ff6:	91 81       	ldd	r25, Z+1	; 0x01
     ff8:	01 96       	adiw	r24, 0x01	; 1
     ffa:	91 83       	std	Z+1, r25	; 0x01
     ffc:	80 83       	st	Z, r24

00000ffe <.Loc.51>:
     ffe:	f2 cf       	rjmp	.-28     	; 0xfe4 <.L6>

00001000 <play_beep>:
    1000:	80 91 9d 02 	lds	r24, 0x029D	; 0x80029d <note_number.2>
    1004:	90 91 9e 02 	lds	r25, 0x029E	; 0x80029e <note_number.2+0x1>
    1008:	89 2b       	or	r24, r25
    100a:	d9 f0       	breq	.+54     	; 0x1042 <.L19>

0000100c <.L10>:
    100c:	80 91 9d 02 	lds	r24, 0x029D	; 0x80029d <note_number.2>
    1010:	90 91 9e 02 	lds	r25, 0x029E	; 0x80029e <note_number.2+0x1>
    1014:	83 30       	cpi	r24, 0x03	; 3
    1016:	91 05       	cpc	r25, r1
    1018:	09 f4       	brne	.+2      	; 0x101c <L0^A+0x2>

0000101a <L0^A>:
    101a:	43 c0       	rjmp	.+134    	; 0x10a2 <.L11>
    101c:	34 f5       	brge	.+76     	; 0x106a <.L12>
    101e:	81 30       	cpi	r24, 0x01	; 1
    1020:	91 05       	cpc	r25, r1
    1022:	99 f1       	breq	.+102    	; 0x108a <.L13>
    1024:	82 30       	cpi	r24, 0x02	; 2
    1026:	91 05       	cpc	r25, r1
    1028:	81 f4       	brne	.+32     	; 0x104a <.L20>

0000102a <.Loc.57>:
    102a:	2d e9       	ldi	r18, 0x9D	; 157
    102c:	32 e0       	ldi	r19, 0x02	; 2
    102e:	4a e0       	ldi	r20, 0x0A	; 10
    1030:	50 e0       	ldi	r21, 0x00	; 0
    1032:	61 e0       	ldi	r22, 0x01	; 1
    1034:	70 e0       	ldi	r23, 0x00	; 0
    1036:	8a e6       	ldi	r24, 0x6A	; 106
    1038:	91 e0       	ldi	r25, 0x01	; 1
    103a:	0e 94 c6 07 	call	0xf8c	; 0xf8c <play_note>

0000103e <.LVL11>:
    103e:	81 e0       	ldi	r24, 0x01	; 1

00001040 <.Loc.60>:
    1040:	08 95       	ret

00001042 <.L19>:
    1042:	81 e0       	ldi	r24, 0x01	; 1
    1044:	0e 94 aa 07 	call	0xf54	; 0xf54 <buzzer_enable>

00001048 <.LVL12>:
    1048:	e1 cf       	rjmp	.-62     	; 0x100c <.L10>

0000104a <.L20>:
    104a:	89 2b       	or	r24, r25
    104c:	61 f4       	brne	.+24     	; 0x1066 <.L21>

0000104e <.Loc.63>:
    104e:	2d e9       	ldi	r18, 0x9D	; 157
    1050:	32 e0       	ldi	r19, 0x02	; 2
    1052:	4a e0       	ldi	r20, 0x0A	; 10
    1054:	50 e0       	ldi	r21, 0x00	; 0
    1056:	61 e0       	ldi	r22, 0x01	; 1
    1058:	70 e0       	ldi	r23, 0x00	; 0
    105a:	8c ee       	ldi	r24, 0xEC	; 236
    105c:	91 e0       	ldi	r25, 0x01	; 1
    105e:	0e 94 c6 07 	call	0xf8c	; 0xf8c <play_note>

00001062 <.LVL13>:
    1062:	81 e0       	ldi	r24, 0x01	; 1

00001064 <.Loc.66>:
    1064:	08 95       	ret

00001066 <.L21>:
    1066:	81 e0       	ldi	r24, 0x01	; 1
    1068:	08 95       	ret

0000106a <.L12>:
    106a:	84 30       	cpi	r24, 0x04	; 4
    106c:	91 05       	cpc	r25, r1
    106e:	29 f1       	breq	.+74     	; 0x10ba <.L17>
    1070:	05 97       	sbiw	r24, 0x05	; 5
    1072:	49 f4       	brne	.+18     	; 0x1086 <.L22>

00001074 <.Loc.68>:
    1074:	80 e0       	ldi	r24, 0x00	; 0
    1076:	0e 94 aa 07 	call	0xf54	; 0xf54 <buzzer_enable>

0000107a <.LVL14>:
    107a:	10 92 9e 02 	sts	0x029E, r1	; 0x80029e <note_number.2+0x1>
    107e:	10 92 9d 02 	sts	0x029D, r1	; 0x80029d <note_number.2>

00001082 <.Loc.71>:
    1082:	80 e0       	ldi	r24, 0x00	; 0

00001084 <.Loc.73>:
    1084:	08 95       	ret

00001086 <.L22>:
    1086:	81 e0       	ldi	r24, 0x01	; 1
    1088:	08 95       	ret

0000108a <.L13>:
    108a:	2d e9       	ldi	r18, 0x9D	; 157
    108c:	32 e0       	ldi	r19, 0x02	; 2
    108e:	40 e0       	ldi	r20, 0x00	; 0
    1090:	50 e0       	ldi	r21, 0x00	; 0
    1092:	61 e0       	ldi	r22, 0x01	; 1
    1094:	70 e0       	ldi	r23, 0x00	; 0
    1096:	8e ea       	ldi	r24, 0xAE	; 174
    1098:	91 e0       	ldi	r25, 0x01	; 1
    109a:	0e 94 c6 07 	call	0xf8c	; 0xf8c <play_note>

0000109e <.LVL15>:
    109e:	81 e0       	ldi	r24, 0x01	; 1

000010a0 <.Loc.78>:
    10a0:	08 95       	ret

000010a2 <.L11>:
    10a2:	2d e9       	ldi	r18, 0x9D	; 157
    10a4:	32 e0       	ldi	r19, 0x02	; 2
    10a6:	4a e0       	ldi	r20, 0x0A	; 10
    10a8:	50 e0       	ldi	r21, 0x00	; 0
    10aa:	61 e0       	ldi	r22, 0x01	; 1
    10ac:	70 e0       	ldi	r23, 0x00	; 0
    10ae:	8f e6       	ldi	r24, 0x6F	; 111
    10b0:	92 e0       	ldi	r25, 0x02	; 2
    10b2:	0e 94 c6 07 	call	0xf8c	; 0xf8c <play_note>

000010b6 <.LVL16>:
    10b6:	81 e0       	ldi	r24, 0x01	; 1

000010b8 <.Loc.82>:
    10b8:	08 95       	ret

000010ba <.L17>:
    10ba:	2d e9       	ldi	r18, 0x9D	; 157
    10bc:	32 e0       	ldi	r19, 0x02	; 2
    10be:	40 e0       	ldi	r20, 0x00	; 0
    10c0:	50 e0       	ldi	r21, 0x00	; 0
    10c2:	61 e0       	ldi	r22, 0x01	; 1
    10c4:	70 e0       	ldi	r23, 0x00	; 0
    10c6:	8f e6       	ldi	r24, 0x6F	; 111
    10c8:	92 e0       	ldi	r25, 0x02	; 2
    10ca:	0e 94 c6 07 	call	0xf8c	; 0xf8c <play_note>

000010ce <.LVL17>:
    10ce:	81 e0       	ldi	r24, 0x01	; 1

000010d0 <.Loc.86>:
    10d0:	08 95       	ret

000010d2 <play_beep_sad>:
    10d2:	80 91 9b 02 	lds	r24, 0x029B	; 0x80029b <note_number.1>
    10d6:	90 91 9c 02 	lds	r25, 0x029C	; 0x80029c <note_number.1+0x1>
    10da:	89 2b       	or	r24, r25
    10dc:	d9 f0       	breq	.+54     	; 0x1114 <.L33>

000010de <.L24>:
    10de:	80 91 9b 02 	lds	r24, 0x029B	; 0x80029b <note_number.1>
    10e2:	90 91 9c 02 	lds	r25, 0x029C	; 0x80029c <note_number.1+0x1>
    10e6:	83 30       	cpi	r24, 0x03	; 3
    10e8:	91 05       	cpc	r25, r1
    10ea:	09 f4       	brne	.+2      	; 0x10ee <L0^A+0x2>

000010ec <L0^A>:
    10ec:	43 c0       	rjmp	.+134    	; 0x1174 <.L25>
    10ee:	34 f5       	brge	.+76     	; 0x113c <.L26>
    10f0:	81 30       	cpi	r24, 0x01	; 1
    10f2:	91 05       	cpc	r25, r1
    10f4:	99 f1       	breq	.+102    	; 0x115c <.L27>
    10f6:	82 30       	cpi	r24, 0x02	; 2
    10f8:	91 05       	cpc	r25, r1
    10fa:	81 f4       	brne	.+32     	; 0x111c <.L34>

000010fc <.Loc.92>:
    10fc:	2b e9       	ldi	r18, 0x9B	; 155
    10fe:	32 e0       	ldi	r19, 0x02	; 2
    1100:	41 e0       	ldi	r20, 0x01	; 1
    1102:	50 e0       	ldi	r21, 0x00	; 0
    1104:	63 e0       	ldi	r22, 0x03	; 3
    1106:	70 e0       	ldi	r23, 0x00	; 0
    1108:	8a e8       	ldi	r24, 0x8A	; 138
    110a:	91 e0       	ldi	r25, 0x01	; 1
    110c:	0e 94 c6 07 	call	0xf8c	; 0xf8c <play_note>

00001110 <.LVL18>:
    1110:	81 e0       	ldi	r24, 0x01	; 1

00001112 <.Loc.95>:
    1112:	08 95       	ret

00001114 <.L33>:
    1114:	81 e0       	ldi	r24, 0x01	; 1
    1116:	0e 94 aa 07 	call	0xf54	; 0xf54 <buzzer_enable>

0000111a <.LVL19>:
    111a:	e1 cf       	rjmp	.-62     	; 0x10de <.L24>

0000111c <.L34>:
    111c:	89 2b       	or	r24, r25
    111e:	61 f4       	brne	.+24     	; 0x1138 <.L35>

00001120 <.Loc.98>:
    1120:	2b e9       	ldi	r18, 0x9B	; 155
    1122:	32 e0       	ldi	r19, 0x02	; 2
    1124:	41 e0       	ldi	r20, 0x01	; 1
    1126:	50 e0       	ldi	r21, 0x00	; 0
    1128:	63 e0       	ldi	r22, 0x03	; 3
    112a:	70 e0       	ldi	r23, 0x00	; 0
    112c:	8e ea       	ldi	r24, 0xAE	; 174
    112e:	91 e0       	ldi	r25, 0x01	; 1
    1130:	0e 94 c6 07 	call	0xf8c	; 0xf8c <play_note>

00001134 <.LVL20>:
    1134:	81 e0       	ldi	r24, 0x01	; 1

00001136 <.Loc.101>:
    1136:	08 95       	ret

00001138 <.L35>:
    1138:	81 e0       	ldi	r24, 0x01	; 1
    113a:	08 95       	ret

0000113c <.L26>:
    113c:	84 30       	cpi	r24, 0x04	; 4
    113e:	91 05       	cpc	r25, r1
    1140:	29 f1       	breq	.+74     	; 0x118c <.L31>
    1142:	05 97       	sbiw	r24, 0x05	; 5
    1144:	49 f4       	brne	.+18     	; 0x1158 <.L36>

00001146 <.Loc.103>:
    1146:	80 e0       	ldi	r24, 0x00	; 0
    1148:	0e 94 aa 07 	call	0xf54	; 0xf54 <buzzer_enable>

0000114c <.LVL21>:
    114c:	10 92 9c 02 	sts	0x029C, r1	; 0x80029c <note_number.1+0x1>
    1150:	10 92 9b 02 	sts	0x029B, r1	; 0x80029b <note_number.1>

00001154 <.Loc.106>:
    1154:	80 e0       	ldi	r24, 0x00	; 0

00001156 <.Loc.108>:
    1156:	08 95       	ret

00001158 <.L36>:
    1158:	81 e0       	ldi	r24, 0x01	; 1
    115a:	08 95       	ret

0000115c <.L27>:
    115c:	2b e9       	ldi	r18, 0x9B	; 155
    115e:	32 e0       	ldi	r19, 0x02	; 2
    1160:	40 e0       	ldi	r20, 0x00	; 0
    1162:	50 e0       	ldi	r21, 0x00	; 0
    1164:	62 e0       	ldi	r22, 0x02	; 2
    1166:	70 e0       	ldi	r23, 0x00	; 0
    1168:	8e ea       	ldi	r24, 0xAE	; 174
    116a:	91 e0       	ldi	r25, 0x01	; 1
    116c:	0e 94 c6 07 	call	0xf8c	; 0xf8c <play_note>

00001170 <.LVL22>:
    1170:	81 e0       	ldi	r24, 0x01	; 1

00001172 <.Loc.113>:
    1172:	08 95       	ret

00001174 <.L25>:
    1174:	2b e9       	ldi	r18, 0x9B	; 155
    1176:	32 e0       	ldi	r19, 0x02	; 2
    1178:	41 e0       	ldi	r20, 0x01	; 1
    117a:	50 e0       	ldi	r21, 0x00	; 0
    117c:	67 e0       	ldi	r22, 0x07	; 7
    117e:	70 e0       	ldi	r23, 0x00	; 0
    1180:	8a e6       	ldi	r24, 0x6A	; 106
    1182:	91 e0       	ldi	r25, 0x01	; 1
    1184:	0e 94 c6 07 	call	0xf8c	; 0xf8c <play_note>

00001188 <.LVL23>:
    1188:	81 e0       	ldi	r24, 0x01	; 1

0000118a <.Loc.117>:
    118a:	08 95       	ret

0000118c <.L31>:
    118c:	2b e9       	ldi	r18, 0x9B	; 155
    118e:	32 e0       	ldi	r19, 0x02	; 2
    1190:	40 e0       	ldi	r20, 0x00	; 0
    1192:	50 e0       	ldi	r21, 0x00	; 0
    1194:	6e e1       	ldi	r22, 0x1E	; 30
    1196:	70 e0       	ldi	r23, 0x00	; 0
    1198:	8f e6       	ldi	r24, 0x6F	; 111
    119a:	92 e0       	ldi	r25, 0x02	; 2
    119c:	0e 94 c6 07 	call	0xf8c	; 0xf8c <play_note>

000011a0 <.LVL24>:
    11a0:	81 e0       	ldi	r24, 0x01	; 1

000011a2 <.Loc.121>:
    11a2:	08 95       	ret

000011a4 <play_song>:
    11a4:	80 91 99 02 	lds	r24, 0x0299	; 0x800299 <note_number.0>
    11a8:	90 91 9a 02 	lds	r25, 0x029A	; 0x80029a <note_number.0+0x1>
    11ac:	89 2b       	or	r24, r25
    11ae:	71 f0       	breq	.+28     	; 0x11cc <.L57>

000011b0 <.L38>:
    11b0:	e0 91 99 02 	lds	r30, 0x0299	; 0x800299 <note_number.0>
    11b4:	f0 91 9a 02 	lds	r31, 0x029A	; 0x80029a <note_number.0+0x1>
    11b8:	ef 30       	cpi	r30, 0x0F	; 15
    11ba:	f1 05       	cpc	r31, r1
    11bc:	08 f0       	brcs	.+2      	; 0x11c0 <L0^A+0x2>

000011be <L0^A>:
    11be:	bb c0       	rjmp	.+374    	; 0x1336 <.L56>
    11c0:	88 27       	eor	r24, r24
    11c2:	e5 5c       	subi	r30, 0xC5	; 197
    11c4:	fd 4e       	sbci	r31, 0xED	; 237
    11c6:	8f 4f       	sbci	r24, 0xFF	; 255
    11c8:	0c 94 d4 10 	jmp	0x21a8	; 0x21a8 <__tablejump2__>

000011cc <.L57>:
    11cc:	81 e0       	ldi	r24, 0x01	; 1
    11ce:	0e 94 aa 07 	call	0xf54	; 0xf54 <buzzer_enable>

000011d2 <.LVL25>:
    11d2:	ee cf       	rjmp	.-36     	; 0x11b0 <.L38>

000011d4 <.L55>:
    11d4:	29 e9       	ldi	r18, 0x99	; 153
    11d6:	32 e0       	ldi	r19, 0x02	; 2
    11d8:	41 e0       	ldi	r20, 0x01	; 1
    11da:	50 e0       	ldi	r21, 0x00	; 0
    11dc:	61 e0       	ldi	r22, 0x01	; 1
    11de:	70 e0       	ldi	r23, 0x00	; 0
    11e0:	8f e6       	ldi	r24, 0x6F	; 111
    11e2:	92 e0       	ldi	r25, 0x02	; 2
    11e4:	0e 94 c6 07 	call	0xf8c	; 0xf8c <play_note>

000011e8 <.LVL26>:
    11e8:	81 e0       	ldi	r24, 0x01	; 1

000011ea <.Loc.131>:
    11ea:	08 95       	ret

000011ec <.L54>:
    11ec:	29 e9       	ldi	r18, 0x99	; 153
    11ee:	32 e0       	ldi	r19, 0x02	; 2
    11f0:	41 e0       	ldi	r20, 0x01	; 1
    11f2:	50 e0       	ldi	r21, 0x00	; 0
    11f4:	61 e0       	ldi	r22, 0x01	; 1
    11f6:	70 e0       	ldi	r23, 0x00	; 0
    11f8:	82 e5       	ldi	r24, 0x52	; 82
    11fa:	92 e0       	ldi	r25, 0x02	; 2
    11fc:	0e 94 c6 07 	call	0xf8c	; 0xf8c <play_note>

00001200 <.LVL27>:
    1200:	81 e0       	ldi	r24, 0x01	; 1

00001202 <.Loc.135>:
    1202:	08 95       	ret

00001204 <.L53>:
    1204:	29 e9       	ldi	r18, 0x99	; 153
    1206:	32 e0       	ldi	r19, 0x02	; 2
    1208:	41 e0       	ldi	r20, 0x01	; 1
    120a:	50 e0       	ldi	r21, 0x00	; 0
    120c:	62 e0       	ldi	r22, 0x02	; 2
    120e:	70 e0       	ldi	r23, 0x00	; 0
    1210:	8e ea       	ldi	r24, 0xAE	; 174
    1212:	91 e0       	ldi	r25, 0x01	; 1
    1214:	0e 94 c6 07 	call	0xf8c	; 0xf8c <play_note>

00001218 <.LVL28>:
    1218:	81 e0       	ldi	r24, 0x01	; 1

0000121a <.Loc.139>:
    121a:	08 95       	ret

0000121c <.L52>:
    121c:	29 e9       	ldi	r18, 0x99	; 153
    121e:	32 e0       	ldi	r19, 0x02	; 2
    1220:	41 e0       	ldi	r20, 0x01	; 1
    1222:	50 e0       	ldi	r21, 0x00	; 0
    1224:	62 e0       	ldi	r22, 0x02	; 2
    1226:	70 e0       	ldi	r23, 0x00	; 0
    1228:	81 ec       	ldi	r24, 0xC1	; 193
    122a:	91 e0       	ldi	r25, 0x01	; 1
    122c:	0e 94 c6 07 	call	0xf8c	; 0xf8c <play_note>

00001230 <.LVL29>:
    1230:	81 e0       	ldi	r24, 0x01	; 1

00001232 <.Loc.143>:
    1232:	08 95       	ret

00001234 <.L51>:
    1234:	29 e9       	ldi	r18, 0x99	; 153
    1236:	32 e0       	ldi	r19, 0x02	; 2
    1238:	41 e0       	ldi	r20, 0x01	; 1
    123a:	50 e0       	ldi	r21, 0x00	; 0
    123c:	61 e0       	ldi	r22, 0x01	; 1
    123e:	70 e0       	ldi	r23, 0x00	; 0
    1240:	82 e5       	ldi	r24, 0x52	; 82
    1242:	92 e0       	ldi	r25, 0x02	; 2
    1244:	0e 94 c6 07 	call	0xf8c	; 0xf8c <play_note>

00001248 <.LVL30>:
    1248:	81 e0       	ldi	r24, 0x01	; 1

0000124a <.Loc.147>:
    124a:	08 95       	ret

0000124c <.L50>:
    124c:	29 e9       	ldi	r18, 0x99	; 153
    124e:	32 e0       	ldi	r19, 0x02	; 2
    1250:	41 e0       	ldi	r20, 0x01	; 1
    1252:	50 e0       	ldi	r21, 0x00	; 0
    1254:	61 e0       	ldi	r22, 0x01	; 1
    1256:	70 e0       	ldi	r23, 0x00	; 0
    1258:	8c e1       	ldi	r24, 0x1C	; 28
    125a:	92 e0       	ldi	r25, 0x02	; 2
    125c:	0e 94 c6 07 	call	0xf8c	; 0xf8c <play_note>

00001260 <.LVL31>:
    1260:	81 e0       	ldi	r24, 0x01	; 1

00001262 <.Loc.151>:
    1262:	08 95       	ret

00001264 <.L49>:
    1264:	29 e9       	ldi	r18, 0x99	; 153
    1266:	32 e0       	ldi	r19, 0x02	; 2
    1268:	41 e0       	ldi	r20, 0x01	; 1
    126a:	50 e0       	ldi	r21, 0x00	; 0
    126c:	62 e0       	ldi	r22, 0x02	; 2
    126e:	70 e0       	ldi	r23, 0x00	; 0
    1270:	8a e6       	ldi	r24, 0x6A	; 106
    1272:	91 e0       	ldi	r25, 0x01	; 1
    1274:	0e 94 c6 07 	call	0xf8c	; 0xf8c <play_note>

00001278 <.LVL32>:
    1278:	81 e0       	ldi	r24, 0x01	; 1

0000127a <.Loc.155>:
    127a:	08 95       	ret

0000127c <.L48>:
    127c:	29 e9       	ldi	r18, 0x99	; 153
    127e:	32 e0       	ldi	r19, 0x02	; 2
    1280:	41 e0       	ldi	r20, 0x01	; 1
    1282:	50 e0       	ldi	r21, 0x00	; 0
    1284:	62 e0       	ldi	r22, 0x02	; 2
    1286:	70 e0       	ldi	r23, 0x00	; 0
    1288:	8a e8       	ldi	r24, 0x8A	; 138
    128a:	91 e0       	ldi	r25, 0x01	; 1
    128c:	0e 94 c6 07 	call	0xf8c	; 0xf8c <play_note>

00001290 <.LVL33>:
    1290:	81 e0       	ldi	r24, 0x01	; 1

00001292 <.Loc.159>:
    1292:	08 95       	ret

00001294 <.L47>:
    1294:	29 e9       	ldi	r18, 0x99	; 153
    1296:	32 e0       	ldi	r19, 0x02	; 2
    1298:	41 e0       	ldi	r20, 0x01	; 1
    129a:	50 e0       	ldi	r21, 0x00	; 0
    129c:	61 e0       	ldi	r22, 0x01	; 1
    129e:	70 e0       	ldi	r23, 0x00	; 0
    12a0:	8c e1       	ldi	r24, 0x1C	; 28
    12a2:	92 e0       	ldi	r25, 0x02	; 2
    12a4:	0e 94 c6 07 	call	0xf8c	; 0xf8c <play_note>

000012a8 <.LVL34>:
    12a8:	81 e0       	ldi	r24, 0x01	; 1

000012aa <.Loc.163>:
    12aa:	08 95       	ret

000012ac <.L46>:
    12ac:	29 e9       	ldi	r18, 0x99	; 153
    12ae:	32 e0       	ldi	r19, 0x02	; 2
    12b0:	41 e0       	ldi	r20, 0x01	; 1
    12b2:	50 e0       	ldi	r21, 0x00	; 0
    12b4:	61 e0       	ldi	r22, 0x01	; 1
    12b6:	70 e0       	ldi	r23, 0x00	; 0
    12b8:	8c ee       	ldi	r24, 0xEC	; 236
    12ba:	91 e0       	ldi	r25, 0x01	; 1
    12bc:	0e 94 c6 07 	call	0xf8c	; 0xf8c <play_note>

000012c0 <.LVL35>:
    12c0:	81 e0       	ldi	r24, 0x01	; 1

000012c2 <.Loc.167>:
    12c2:	08 95       	ret

000012c4 <.L45>:
    12c4:	29 e9       	ldi	r18, 0x99	; 153
    12c6:	32 e0       	ldi	r19, 0x02	; 2
    12c8:	41 e0       	ldi	r20, 0x01	; 1
    12ca:	50 e0       	ldi	r21, 0x00	; 0
    12cc:	62 e0       	ldi	r22, 0x02	; 2
    12ce:	70 e0       	ldi	r23, 0x00	; 0
    12d0:	8a e6       	ldi	r24, 0x6A	; 106
    12d2:	91 e0       	ldi	r25, 0x01	; 1
    12d4:	0e 94 c6 07 	call	0xf8c	; 0xf8c <play_note>

000012d8 <.LVL36>:
    12d8:	81 e0       	ldi	r24, 0x01	; 1

000012da <.Loc.171>:
    12da:	08 95       	ret

000012dc <.L44>:
    12dc:	29 e9       	ldi	r18, 0x99	; 153
    12de:	32 e0       	ldi	r19, 0x02	; 2
    12e0:	41 e0       	ldi	r20, 0x01	; 1
    12e2:	50 e0       	ldi	r21, 0x00	; 0
    12e4:	62 e0       	ldi	r22, 0x02	; 2
    12e6:	70 e0       	ldi	r23, 0x00	; 0
    12e8:	8a e8       	ldi	r24, 0x8A	; 138
    12ea:	91 e0       	ldi	r25, 0x01	; 1
    12ec:	0e 94 c6 07 	call	0xf8c	; 0xf8c <play_note>

000012f0 <.LVL37>:
    12f0:	81 e0       	ldi	r24, 0x01	; 1

000012f2 <.Loc.175>:
    12f2:	08 95       	ret

000012f4 <.L43>:
    12f4:	29 e9       	ldi	r18, 0x99	; 153
    12f6:	32 e0       	ldi	r19, 0x02	; 2
    12f8:	41 e0       	ldi	r20, 0x01	; 1
    12fa:	50 e0       	ldi	r21, 0x00	; 0
    12fc:	65 e0       	ldi	r22, 0x05	; 5
    12fe:	70 e0       	ldi	r23, 0x00	; 0
    1300:	8e ea       	ldi	r24, 0xAE	; 174
    1302:	91 e0       	ldi	r25, 0x01	; 1
    1304:	0e 94 c6 07 	call	0xf8c	; 0xf8c <play_note>

00001308 <.LVL38>:
    1308:	81 e0       	ldi	r24, 0x01	; 1

0000130a <.Loc.179>:
    130a:	08 95       	ret

0000130c <.L42>:
    130c:	29 e9       	ldi	r18, 0x99	; 153
    130e:	32 e0       	ldi	r19, 0x02	; 2
    1310:	40 e0       	ldi	r20, 0x00	; 0
    1312:	50 e0       	ldi	r21, 0x00	; 0
    1314:	65 e0       	ldi	r22, 0x05	; 5
    1316:	70 e0       	ldi	r23, 0x00	; 0
    1318:	8a e6       	ldi	r24, 0x6A	; 106
    131a:	91 e0       	ldi	r25, 0x01	; 1
    131c:	0e 94 c6 07 	call	0xf8c	; 0xf8c <play_note>

00001320 <.LVL39>:
    1320:	81 e0       	ldi	r24, 0x01	; 1

00001322 <.Loc.183>:
    1322:	08 95       	ret

00001324 <.L40>:
    1324:	80 e0       	ldi	r24, 0x00	; 0
    1326:	0e 94 aa 07 	call	0xf54	; 0xf54 <buzzer_enable>

0000132a <.LVL40>:
    132a:	10 92 9a 02 	sts	0x029A, r1	; 0x80029a <note_number.0+0x1>
    132e:	10 92 99 02 	sts	0x0299, r1	; 0x800299 <note_number.0>

00001332 <.Loc.187>:
    1332:	80 e0       	ldi	r24, 0x00	; 0
    1334:	08 95       	ret

00001336 <.L56>:
    1336:	81 e0       	ldi	r24, 0x01	; 1

00001338 <.Loc.190>:
    1338:	08 95       	ret

0000133a <spi_init>:
#define MFRC522_TXASK_REG 0x15

#define PICC_CMD_REQA 0x26

void spi_init() {
    DDRB |= (1 << PB2) | (1 << PB1) | (1 << PB0); // MOSI (D51), SCK (D52), SS (D53)
    133a:	84 b1       	in	r24, 0x04	; 4

0000133c <.Loc.2>:
    133c:	87 60       	ori	r24, 0x07	; 7
    133e:	84 b9       	out	0x04, r24	; 4

00001340 <.Loc.3>:
    DDRB &= ~(1 << PB3); // MISO (D50) als input
    1340:	23 98       	cbi	0x04, 3	; 4

00001342 <.Loc.5>:
    SPCR = (1 << SPE) | (1 << MSTR) | (1 << SPR0); // SPI Enable, Master mode, clk/16
    1342:	81 e5       	ldi	r24, 0x51	; 81
    1344:	8c bd       	out	0x2c, r24	; 44

00001346 <.Loc.7>:
}
    1346:	08 95       	ret

00001348 <spi_transfer>:

uint8_t spi_transfer(uint8_t data) {
    SPDR = data;
    1348:	8e bd       	out	0x2e, r24	; 46

0000134a <.L3>:
    while (!(SPSR & (1 << SPIF)));
    134a:	0d b4       	in	r0, 0x2d	; 45
    134c:	07 fe       	sbrs	r0, 7
    134e:	fd cf       	rjmp	.-6      	; 0x134a <.L3>

00001350 <.Loc.13>:
    return SPDR;
    1350:	8e b5       	in	r24, 0x2e	; 46

00001352 <.Loc.15>:
}
    1352:	08 95       	ret

00001354 <read_register>:
    spi_transfer((reg << 1) & 0x7E);
    spi_transfer(val);
    *(dev.port) |= (1 << dev.pin);      // Slave deselect
}

static uint8_t read_register(spi_device dev, uint8_t reg) {
    1354:	ef 92       	push	r14
    1356:	ff 92       	push	r15
    1358:	0f 93       	push	r16
    135a:	1f 93       	push	r17
    135c:	cf 93       	push	r28
    135e:	df 93       	push	r29
    1360:	00 d0       	rcall	.+0      	; 0x1362 <L0^A>

00001362 <L0^A>:
    1362:	0f 92       	push	r0
    1364:	0f 92       	push	r0
    1366:	cd b7       	in	r28, 0x3d	; 61
    1368:	de b7       	in	r29, 0x3e	; 62
    136a:	49 83       	std	Y+1, r20	; 0x01
    136c:	5a 83       	std	Y+2, r21	; 0x02
    136e:	6b 83       	std	Y+3, r22	; 0x03
    1370:	7c 83       	std	Y+4, r23	; 0x04
    1372:	8d 83       	std	Y+5, r24	; 0x05
    1374:	82 2f       	mov	r24, r18
    1376:	09 81       	ldd	r16, Y+1	; 0x01
    1378:	1a 81       	ldd	r17, Y+2	; 0x02

0000137a <.Loc.18>:
    uint8_t val;
    *(dev.port) &= ~(1 << dev.pin);     // Slave select
    137a:	f8 01       	movw	r30, r16
    137c:	40 81       	ld	r20, Z

0000137e <.Loc.20>:
    137e:	21 e0       	ldi	r18, 0x01	; 1
    1380:	30 e0       	ldi	r19, 0x00	; 0

00001382 <.Loc.21>:
    1382:	79 01       	movw	r14, r18
    1384:	02 c0       	rjmp	.+4      	; 0x138a <.L2^B1>

00001386 <.L1^B1>:
    1386:	ee 0c       	add	r14, r14
    1388:	ff 1c       	adc	r15, r15

0000138a <.L2^B1>:
    138a:	6a 95       	dec	r22
    138c:	e2 f7       	brpl	.-8      	; 0x1386 <.L1^B1>

0000138e <.Loc.22>:
    138e:	9e 2d       	mov	r25, r14
    1390:	90 95       	com	r25
    1392:	94 23       	and	r25, r20
    1394:	90 83       	st	Z, r25

00001396 <.Loc.23>:
    spi_transfer(((reg << 1) & 0x7E) | 0x80);
    1396:	88 0f       	add	r24, r24

00001398 <.Loc.25>:
    1398:	8e 77       	andi	r24, 0x7E	; 126

0000139a <.Loc.26>:
    139a:	80 68       	ori	r24, 0x80	; 128
    139c:	0e 94 a4 09 	call	0x1348	; 0x1348 <spi_transfer>

000013a0 <.LVL6>:
    val = spi_transfer(0);
    13a0:	80 e0       	ldi	r24, 0x00	; 0
    13a2:	0e 94 a4 09 	call	0x1348	; 0x1348 <spi_transfer>

000013a6 <.LVL7>:
    *(dev.port) |= (1 << dev.pin);      // Slave deselect
    13a6:	f8 01       	movw	r30, r16
    13a8:	90 81       	ld	r25, Z

000013aa <.Loc.30>:
    13aa:	9e 29       	or	r25, r14
    13ac:	90 83       	st	Z, r25

000013ae <.Loc.31>:
    return val;
}
    13ae:	0f 90       	pop	r0
    13b0:	0f 90       	pop	r0
    13b2:	0f 90       	pop	r0
    13b4:	0f 90       	pop	r0
    13b6:	0f 90       	pop	r0
    13b8:	df 91       	pop	r29
    13ba:	cf 91       	pop	r28
    13bc:	1f 91       	pop	r17
    13be:	0f 91       	pop	r16

000013c0 <.Loc.33>:
    13c0:	ff 90       	pop	r15
    13c2:	ef 90       	pop	r14
    13c4:	08 95       	ret

000013c6 <write_register>:
static void write_register(spi_device dev, uint8_t reg, uint8_t val) {
    13c6:	cf 92       	push	r12
    13c8:	df 92       	push	r13
    13ca:	ef 92       	push	r14
    13cc:	ff 92       	push	r15
    13ce:	0f 93       	push	r16
    13d0:	cf 93       	push	r28
    13d2:	df 93       	push	r29
    13d4:	00 d0       	rcall	.+0      	; 0x13d6 <L0^A>

000013d6 <L0^A>:
    13d6:	0f 92       	push	r0
    13d8:	0f 92       	push	r0
    13da:	cd b7       	in	r28, 0x3d	; 61
    13dc:	de b7       	in	r29, 0x3e	; 62
    13de:	49 83       	std	Y+1, r20	; 0x01
    13e0:	5a 83       	std	Y+2, r21	; 0x02
    13e2:	6b 83       	std	Y+3, r22	; 0x03
    13e4:	7c 83       	std	Y+4, r23	; 0x04
    13e6:	8d 83       	std	Y+5, r24	; 0x05
    13e8:	e9 80       	ldd	r14, Y+1	; 0x01
    13ea:	fa 80       	ldd	r15, Y+2	; 0x02

000013ec <.Loc.36>:
    *(dev.port) &= ~(1 << dev.pin);     // Slave select
    13ec:	f7 01       	movw	r30, r14
    13ee:	90 81       	ld	r25, Z

000013f0 <.Loc.37>:
    13f0:	41 e0       	ldi	r20, 0x01	; 1
    13f2:	50 e0       	ldi	r21, 0x00	; 0
    13f4:	6a 01       	movw	r12, r20
    13f6:	02 c0       	rjmp	.+4      	; 0x13fc <.L2^B2>

000013f8 <.L1^B2>:
    13f8:	cc 0c       	add	r12, r12
    13fa:	dd 1c       	adc	r13, r13

000013fc <.L2^B2>:
    13fc:	6a 95       	dec	r22
    13fe:	e2 f7       	brpl	.-8      	; 0x13f8 <.L1^B2>

00001400 <.Loc.38>:
    1400:	8c 2d       	mov	r24, r12
    1402:	80 95       	com	r24
    1404:	89 23       	and	r24, r25
    1406:	80 83       	st	Z, r24

00001408 <.Loc.39>:
    spi_transfer((reg << 1) & 0x7E);
    1408:	82 2f       	mov	r24, r18
    140a:	88 0f       	add	r24, r24

0000140c <.Loc.41>:
    140c:	8e 77       	andi	r24, 0x7E	; 126
    140e:	0e 94 a4 09 	call	0x1348	; 0x1348 <spi_transfer>

00001412 <.LVL11>:
    spi_transfer(val);
    1412:	80 2f       	mov	r24, r16
    1414:	0e 94 a4 09 	call	0x1348	; 0x1348 <spi_transfer>

00001418 <.LVL12>:
    *(dev.port) |= (1 << dev.pin);      // Slave deselect
    1418:	f7 01       	movw	r30, r14
    141a:	80 81       	ld	r24, Z

0000141c <.Loc.44>:
    141c:	8c 29       	or	r24, r12
    141e:	80 83       	st	Z, r24

00001420 <.Loc.45>:
}
    1420:	0f 90       	pop	r0
    1422:	0f 90       	pop	r0
    1424:	0f 90       	pop	r0
    1426:	0f 90       	pop	r0
    1428:	0f 90       	pop	r0
    142a:	df 91       	pop	r29
    142c:	cf 91       	pop	r28
    142e:	0f 91       	pop	r16

00001430 <.Loc.46>:
    1430:	ff 90       	pop	r15
    1432:	ef 90       	pop	r14

00001434 <.Loc.47>:
    1434:	df 90       	pop	r13
    1436:	cf 90       	pop	r12
    1438:	08 95       	ret

0000143a <rfid_init>:

void rfid_init(spi_device dev) {
    143a:	af 92       	push	r10
    143c:	bf 92       	push	r11
    143e:	df 92       	push	r13
    1440:	ef 92       	push	r14
    1442:	ff 92       	push	r15
    1444:	0f 93       	push	r16
    1446:	1f 93       	push	r17
    1448:	cf 93       	push	r28
    144a:	df 93       	push	r29
    144c:	00 d0       	rcall	.+0      	; 0x144e <L0^A>

0000144e <L0^A>:
    144e:	0f 92       	push	r0
    1450:	0f 92       	push	r0
    1452:	cd b7       	in	r28, 0x3d	; 61
    1454:	de b7       	in	r29, 0x3e	; 62
    1456:	49 83       	std	Y+1, r20	; 0x01
    1458:	5a 83       	std	Y+2, r21	; 0x02
    145a:	d6 2e       	mov	r13, r22
    145c:	6b 83       	std	Y+3, r22	; 0x03
    145e:	7c 83       	std	Y+4, r23	; 0x04
    1460:	8d 83       	std	Y+5, r24	; 0x05
    1462:	09 81       	ldd	r16, Y+1	; 0x01
    1464:	1a 81       	ldd	r17, Y+2	; 0x02

00001466 <.Loc.49>:
    1466:	ec 80       	ldd	r14, Y+4	; 0x04
    1468:	fd 80       	ldd	r15, Y+5	; 0x05

0000146a <.Loc.50>:
    *(dev.ddr) |= (1 << dev.pin);   // SS output
    146a:	f7 01       	movw	r30, r14
    146c:	20 81       	ld	r18, Z

0000146e <.Loc.51>:
    146e:	81 e0       	ldi	r24, 0x01	; 1
    1470:	90 e0       	ldi	r25, 0x00	; 0
    1472:	02 c0       	rjmp	.+4      	; 0x1478 <.L2^B3>

00001474 <.L1^B3>:
    1474:	88 0f       	add	r24, r24
    1476:	99 1f       	adc	r25, r25

00001478 <.L2^B3>:
    1478:	6a 95       	dec	r22
    147a:	e2 f7       	brpl	.-8      	; 0x1474 <.L1^B3>

0000147c <.Loc.52>:
    147c:	92 2f       	mov	r25, r18
    147e:	98 2b       	or	r25, r24
    1480:	90 83       	st	Z, r25

00001482 <.Loc.53>:
    RST_DDR |= (1 << RST_PIN);         // Reset output
    1482:	e1 e0       	ldi	r30, 0x01	; 1
    1484:	f1 e0       	ldi	r31, 0x01	; 1
    1486:	90 81       	ld	r25, Z

00001488 <.Loc.54>:
    1488:	90 64       	ori	r25, 0x40	; 64
    148a:	90 83       	st	Z, r25

0000148c <.Loc.55>:
    *(dev.port) |= (1 << dev.pin);  // Deselect slave
    148c:	f8 01       	movw	r30, r16
    148e:	90 81       	ld	r25, Z

00001490 <.Loc.56>:
    1490:	89 2b       	or	r24, r25
    1492:	80 83       	st	Z, r24

00001494 <.Loc.57>:
    RST_PORT |= (1 << RST_PIN);        // Startup
    1494:	68 94       	set
    1496:	aa 24       	eor	r10, r10
    1498:	a1 f8       	bld	r10, 1
    149a:	bb 24       	eor	r11, r11
    149c:	b3 94       	inc	r11
    149e:	f5 01       	movw	r30, r10
    14a0:	80 81       	ld	r24, Z

000014a2 <.Loc.58>:
    14a2:	80 64       	ori	r24, 0x40	; 64
    14a4:	80 83       	st	Z, r24

000014a6 <.Loc.59>:

    spi_init();
    14a6:	0e 94 9d 09 	call	0x133a	; 0x133a <spi_init>

000014aa <.LVL17>:

    RST_PORT &= ~(1<<RST_PIN);         // Hard reset
    14aa:	f5 01       	movw	r30, r10
    14ac:	80 81       	ld	r24, Z
    14ae:	8f 7b       	andi	r24, 0xBF	; 191
    14b0:	80 83       	st	Z, r24

000014b2 <.Loc.62>:
    RST_PORT |= (1 << RST_PIN);        // Startup
    14b2:	80 81       	ld	r24, Z

000014b4 <.Loc.63>:
    14b4:	80 64       	ori	r24, 0x40	; 64
    14b6:	80 83       	st	Z, r24

000014b8 <.L8>:

    while(read_register(dev, 0x37) != 0x92); // Check version to see if reset is complete
    14b8:	40 2f       	mov	r20, r16
    14ba:	51 2f       	mov	r21, r17
    14bc:	1a 83       	std	Y+2, r17	; 0x02
    14be:	09 83       	std	Y+1, r16	; 0x01
    14c0:	db 82       	std	Y+3, r13	; 0x03
    14c2:	7e 2d       	mov	r23, r14
    14c4:	fd 82       	std	Y+5, r15	; 0x05
    14c6:	ec 82       	std	Y+4, r14	; 0x04
    14c8:	27 e3       	ldi	r18, 0x37	; 55
    14ca:	6d 2d       	mov	r22, r13
    14cc:	8f 2d       	mov	r24, r15
    14ce:	0e 94 aa 09 	call	0x1354	; 0x1354 <read_register>

000014d2 <.LVL18>:
    14d2:	82 39       	cpi	r24, 0x92	; 146
    14d4:	89 f7       	brne	.-30     	; 0x14b8 <.L8>

000014d6 <.Loc.68>:
    write_register(dev, 0x26, 0x70); // Max gain
    14d6:	00 e7       	ldi	r16, 0x70	; 112

000014d8 <.Loc.69>:
    14d8:	26 e2       	ldi	r18, 0x26	; 38
    14da:	49 81       	ldd	r20, Y+1	; 0x01
    14dc:	5a 81       	ldd	r21, Y+2	; 0x02
    14de:	6b 81       	ldd	r22, Y+3	; 0x03
    14e0:	7c 81       	ldd	r23, Y+4	; 0x04
    14e2:	8d 81       	ldd	r24, Y+5	; 0x05
    14e4:	0e 94 e3 09 	call	0x13c6	; 0x13c6 <write_register>

000014e8 <.LVL20>:
    write_register(dev, MFRC522_TMODE_REG, 0x80);
    14e8:	00 e8       	ldi	r16, 0x80	; 128
    14ea:	2a e2       	ldi	r18, 0x2A	; 42
    14ec:	49 81       	ldd	r20, Y+1	; 0x01
    14ee:	5a 81       	ldd	r21, Y+2	; 0x02
    14f0:	6b 81       	ldd	r22, Y+3	; 0x03
    14f2:	7c 81       	ldd	r23, Y+4	; 0x04
    14f4:	8d 81       	ldd	r24, Y+5	; 0x05
    14f6:	0e 94 e3 09 	call	0x13c6	; 0x13c6 <write_register>

000014fa <.LVL21>:
    write_register(dev, MFRC522_TPRESCALER_REG, 0xA9);
    14fa:	09 ea       	ldi	r16, 0xA9	; 169
    14fc:	2b e2       	ldi	r18, 0x2B	; 43
    14fe:	49 81       	ldd	r20, Y+1	; 0x01
    1500:	5a 81       	ldd	r21, Y+2	; 0x02
    1502:	6b 81       	ldd	r22, Y+3	; 0x03
    1504:	7c 81       	ldd	r23, Y+4	; 0x04
    1506:	8d 81       	ldd	r24, Y+5	; 0x05
    1508:	0e 94 e3 09 	call	0x13c6	; 0x13c6 <write_register>

0000150c <.LVL22>:
    write_register(dev, MFRC522_TRELOAD_REG_L, 0xE8);
    150c:	08 ee       	ldi	r16, 0xE8	; 232
    150e:	2d e2       	ldi	r18, 0x2D	; 45
    1510:	49 81       	ldd	r20, Y+1	; 0x01
    1512:	5a 81       	ldd	r21, Y+2	; 0x02
    1514:	6b 81       	ldd	r22, Y+3	; 0x03
    1516:	7c 81       	ldd	r23, Y+4	; 0x04
    1518:	8d 81       	ldd	r24, Y+5	; 0x05
    151a:	0e 94 e3 09 	call	0x13c6	; 0x13c6 <write_register>

0000151e <.LVL23>:
    write_register(dev, MFRC522_TRELOAD_REG_H, 0x03);
    151e:	03 e0       	ldi	r16, 0x03	; 3
    1520:	2c e2       	ldi	r18, 0x2C	; 44
    1522:	49 81       	ldd	r20, Y+1	; 0x01
    1524:	5a 81       	ldd	r21, Y+2	; 0x02
    1526:	6b 81       	ldd	r22, Y+3	; 0x03
    1528:	7c 81       	ldd	r23, Y+4	; 0x04
    152a:	8d 81       	ldd	r24, Y+5	; 0x05
    152c:	0e 94 e3 09 	call	0x13c6	; 0x13c6 <write_register>

00001530 <.LVL24>:
    write_register(dev, MFRC522_TXASK_REG, 0x40);
    1530:	00 e4       	ldi	r16, 0x40	; 64
    1532:	25 e1       	ldi	r18, 0x15	; 21
    1534:	49 81       	ldd	r20, Y+1	; 0x01
    1536:	5a 81       	ldd	r21, Y+2	; 0x02
    1538:	6b 81       	ldd	r22, Y+3	; 0x03
    153a:	7c 81       	ldd	r23, Y+4	; 0x04
    153c:	8d 81       	ldd	r24, Y+5	; 0x05
    153e:	0e 94 e3 09 	call	0x13c6	; 0x13c6 <write_register>

00001542 <.LVL25>:
    write_register(dev, MFRC522_MODE_REG, 0x3D);
    1542:	0d e3       	ldi	r16, 0x3D	; 61
    1544:	21 e1       	ldi	r18, 0x11	; 17
    1546:	49 81       	ldd	r20, Y+1	; 0x01
    1548:	5a 81       	ldd	r21, Y+2	; 0x02
    154a:	6b 81       	ldd	r22, Y+3	; 0x03
    154c:	7c 81       	ldd	r23, Y+4	; 0x04
    154e:	8d 81       	ldd	r24, Y+5	; 0x05
    1550:	0e 94 e3 09 	call	0x13c6	; 0x13c6 <write_register>

00001554 <.LVL26>:

    uint8_t val = read_register(dev, MFRC522_TX_CONTROL_REG);
    1554:	24 e1       	ldi	r18, 0x14	; 20
    1556:	49 81       	ldd	r20, Y+1	; 0x01
    1558:	5a 81       	ldd	r21, Y+2	; 0x02
    155a:	6b 81       	ldd	r22, Y+3	; 0x03
    155c:	7c 81       	ldd	r23, Y+4	; 0x04
    155e:	8d 81       	ldd	r24, Y+5	; 0x05
    1560:	0e 94 aa 09 	call	0x1354	; 0x1354 <read_register>

00001564 <.LVL27>:
    if (!(val & 0x03)) {
    1564:	98 2f       	mov	r25, r24
    1566:	93 70       	andi	r25, 0x03	; 3
    1568:	99 23       	and	r25, r25
    156a:	79 f0       	breq	.+30     	; 0x158a <.L11>

0000156c <.L7>:
        write_register(dev, MFRC522_TX_CONTROL_REG, val | 0x03);
    }


}
    156c:	0f 90       	pop	r0
    156e:	0f 90       	pop	r0
    1570:	0f 90       	pop	r0
    1572:	0f 90       	pop	r0
    1574:	0f 90       	pop	r0
    1576:	df 91       	pop	r29
    1578:	cf 91       	pop	r28
    157a:	1f 91       	pop	r17
    157c:	0f 91       	pop	r16
    157e:	ff 90       	pop	r15
    1580:	ef 90       	pop	r14

00001582 <.Loc.81>:
    1582:	df 90       	pop	r13

00001584 <.Loc.82>:
    1584:	bf 90       	pop	r11
    1586:	af 90       	pop	r10
    1588:	08 95       	ret

0000158a <.L11>:
        write_register(dev, MFRC522_TX_CONTROL_REG, val | 0x03);
    158a:	08 2f       	mov	r16, r24
    158c:	03 60       	ori	r16, 0x03	; 3
    158e:	24 e1       	ldi	r18, 0x14	; 20
    1590:	49 81       	ldd	r20, Y+1	; 0x01
    1592:	5a 81       	ldd	r21, Y+2	; 0x02
    1594:	6b 81       	ldd	r22, Y+3	; 0x03
    1596:	7c 81       	ldd	r23, Y+4	; 0x04
    1598:	8d 81       	ldd	r24, Y+5	; 0x05

0000159a <.Loc.84>:
    159a:	0e 94 e3 09 	call	0x13c6	; 0x13c6 <write_register>

0000159e <.LVL33>:
}
    159e:	e6 cf       	rjmp	.-52     	; 0x156c <.L7>

000015a0 <rfid_check_tag_present>:

bool rfid_check_tag_present(spi_device dev) {
    15a0:	0f 93       	push	r16
    15a2:	1f 93       	push	r17
    15a4:	cf 93       	push	r28
    15a6:	df 93       	push	r29
    15a8:	00 d0       	rcall	.+0      	; 0x15aa <L0^A>

000015aa <L0^A>:
    15aa:	0f 92       	push	r0
    15ac:	0f 92       	push	r0
    15ae:	cd b7       	in	r28, 0x3d	; 61
    15b0:	de b7       	in	r29, 0x3e	; 62
    15b2:	49 83       	std	Y+1, r20	; 0x01
    15b4:	5a 83       	std	Y+2, r21	; 0x02
    15b6:	6b 83       	std	Y+3, r22	; 0x03
    15b8:	7c 83       	std	Y+4, r23	; 0x04
    15ba:	8d 83       	std	Y+5, r24	; 0x05

000015bc <.Loc.87>:
    write_register(dev, MFRC522_BIT_FRAMING_REG, 0x07); // Set bitframing to 7 bits
    15bc:	07 e0       	ldi	r16, 0x07	; 7
    15be:	2d e0       	ldi	r18, 0x0D	; 13
    15c0:	0e 94 e3 09 	call	0x13c6	; 0x13c6 <write_register>

000015c4 <.LVL34>:
    write_register(dev, MFRC522_COMMAND_REG, 0x00); // Set to idle
    15c4:	00 e0       	ldi	r16, 0x00	; 0
    15c6:	21 e0       	ldi	r18, 0x01	; 1
    15c8:	49 81       	ldd	r20, Y+1	; 0x01
    15ca:	5a 81       	ldd	r21, Y+2	; 0x02
    15cc:	6b 81       	ldd	r22, Y+3	; 0x03
    15ce:	7c 81       	ldd	r23, Y+4	; 0x04
    15d0:	8d 81       	ldd	r24, Y+5	; 0x05
    15d2:	0e 94 e3 09 	call	0x13c6	; 0x13c6 <write_register>

000015d6 <.LVL35>:
    write_register(dev, MFRC522_FIFO_DATA_REG, PICC_CMD_REQA); // Reqa command
    15d6:	06 e2       	ldi	r16, 0x26	; 38
    15d8:	29 e0       	ldi	r18, 0x09	; 9
    15da:	49 81       	ldd	r20, Y+1	; 0x01
    15dc:	5a 81       	ldd	r21, Y+2	; 0x02
    15de:	6b 81       	ldd	r22, Y+3	; 0x03
    15e0:	7c 81       	ldd	r23, Y+4	; 0x04
    15e2:	8d 81       	ldd	r24, Y+5	; 0x05
    15e4:	0e 94 e3 09 	call	0x13c6	; 0x13c6 <write_register>

000015e8 <.LVL36>:
    write_register(dev, MFRC522_COMMAND_REG, MFRC522_COMMAND_TRANSCEIVE); // Transceive
    15e8:	0c e0       	ldi	r16, 0x0C	; 12
    15ea:	21 e0       	ldi	r18, 0x01	; 1
    15ec:	49 81       	ldd	r20, Y+1	; 0x01
    15ee:	5a 81       	ldd	r21, Y+2	; 0x02
    15f0:	6b 81       	ldd	r22, Y+3	; 0x03
    15f2:	7c 81       	ldd	r23, Y+4	; 0x04
    15f4:	8d 81       	ldd	r24, Y+5	; 0x05
    15f6:	0e 94 e3 09 	call	0x13c6	; 0x13c6 <write_register>

000015fa <.LVL37>:
    write_register(dev, MFRC522_BIT_FRAMING_REG, 0x87);
    15fa:	07 e8       	ldi	r16, 0x87	; 135
    15fc:	2d e0       	ldi	r18, 0x0D	; 13
    15fe:	49 81       	ldd	r20, Y+1	; 0x01
    1600:	5a 81       	ldd	r21, Y+2	; 0x02
    1602:	6b 81       	ldd	r22, Y+3	; 0x03
    1604:	7c 81       	ldd	r23, Y+4	; 0x04
    1606:	8d 81       	ldd	r24, Y+5	; 0x05
    1608:	0e 94 e3 09 	call	0x13c6	; 0x13c6 <write_register>

0000160c <.LVL38>:
    160c:	18 ec       	ldi	r17, 0xC8	; 200

0000160e <.L14>:

    uint8_t i = 0;
    for (i = 0; i < 200; i++) {
        uint8_t irq = read_register(dev, MFRC522_COM_IRQ_REG);
    160e:	24 e0       	ldi	r18, 0x04	; 4
    1610:	49 81       	ldd	r20, Y+1	; 0x01
    1612:	5a 81       	ldd	r21, Y+2	; 0x02
    1614:	6b 81       	ldd	r22, Y+3	; 0x03
    1616:	7c 81       	ldd	r23, Y+4	; 0x04
    1618:	8d 81       	ldd	r24, Y+5	; 0x05
    161a:	0e 94 aa 09 	call	0x1354	; 0x1354 <read_register>

0000161e <.LVL40>:
        if (irq & 0x30) break;
    161e:	80 73       	andi	r24, 0x30	; 48

00001620 <.Loc.100>:
    1620:	81 11       	cpse	r24, r1
    1622:	03 c0       	rjmp	.+6      	; 0x162a <.L13>

00001624 <.LBE5>:
    for (i = 0; i < 200; i++) {
    1624:	11 50       	subi	r17, 0x01	; 1

00001626 <.Loc.103>:
    1626:	11 11       	cpse	r17, r1
    1628:	f2 cf       	rjmp	.-28     	; 0x160e <.L14>

0000162a <.L13>:
    }

    uint8_t error = read_register(dev, 0x06); // ErrorReg
    162a:	26 e0       	ldi	r18, 0x06	; 6
    162c:	49 81       	ldd	r20, Y+1	; 0x01
    162e:	5a 81       	ldd	r21, Y+2	; 0x02
    1630:	6b 81       	ldd	r22, Y+3	; 0x03
    1632:	7c 81       	ldd	r23, Y+4	; 0x04
    1634:	8d 81       	ldd	r24, Y+5	; 0x05
    1636:	0e 94 aa 09 	call	0x1354	; 0x1354 <read_register>

0000163a <.LVL45>:
    if (error & 0x1B) return false;
    163a:	8b 71       	andi	r24, 0x1B	; 27

0000163c <.Loc.108>:
    163c:	88 23       	and	r24, r24
    163e:	59 f0       	breq	.+22     	; 0x1656 <.L19>

00001640 <.Loc.109>:
    1640:	80 e0       	ldi	r24, 0x00	; 0

00001642 <.L12>:

    uint8_t len = read_register(dev, MFRC522_FIFO_LEVEL_REG);
    write_register(dev, MFRC522_FIFO_LEVEL_REG, 0x80); // Flush FIFO
    return (len != 0);
}
    1642:	0f 90       	pop	r0
    1644:	0f 90       	pop	r0
    1646:	0f 90       	pop	r0
    1648:	0f 90       	pop	r0
    164a:	0f 90       	pop	r0
    164c:	df 91       	pop	r29
    164e:	cf 91       	pop	r28
    1650:	1f 91       	pop	r17
    1652:	0f 91       	pop	r16
    1654:	08 95       	ret

00001656 <.L19>:
    uint8_t len = read_register(dev, MFRC522_FIFO_LEVEL_REG);
    1656:	2a e0       	ldi	r18, 0x0A	; 10
    1658:	49 81       	ldd	r20, Y+1	; 0x01
    165a:	5a 81       	ldd	r21, Y+2	; 0x02
    165c:	6b 81       	ldd	r22, Y+3	; 0x03
    165e:	7c 81       	ldd	r23, Y+4	; 0x04
    1660:	8d 81       	ldd	r24, Y+5	; 0x05
    1662:	0e 94 aa 09 	call	0x1354	; 0x1354 <read_register>

00001666 <.LVL47>:
    1666:	18 2f       	mov	r17, r24

00001668 <.Loc.113>:
    write_register(dev, MFRC522_FIFO_LEVEL_REG, 0x80); // Flush FIFO
    1668:	00 e8       	ldi	r16, 0x80	; 128
    166a:	2a e0       	ldi	r18, 0x0A	; 10
    166c:	49 81       	ldd	r20, Y+1	; 0x01
    166e:	5a 81       	ldd	r21, Y+2	; 0x02
    1670:	6b 81       	ldd	r22, Y+3	; 0x03
    1672:	7c 81       	ldd	r23, Y+4	; 0x04
    1674:	8d 81       	ldd	r24, Y+5	; 0x05
    1676:	0e 94 e3 09 	call	0x13c6	; 0x13c6 <write_register>

0000167a <.LVL49>:
    return (len != 0);
    167a:	81 e0       	ldi	r24, 0x01	; 1
    167c:	11 11       	cpse	r17, r1
    167e:	e1 cf       	rjmp	.-62     	; 0x1642 <.L12>
    1680:	80 e0       	ldi	r24, 0x00	; 0
    1682:	df cf       	rjmp	.-66     	; 0x1642 <.L12>

00001684 <rfid_tag_detected>:

bool rfid_tag_detected(spi_device dev){
    1684:	cf 93       	push	r28
    1686:	df 93       	push	r29
    1688:	00 d0       	rcall	.+0      	; 0x168a <L0^A>

0000168a <L0^A>:
    168a:	0f 92       	push	r0
    168c:	0f 92       	push	r0
    168e:	cd b7       	in	r28, 0x3d	; 61
    1690:	de b7       	in	r29, 0x3e	; 62
    1692:	49 83       	std	Y+1, r20	; 0x01
    1694:	5a 83       	std	Y+2, r21	; 0x02
    1696:	6b 83       	std	Y+3, r22	; 0x03
    1698:	7c 83       	std	Y+4, r23	; 0x04
    169a:	8d 83       	std	Y+5, r24	; 0x05

0000169c <.Loc.117>:
    for(int i = 0; i < 2; i++){
        if(rfid_check_tag_present(dev)){
    169c:	0e 94 d0 0a 	call	0x15a0	; 0x15a0 <rfid_check_tag_present>

000016a0 <.LVL51>:
    16a0:	81 11       	cpse	r24, r1
    16a2:	1d c0       	rjmp	.+58     	; 0x16de <.L21>

000016a4 <.LBI7>:
    16a4:	8f e9       	ldi	r24, 0x9F	; 159
    16a6:	9f e0       	ldi	r25, 0x0F	; 15

000016a8 <.L1^B4>:
    16a8:	01 97       	sbiw	r24, 0x01	; 1
    16aa:	f1 f7       	brne	.-4      	; 0x16a8 <.L1^B4>
    16ac:	00 c0       	rjmp	.+0      	; 0x16ae <L0^A>

000016ae <L0^A>:
	...

000016b0 <.Loc.131>:
    16b0:	49 81       	ldd	r20, Y+1	; 0x01
    16b2:	5a 81       	ldd	r21, Y+2	; 0x02
    16b4:	6b 81       	ldd	r22, Y+3	; 0x03
    16b6:	7c 81       	ldd	r23, Y+4	; 0x04
    16b8:	8d 81       	ldd	r24, Y+5	; 0x05
    16ba:	0e 94 d0 0a 	call	0x15a0	; 0x15a0 <rfid_check_tag_present>

000016be <.LVL54>:
    16be:	81 11       	cpse	r24, r1
    16c0:	0e c0       	rjmp	.+28     	; 0x16de <.L21>

000016c2 <.Loc.137>:
    16c2:	ef e9       	ldi	r30, 0x9F	; 159
    16c4:	ff e0       	ldi	r31, 0x0F	; 15

000016c6 <.L1^B5>:
    16c6:	31 97       	sbiw	r30, 0x01	; 1
    16c8:	f1 f7       	brne	.-4      	; 0x16c6 <.L1^B5>
    16ca:	00 c0       	rjmp	.+0      	; 0x16cc <L0^A>

000016cc <L0^A>:
	...

000016ce <.L20>:
        }
        // Very short delay needed, can be replaced with short timer
        _delay_ms(1);
    }
    return 0;
}
    16ce:	0f 90       	pop	r0
    16d0:	0f 90       	pop	r0
    16d2:	0f 90       	pop	r0
    16d4:	0f 90       	pop	r0
    16d6:	0f 90       	pop	r0
    16d8:	df 91       	pop	r29
    16da:	cf 91       	pop	r28
    16dc:	08 95       	ret

000016de <.L21>:
            return 1;
    16de:	81 e0       	ldi	r24, 0x01	; 1
    16e0:	f6 cf       	rjmp	.-20     	; 0x16ce <.L20>

000016e2 <__vector_23>:
    16e2:	1f 92       	push	r1
    16e4:	1f b6       	in	r1, 0x3f	; 63
    16e6:	1f 92       	push	r1
    16e8:	11 24       	eor	r1, r1
    16ea:	8f 93       	push	r24
    16ec:	8b b7       	in	r24, 0x3b	; 59
    16ee:	8f 93       	push	r24
    16f0:	9f 93       	push	r25
    16f2:	ef 93       	push	r30
    16f4:	ff 93       	push	r31

000016f6 <.Loc.1>:
    16f6:	80 91 a3 02 	lds	r24, 0x02A3	; 0x8002a3 <step_count_left>
    16fa:	90 91 a4 02 	lds	r25, 0x02A4	; 0x8002a4 <step_count_left+0x1>

000016fe <.Loc.3>:
    16fe:	18 16       	cp	r1, r24
    1700:	19 06       	cpc	r1, r25
    1702:	9c f4       	brge	.+38     	; 0x172a <.L2>

00001704 <.Loc.4>:
    1704:	80 91 a3 02 	lds	r24, 0x02A3	; 0x8002a3 <step_count_left>
    1708:	90 91 a4 02 	lds	r25, 0x02A4	; 0x8002a4 <step_count_left+0x1>
    170c:	01 97       	sbiw	r24, 0x01	; 1
    170e:	90 93 a4 02 	sts	0x02A4, r25	; 0x8002a4 <step_count_left+0x1>
    1712:	80 93 a3 02 	sts	0x02A3, r24	; 0x8002a3 <step_count_left>

00001716 <.L1>:
    1716:	ff 91       	pop	r31
    1718:	ef 91       	pop	r30
    171a:	9f 91       	pop	r25
    171c:	8f 91       	pop	r24
    171e:	8b bf       	out	0x3b, r24	; 59
    1720:	8f 91       	pop	r24
    1722:	1f 90       	pop	r1
    1724:	1f be       	out	0x3f, r1	; 63
    1726:	1f 90       	pop	r1
    1728:	18 95       	reti

0000172a <.L2>:
    172a:	80 91 a3 02 	lds	r24, 0x02A3	; 0x8002a3 <step_count_left>
    172e:	90 91 a4 02 	lds	r25, 0x02A4	; 0x8002a4 <step_count_left+0x1>

00001732 <.Loc.9>:
    1732:	89 2b       	or	r24, r25
    1734:	81 f7       	brne	.-32     	; 0x1716 <.L1>

00001736 <.Loc.10>:
    1736:	8f ef       	ldi	r24, 0xFF	; 255
    1738:	9f ef       	ldi	r25, 0xFF	; 255
    173a:	90 93 a4 02 	sts	0x02A4, r25	; 0x8002a4 <step_count_left+0x1>
    173e:	80 93 a3 02 	sts	0x02A3, r24	; 0x8002a3 <step_count_left>

00001742 <.Loc.12>:
    1742:	90 93 a2 02 	sts	0x02A2, r25	; 0x8002a2 <step_count_right+0x1>
    1746:	80 93 a1 02 	sts	0x02A1, r24	; 0x8002a1 <step_count_right>

0000174a <.Loc.14>:
    174a:	ee e6       	ldi	r30, 0x6E	; 110
    174c:	f0 e0       	ldi	r31, 0x00	; 0
    174e:	80 81       	ld	r24, Z
    1750:	8e 7f       	andi	r24, 0xFE	; 254
    1752:	80 83       	st	Z, r24

00001754 <.Loc.16>:
    1754:	e0 e7       	ldi	r30, 0x70	; 112
    1756:	f0 e0       	ldi	r31, 0x00	; 0
    1758:	80 81       	ld	r24, Z
    175a:	8e 7f       	andi	r24, 0xFE	; 254
    175c:	80 83       	st	Z, r24

0000175e <.Loc.18>:
    175e:	db cf       	rjmp	.-74     	; 0x1716 <.L1>

00001760 <__vector_15>:
    1760:	1f 92       	push	r1
    1762:	1f b6       	in	r1, 0x3f	; 63
    1764:	1f 92       	push	r1
    1766:	11 24       	eor	r1, r1
    1768:	8f 93       	push	r24
    176a:	8b b7       	in	r24, 0x3b	; 59
    176c:	8f 93       	push	r24
    176e:	9f 93       	push	r25
    1770:	ef 93       	push	r30
    1772:	ff 93       	push	r31

00001774 <.Loc.20>:
    1774:	80 91 a1 02 	lds	r24, 0x02A1	; 0x8002a1 <step_count_right>
    1778:	90 91 a2 02 	lds	r25, 0x02A2	; 0x8002a2 <step_count_right+0x1>

0000177c <.Loc.22>:
    177c:	18 16       	cp	r1, r24
    177e:	19 06       	cpc	r1, r25
    1780:	9c f4       	brge	.+38     	; 0x17a8 <.L5>

00001782 <.Loc.23>:
    1782:	80 91 a1 02 	lds	r24, 0x02A1	; 0x8002a1 <step_count_right>
    1786:	90 91 a2 02 	lds	r25, 0x02A2	; 0x8002a2 <step_count_right+0x1>
    178a:	01 97       	sbiw	r24, 0x01	; 1
    178c:	90 93 a2 02 	sts	0x02A2, r25	; 0x8002a2 <step_count_right+0x1>
    1790:	80 93 a1 02 	sts	0x02A1, r24	; 0x8002a1 <step_count_right>

00001794 <.L4>:
    1794:	ff 91       	pop	r31
    1796:	ef 91       	pop	r30
    1798:	9f 91       	pop	r25
    179a:	8f 91       	pop	r24
    179c:	8b bf       	out	0x3b, r24	; 59
    179e:	8f 91       	pop	r24
    17a0:	1f 90       	pop	r1
    17a2:	1f be       	out	0x3f, r1	; 63
    17a4:	1f 90       	pop	r1
    17a6:	18 95       	reti

000017a8 <.L5>:
    17a8:	80 91 a1 02 	lds	r24, 0x02A1	; 0x8002a1 <step_count_right>
    17ac:	90 91 a2 02 	lds	r25, 0x02A2	; 0x8002a2 <step_count_right+0x1>

000017b0 <.Loc.28>:
    17b0:	89 2b       	or	r24, r25
    17b2:	81 f7       	brne	.-32     	; 0x1794 <.L4>

000017b4 <.Loc.29>:
    17b4:	8f ef       	ldi	r24, 0xFF	; 255
    17b6:	9f ef       	ldi	r25, 0xFF	; 255
    17b8:	90 93 a4 02 	sts	0x02A4, r25	; 0x8002a4 <step_count_left+0x1>
    17bc:	80 93 a3 02 	sts	0x02A3, r24	; 0x8002a3 <step_count_left>

000017c0 <.Loc.31>:
    17c0:	90 93 a2 02 	sts	0x02A2, r25	; 0x8002a2 <step_count_right+0x1>
    17c4:	80 93 a1 02 	sts	0x02A1, r24	; 0x8002a1 <step_count_right>

000017c8 <.Loc.33>:
    17c8:	ee e6       	ldi	r30, 0x6E	; 110
    17ca:	f0 e0       	ldi	r31, 0x00	; 0
    17cc:	80 81       	ld	r24, Z
    17ce:	8e 7f       	andi	r24, 0xFE	; 254
    17d0:	80 83       	st	Z, r24

000017d2 <.Loc.35>:
    17d2:	e0 e7       	ldi	r30, 0x70	; 112
    17d4:	f0 e0       	ldi	r31, 0x00	; 0
    17d6:	80 81       	ld	r24, Z
    17d8:	8e 7f       	andi	r24, 0xFE	; 254
    17da:	80 83       	st	Z, r24

000017dc <.Loc.37>:
    17dc:	db cf       	rjmp	.-74     	; 0x1794 <.L4>

000017de <__vector_50>:
    17de:	1f 92       	push	r1
    17e0:	1f b6       	in	r1, 0x3f	; 63
    17e2:	1f 92       	push	r1
    17e4:	11 24       	eor	r1, r1
    17e6:	2f 93       	push	r18
    17e8:	2b b7       	in	r18, 0x3b	; 59
    17ea:	2f 93       	push	r18
    17ec:	3f 93       	push	r19
    17ee:	8f 93       	push	r24
    17f0:	9f 93       	push	r25
    17f2:	ef 93       	push	r30
    17f4:	ff 93       	push	r31

000017f6 <.Loc.39>:
    17f6:	80 91 a0 02 	lds	r24, 0x02A0	; 0x8002a0 <direction_change_left>

000017fa <.Loc.43>:
    17fa:	88 23       	and	r24, r24
    17fc:	09 f4       	brne	.+2      	; 0x1800 <.Loc.44>

000017fe <L0^A>:
    17fe:	56 c0       	rjmp	.+172    	; 0x18ac <.L8>

00001800 <.Loc.44>:
    1800:	87 b5       	in	r24, 0x27	; 39

00001802 <.Loc.46>:
    1802:	8f 3f       	cpi	r24, 0xFF	; 255
    1804:	39 f1       	breq	.+78     	; 0x1854 <.L9>

00001806 <.Loc.47>:
    1806:	87 b5       	in	r24, 0x27	; 39

00001808 <.Loc.49>:
    1808:	8e 3e       	cpi	r24, 0xEE	; 238
    180a:	00 f1       	brcs	.+64     	; 0x184c <.L10>

0000180c <.Loc.50>:
    180c:	8f ef       	ldi	r24, 0xFF	; 255
    180e:	87 bd       	out	0x27, r24	; 39

00001810 <.L11>:
    1810:	80 91 9f 02 	lds	r24, 0x029F	; 0x80029f <direction_change_right>

00001814 <.Loc.54>:
    1814:	88 23       	and	r24, r24
    1816:	09 f4       	brne	.+2      	; 0x181a <.Loc.55>

00001818 <L0^A>:
    1818:	b4 c0       	rjmp	.+360    	; 0x1982 <.L18>

0000181a <.Loc.55>:
    181a:	80 91 b3 00 	lds	r24, 0x00B3	; 0x8000b3 <__TEXT_REGION_LENGTH__+0x7000b3>

0000181e <.Loc.57>:
    181e:	8f 3f       	cpi	r24, 0xFF	; 255
    1820:	09 f4       	brne	.+2      	; 0x1824 <.Loc.58>

00001822 <L0^A>:
    1822:	8a c0       	rjmp	.+276    	; 0x1938 <.L19>

00001824 <.Loc.58>:
    1824:	80 91 b3 00 	lds	r24, 0x00B3	; 0x8000b3 <__TEXT_REGION_LENGTH__+0x7000b3>

00001828 <.Loc.60>:
    1828:	8e 3e       	cpi	r24, 0xEE	; 238
    182a:	08 f4       	brcc	.+2      	; 0x182e <.Loc.61>

0000182c <L0^A>:
    182c:	7f c0       	rjmp	.+254    	; 0x192c <.L20>

0000182e <.Loc.61>:
    182e:	8f ef       	ldi	r24, 0xFF	; 255
    1830:	80 93 b3 00 	sts	0x00B3, r24	; 0x8000b3 <__TEXT_REGION_LENGTH__+0x7000b3>

00001834 <.L7>:
    1834:	ff 91       	pop	r31
    1836:	ef 91       	pop	r30
    1838:	9f 91       	pop	r25
    183a:	8f 91       	pop	r24
    183c:	3f 91       	pop	r19
    183e:	2f 91       	pop	r18
    1840:	2b bf       	out	0x3b, r18	; 59
    1842:	2f 91       	pop	r18
    1844:	1f 90       	pop	r1
    1846:	1f be       	out	0x3f, r1	; 63
    1848:	1f 90       	pop	r1
    184a:	18 95       	reti

0000184c <.L10>:
    184c:	87 b5       	in	r24, 0x27	; 39

0000184e <.Loc.65>:
    184e:	8e 5e       	subi	r24, 0xEE	; 238
    1850:	87 bd       	out	0x27, r24	; 39
    1852:	de cf       	rjmp	.-68     	; 0x1810 <.L11>

00001854 <.L9>:
    1854:	e2 e0       	ldi	r30, 0x02	; 2
    1856:	f1 e0       	ldi	r31, 0x01	; 1
    1858:	80 81       	ld	r24, Z

0000185a <.Loc.67>:
    185a:	88 60       	ori	r24, 0x08	; 8
    185c:	80 83       	st	Z, r24

0000185e <.Loc.68>:
    185e:	80 91 a0 02 	lds	r24, 0x02A0	; 0x8002a0 <direction_change_left>

00001862 <.Loc.70>:
    1862:	83 30       	cpi	r24, 0x03	; 3
    1864:	f9 f0       	breq	.+62     	; 0x18a4 <.L28>

00001866 <.Loc.71>:
    1866:	80 91 a0 02 	lds	r24, 0x02A0	; 0x8002a0 <direction_change_left>

0000186a <.Loc.73>:
    186a:	81 30       	cpi	r24, 0x01	; 1
    186c:	e9 f0       	breq	.+58     	; 0x18a8 <.L29>

0000186e <.L13>:
    186e:	80 91 ab 02 	lds	r24, 0x02AB	; 0x8002ab <count1.3>
    1872:	90 91 ac 02 	lds	r25, 0x02AC	; 0x8002ac <count1.3+0x1>
    1876:	01 96       	adiw	r24, 0x01	; 1
    1878:	90 93 ac 02 	sts	0x02AC, r25	; 0x8002ac <count1.3+0x1>
    187c:	80 93 ab 02 	sts	0x02AB, r24	; 0x8002ab <count1.3>

00001880 <.Loc.76>:
    1880:	04 97       	sbiw	r24, 0x04	; 4
    1882:	34 f2       	brlt	.-116    	; 0x1810 <.L11>

00001884 <.Loc.78>:
    1884:	80 91 a0 02 	lds	r24, 0x02A0	; 0x8002a0 <direction_change_left>

00001888 <.Loc.80>:
    1888:	82 30       	cpi	r24, 0x02	; 2
    188a:	39 f0       	breq	.+14     	; 0x189a <.L14>

0000188c <.Loc.81>:
    188c:	e2 e0       	ldi	r30, 0x02	; 2
    188e:	f1 e0       	ldi	r31, 0x01	; 1
    1890:	80 81       	ld	r24, Z
    1892:	87 7f       	andi	r24, 0xF7	; 247
    1894:	80 83       	st	Z, r24

00001896 <.Loc.83>:
    1896:	10 92 a0 02 	sts	0x02A0, r1	; 0x8002a0 <direction_change_left>

0000189a <.L14>:
    189a:	10 92 ac 02 	sts	0x02AC, r1	; 0x8002ac <count1.3+0x1>
    189e:	10 92 ab 02 	sts	0x02AB, r1	; 0x8002ab <count1.3>
    18a2:	b6 cf       	rjmp	.-148    	; 0x1810 <.L11>

000018a4 <.L28>:
    18a4:	73 98       	cbi	0x0e, 3	; 14
    18a6:	e3 cf       	rjmp	.-58     	; 0x186e <.L13>

000018a8 <.L29>:
    18a8:	73 9a       	sbi	0x0e, 3	; 14
    18aa:	e1 cf       	rjmp	.-62     	; 0x186e <.L13>

000018ac <.L8>:
    18ac:	e2 e0       	ldi	r30, 0x02	; 2
    18ae:	f1 e0       	ldi	r31, 0x01	; 1
    18b0:	80 81       	ld	r24, Z
    18b2:	87 7f       	andi	r24, 0xF7	; 247
    18b4:	80 83       	st	Z, r24

000018b6 <.Loc.93>:
    18b6:	87 b5       	in	r24, 0x27	; 39

000018b8 <.Loc.95>:
    18b8:	20 91 04 02 	lds	r18, 0x0204	; 0x800204 <freq_target_left>
    18bc:	30 91 05 02 	lds	r19, 0x0205	; 0x800205 <freq_target_left+0x1>

000018c0 <.Loc.96>:
    18c0:	90 e0       	ldi	r25, 0x00	; 0

000018c2 <.Loc.97>:
    18c2:	82 17       	cp	r24, r18
    18c4:	93 07       	cpc	r25, r19
    18c6:	a4 f4       	brge	.+40     	; 0x18f0 <.L15>

000018c8 <.Loc.98>:
    18c8:	87 b5       	in	r24, 0x27	; 39

000018ca <.Loc.100>:
    18ca:	20 91 04 02 	lds	r18, 0x0204	; 0x800204 <freq_target_left>
    18ce:	30 91 05 02 	lds	r19, 0x0205	; 0x800205 <freq_target_left+0x1>

000018d2 <.Loc.101>:
    18d2:	90 e0       	ldi	r25, 0x00	; 0

000018d4 <.Loc.102>:
    18d4:	41 96       	adiw	r24, 0x11	; 17

000018d6 <.Loc.103>:
    18d6:	82 17       	cp	r24, r18
    18d8:	93 07       	cpc	r25, r19
    18da:	34 f0       	brlt	.+12     	; 0x18e8 <.L16>

000018dc <.Loc.104>:
    18dc:	80 91 04 02 	lds	r24, 0x0204	; 0x800204 <freq_target_left>
    18e0:	90 91 05 02 	lds	r25, 0x0205	; 0x800205 <freq_target_left+0x1>
    18e4:	87 bd       	out	0x27, r24	; 39
    18e6:	94 cf       	rjmp	.-216    	; 0x1810 <.L11>

000018e8 <.L16>:
    18e8:	87 b5       	in	r24, 0x27	; 39

000018ea <.Loc.107>:
    18ea:	8e 5e       	subi	r24, 0xEE	; 238
    18ec:	87 bd       	out	0x27, r24	; 39
    18ee:	90 cf       	rjmp	.-224    	; 0x1810 <.L11>

000018f0 <.L15>:
    18f0:	87 b5       	in	r24, 0x27	; 39

000018f2 <.Loc.110>:
    18f2:	20 91 04 02 	lds	r18, 0x0204	; 0x800204 <freq_target_left>
    18f6:	30 91 05 02 	lds	r19, 0x0205	; 0x800205 <freq_target_left+0x1>

000018fa <.Loc.111>:
    18fa:	90 e0       	ldi	r25, 0x00	; 0

000018fc <.Loc.112>:
    18fc:	28 17       	cp	r18, r24
    18fe:	39 07       	cpc	r19, r25
    1900:	0c f0       	brlt	.+2      	; 0x1904 <.Loc.113>

00001902 <L0^A>:
    1902:	86 cf       	rjmp	.-244    	; 0x1810 <.L11>

00001904 <.Loc.113>:
    1904:	87 b5       	in	r24, 0x27	; 39

00001906 <.Loc.115>:
    1906:	20 91 04 02 	lds	r18, 0x0204	; 0x800204 <freq_target_left>
    190a:	30 91 05 02 	lds	r19, 0x0205	; 0x800205 <freq_target_left+0x1>
    190e:	81 51       	subi	r24, 0x11	; 17
    1910:	99 0b       	sbc	r25, r25

00001912 <.Loc.116>:
    1912:	28 17       	cp	r18, r24
    1914:	39 07       	cpc	r19, r25
    1916:	34 f0       	brlt	.+12     	; 0x1924 <.L17>

00001918 <.Loc.117>:
    1918:	80 91 04 02 	lds	r24, 0x0204	; 0x800204 <freq_target_left>
    191c:	90 91 05 02 	lds	r25, 0x0205	; 0x800205 <freq_target_left+0x1>
    1920:	87 bd       	out	0x27, r24	; 39
    1922:	76 cf       	rjmp	.-276    	; 0x1810 <.L11>

00001924 <.L17>:
    1924:	87 b5       	in	r24, 0x27	; 39

00001926 <.Loc.120>:
    1926:	82 51       	subi	r24, 0x12	; 18
    1928:	87 bd       	out	0x27, r24	; 39
    192a:	72 cf       	rjmp	.-284    	; 0x1810 <.L11>

0000192c <.L20>:
    192c:	e3 eb       	ldi	r30, 0xB3	; 179
    192e:	f0 e0       	ldi	r31, 0x00	; 0
    1930:	80 81       	ld	r24, Z

00001932 <.Loc.122>:
    1932:	8e 5e       	subi	r24, 0xEE	; 238
    1934:	80 83       	st	Z, r24
    1936:	7e cf       	rjmp	.-260    	; 0x1834 <.L7>

00001938 <.L19>:
    1938:	2d 9a       	sbi	0x05, 5	; 5

0000193a <.Loc.125>:
    193a:	80 91 9f 02 	lds	r24, 0x029F	; 0x80029f <direction_change_right>

0000193e <.Loc.127>:
    193e:	81 30       	cpi	r24, 0x01	; 1
    1940:	e1 f0       	breq	.+56     	; 0x197a <.L30>

00001942 <.Loc.128>:
    1942:	80 91 9f 02 	lds	r24, 0x029F	; 0x80029f <direction_change_right>

00001946 <.Loc.130>:
    1946:	83 30       	cpi	r24, 0x03	; 3
    1948:	d1 f0       	breq	.+52     	; 0x197e <.L31>

0000194a <.L23>:
    194a:	80 91 a9 02 	lds	r24, 0x02A9	; 0x8002a9 <count2.2>
    194e:	90 91 aa 02 	lds	r25, 0x02AA	; 0x8002aa <count2.2+0x1>
    1952:	01 96       	adiw	r24, 0x01	; 1
    1954:	90 93 aa 02 	sts	0x02AA, r25	; 0x8002aa <count2.2+0x1>
    1958:	80 93 a9 02 	sts	0x02A9, r24	; 0x8002a9 <count2.2>

0000195c <.Loc.133>:
    195c:	04 97       	sbiw	r24, 0x04	; 4
    195e:	0c f4       	brge	.+2      	; 0x1962 <.Loc.135>

00001960 <L0^A>:
    1960:	69 cf       	rjmp	.-302    	; 0x1834 <.L7>

00001962 <.Loc.135>:
    1962:	80 91 9f 02 	lds	r24, 0x029F	; 0x80029f <direction_change_right>

00001966 <.Loc.137>:
    1966:	82 30       	cpi	r24, 0x02	; 2
    1968:	19 f0       	breq	.+6      	; 0x1970 <.L24>

0000196a <.Loc.138>:
    196a:	2d 98       	cbi	0x05, 5	; 5

0000196c <.Loc.140>:
    196c:	10 92 9f 02 	sts	0x029F, r1	; 0x80029f <direction_change_right>

00001970 <.L24>:
    1970:	10 92 aa 02 	sts	0x02AA, r1	; 0x8002aa <count2.2+0x1>
    1974:	10 92 a9 02 	sts	0x02A9, r1	; 0x8002a9 <count2.2>
    1978:	5d cf       	rjmp	.-326    	; 0x1834 <.L7>

0000197a <.L30>:
    197a:	2c 98       	cbi	0x05, 4	; 5
    197c:	e6 cf       	rjmp	.-52     	; 0x194a <.L23>

0000197e <.L31>:
    197e:	2c 9a       	sbi	0x05, 4	; 5
    1980:	e4 cf       	rjmp	.-56     	; 0x194a <.L23>

00001982 <.L18>:
    1982:	2d 98       	cbi	0x05, 5	; 5

00001984 <.Loc.150>:
    1984:	80 91 b3 00 	lds	r24, 0x00B3	; 0x8000b3 <__TEXT_REGION_LENGTH__+0x7000b3>

00001988 <.Loc.152>:
    1988:	20 91 02 02 	lds	r18, 0x0202	; 0x800202 <freq_target_right>
    198c:	30 91 03 02 	lds	r19, 0x0203	; 0x800203 <freq_target_right+0x1>

00001990 <.Loc.153>:
    1990:	90 e0       	ldi	r25, 0x00	; 0

00001992 <.Loc.154>:
    1992:	82 17       	cp	r24, r18
    1994:	93 07       	cpc	r25, r19
    1996:	c4 f4       	brge	.+48     	; 0x19c8 <.L25>

00001998 <.Loc.155>:
    1998:	80 91 b3 00 	lds	r24, 0x00B3	; 0x8000b3 <__TEXT_REGION_LENGTH__+0x7000b3>

0000199c <.Loc.157>:
    199c:	20 91 02 02 	lds	r18, 0x0202	; 0x800202 <freq_target_right>
    19a0:	30 91 03 02 	lds	r19, 0x0203	; 0x800203 <freq_target_right+0x1>

000019a4 <.Loc.158>:
    19a4:	90 e0       	ldi	r25, 0x00	; 0

000019a6 <.Loc.159>:
    19a6:	41 96       	adiw	r24, 0x11	; 17

000019a8 <.Loc.160>:
    19a8:	82 17       	cp	r24, r18
    19aa:	93 07       	cpc	r25, r19
    19ac:	3c f0       	brlt	.+14     	; 0x19bc <.L26>

000019ae <.Loc.161>:
    19ae:	80 91 02 02 	lds	r24, 0x0202	; 0x800202 <freq_target_right>
    19b2:	90 91 03 02 	lds	r25, 0x0203	; 0x800203 <freq_target_right+0x1>
    19b6:	80 93 b3 00 	sts	0x00B3, r24	; 0x8000b3 <__TEXT_REGION_LENGTH__+0x7000b3>
    19ba:	3c cf       	rjmp	.-392    	; 0x1834 <.L7>

000019bc <.L26>:
    19bc:	e3 eb       	ldi	r30, 0xB3	; 179
    19be:	f0 e0       	ldi	r31, 0x00	; 0
    19c0:	80 81       	ld	r24, Z

000019c2 <.Loc.164>:
    19c2:	8e 5e       	subi	r24, 0xEE	; 238
    19c4:	80 83       	st	Z, r24
    19c6:	36 cf       	rjmp	.-404    	; 0x1834 <.L7>

000019c8 <.L25>:
    19c8:	80 91 b3 00 	lds	r24, 0x00B3	; 0x8000b3 <__TEXT_REGION_LENGTH__+0x7000b3>

000019cc <.Loc.167>:
    19cc:	20 91 02 02 	lds	r18, 0x0202	; 0x800202 <freq_target_right>
    19d0:	30 91 03 02 	lds	r19, 0x0203	; 0x800203 <freq_target_right+0x1>

000019d4 <.Loc.168>:
    19d4:	90 e0       	ldi	r25, 0x00	; 0

000019d6 <.Loc.169>:
    19d6:	28 17       	cp	r18, r24
    19d8:	39 07       	cpc	r19, r25
    19da:	0c f0       	brlt	.+2      	; 0x19de <.Loc.170>

000019dc <L0^A>:
    19dc:	2b cf       	rjmp	.-426    	; 0x1834 <.L7>

000019de <.Loc.170>:
    19de:	80 91 b3 00 	lds	r24, 0x00B3	; 0x8000b3 <__TEXT_REGION_LENGTH__+0x7000b3>

000019e2 <.Loc.172>:
    19e2:	20 91 02 02 	lds	r18, 0x0202	; 0x800202 <freq_target_right>
    19e6:	30 91 03 02 	lds	r19, 0x0203	; 0x800203 <freq_target_right+0x1>
    19ea:	81 51       	subi	r24, 0x11	; 17
    19ec:	99 0b       	sbc	r25, r25

000019ee <.Loc.173>:
    19ee:	28 17       	cp	r18, r24
    19f0:	39 07       	cpc	r19, r25
    19f2:	3c f0       	brlt	.+14     	; 0x1a02 <.L27>

000019f4 <.Loc.174>:
    19f4:	80 91 02 02 	lds	r24, 0x0202	; 0x800202 <freq_target_right>
    19f8:	90 91 03 02 	lds	r25, 0x0203	; 0x800203 <freq_target_right+0x1>
    19fc:	80 93 b3 00 	sts	0x00B3, r24	; 0x8000b3 <__TEXT_REGION_LENGTH__+0x7000b3>
    1a00:	19 cf       	rjmp	.-462    	; 0x1834 <.L7>

00001a02 <.L27>:
    1a02:	e3 eb       	ldi	r30, 0xB3	; 179
    1a04:	f0 e0       	ldi	r31, 0x00	; 0
    1a06:	80 81       	ld	r24, Z

00001a08 <.Loc.177>:
    1a08:	82 51       	subi	r24, 0x12	; 18
    1a0a:	80 83       	st	Z, r24

00001a0c <.Loc.178>:
    1a0c:	13 cf       	rjmp	.-474    	; 0x1834 <.L7>

00001a0e <stepper_speed_left>:
    1a0e:	28 2f       	mov	r18, r24
    1a10:	39 2f       	mov	r19, r25

00001a12 <.Loc.181>:
    1a12:	80 91 a7 02 	lds	r24, 0x02A7	; 0x8002a7 <previous_speed.1>
    1a16:	90 91 a8 02 	lds	r25, 0x02A8	; 0x8002a8 <previous_speed.1+0x1>

00001a1a <.Loc.184>:
    1a1a:	18 16       	cp	r1, r24
    1a1c:	19 06       	cpc	r1, r25
    1a1e:	34 f4       	brge	.+12     	; 0x1a2c <.L40>

00001a20 <.L33>:
    1a20:	33 23       	and	r19, r19
    1a22:	f4 f4       	brge	.+60     	; 0x1a60 <.L36>

00001a24 <.Loc.186>:
    1a24:	83 e0       	ldi	r24, 0x03	; 3
    1a26:	80 93 a0 02 	sts	0x02A0, r24	; 0x8002a0 <direction_change_left>
    1a2a:	06 c0       	rjmp	.+12     	; 0x1a38 <.L37>

00001a2c <.L40>:
    1a2c:	12 16       	cp	r1, r18
    1a2e:	13 06       	cpc	r1, r19
    1a30:	ac f4       	brge	.+42     	; 0x1a5c <.L34>

00001a32 <.Loc.189>:
    1a32:	81 e0       	ldi	r24, 0x01	; 1
    1a34:	80 93 a0 02 	sts	0x02A0, r24	; 0x8002a0 <direction_change_left>

00001a38 <.L37>:
    1a38:	30 93 a8 02 	sts	0x02A8, r19	; 0x8002a8 <previous_speed.1+0x1>
    1a3c:	20 93 a7 02 	sts	0x02A7, r18	; 0x8002a7 <previous_speed.1>

00001a40 <.Loc.192>:
    1a40:	b9 01       	movw	r22, r18
    1a42:	33 23       	and	r19, r19
    1a44:	c4 f0       	brlt	.+48     	; 0x1a76 <.L41>

00001a46 <.L39>:
    1a46:	8d ef       	ldi	r24, 0xFD	; 253
    1a48:	90 e0       	ldi	r25, 0x00	; 0
    1a4a:	0e 94 7f 10 	call	0x20fe	; 0x20fe <__divmodhi4>

00001a4e <.Loc.196>:
    1a4e:	6e 5f       	subi	r22, 0xFE	; 254
    1a50:	7f 4f       	sbci	r23, 0xFF	; 255

00001a52 <.Loc.197>:
    1a52:	70 93 05 02 	sts	0x0205, r23	; 0x800205 <freq_target_left+0x1>
    1a56:	60 93 04 02 	sts	0x0204, r22	; 0x800204 <freq_target_left>

00001a5a <.Loc.198>:
    1a5a:	08 95       	ret

00001a5c <.L34>:
    1a5c:	89 2b       	or	r24, r25
    1a5e:	01 f3       	breq	.-64     	; 0x1a20 <.L33>

00001a60 <.L36>:
    1a60:	21 15       	cp	r18, r1
    1a62:	31 05       	cpc	r19, r1
    1a64:	49 f7       	brne	.-46     	; 0x1a38 <.L37>

00001a66 <.Loc.203>:
    1a66:	82 e0       	ldi	r24, 0x02	; 2
    1a68:	80 93 a0 02 	sts	0x02A0, r24	; 0x8002a0 <direction_change_left>

00001a6c <.Loc.205>:
    1a6c:	10 92 a8 02 	sts	0x02A8, r1	; 0x8002a8 <previous_speed.1+0x1>
    1a70:	10 92 a7 02 	sts	0x02A7, r1	; 0x8002a7 <previous_speed.1>

00001a74 <.Loc.207>:
    1a74:	08 95       	ret

00001a76 <.L41>:
    1a76:	66 27       	eor	r22, r22
    1a78:	77 27       	eor	r23, r23
    1a7a:	62 1b       	sub	r22, r18
    1a7c:	73 0b       	sbc	r23, r19
    1a7e:	e3 cf       	rjmp	.-58     	; 0x1a46 <.L39>

00001a80 <stepper_speed_right>:
    1a80:	28 2f       	mov	r18, r24
    1a82:	39 2f       	mov	r19, r25

00001a84 <.Loc.211>:
    1a84:	80 91 a5 02 	lds	r24, 0x02A5	; 0x8002a5 <previous_speed.0>
    1a88:	90 91 a6 02 	lds	r25, 0x02A6	; 0x8002a6 <previous_speed.0+0x1>

00001a8c <.Loc.214>:
    1a8c:	18 16       	cp	r1, r24
    1a8e:	19 06       	cpc	r1, r25
    1a90:	34 f4       	brge	.+12     	; 0x1a9e <.L50>

00001a92 <.L43>:
    1a92:	33 23       	and	r19, r19
    1a94:	f4 f4       	brge	.+60     	; 0x1ad2 <.L46>

00001a96 <.Loc.216>:
    1a96:	83 e0       	ldi	r24, 0x03	; 3
    1a98:	80 93 9f 02 	sts	0x029F, r24	; 0x80029f <direction_change_right>
    1a9c:	06 c0       	rjmp	.+12     	; 0x1aaa <.L47>

00001a9e <.L50>:
    1a9e:	12 16       	cp	r1, r18
    1aa0:	13 06       	cpc	r1, r19
    1aa2:	ac f4       	brge	.+42     	; 0x1ace <.L44>

00001aa4 <.Loc.219>:
    1aa4:	81 e0       	ldi	r24, 0x01	; 1
    1aa6:	80 93 9f 02 	sts	0x029F, r24	; 0x80029f <direction_change_right>

00001aaa <.L47>:
    1aaa:	30 93 a6 02 	sts	0x02A6, r19	; 0x8002a6 <previous_speed.0+0x1>
    1aae:	20 93 a5 02 	sts	0x02A5, r18	; 0x8002a5 <previous_speed.0>

00001ab2 <.Loc.222>:
    1ab2:	b9 01       	movw	r22, r18
    1ab4:	33 23       	and	r19, r19
    1ab6:	c4 f0       	brlt	.+48     	; 0x1ae8 <.L51>

00001ab8 <.L49>:
    1ab8:	8d ef       	ldi	r24, 0xFD	; 253
    1aba:	90 e0       	ldi	r25, 0x00	; 0
    1abc:	0e 94 7f 10 	call	0x20fe	; 0x20fe <__divmodhi4>

00001ac0 <.Loc.225>:
    1ac0:	6e 5f       	subi	r22, 0xFE	; 254
    1ac2:	7f 4f       	sbci	r23, 0xFF	; 255

00001ac4 <.Loc.226>:
    1ac4:	70 93 03 02 	sts	0x0203, r23	; 0x800203 <freq_target_right+0x1>
    1ac8:	60 93 02 02 	sts	0x0202, r22	; 0x800202 <freq_target_right>

00001acc <.Loc.227>:
    1acc:	08 95       	ret

00001ace <.L44>:
    1ace:	89 2b       	or	r24, r25
    1ad0:	01 f3       	breq	.-64     	; 0x1a92 <.L43>

00001ad2 <.L46>:
    1ad2:	21 15       	cp	r18, r1
    1ad4:	31 05       	cpc	r19, r1
    1ad6:	49 f7       	brne	.-46     	; 0x1aaa <.L47>

00001ad8 <.Loc.232>:
    1ad8:	82 e0       	ldi	r24, 0x02	; 2
    1ada:	80 93 9f 02 	sts	0x029F, r24	; 0x80029f <direction_change_right>

00001ade <.Loc.234>:
    1ade:	10 92 a6 02 	sts	0x02A6, r1	; 0x8002a6 <previous_speed.0+0x1>
    1ae2:	10 92 a5 02 	sts	0x02A5, r1	; 0x8002a5 <previous_speed.0>

00001ae6 <.Loc.236>:
    1ae6:	08 95       	ret

00001ae8 <.L51>:
    1ae8:	66 27       	eor	r22, r22
    1aea:	77 27       	eor	r23, r23
    1aec:	62 1b       	sub	r22, r18
    1aee:	73 0b       	sbc	r23, r19
    1af0:	e3 cf       	rjmp	.-58     	; 0x1ab8 <.L49>

00001af2 <stepper_control>:
    1af2:	0f 93       	push	r16
    1af4:	1f 93       	push	r17
    1af6:	cf 93       	push	r28
    1af8:	df 93       	push	r29
    1afa:	c8 2f       	mov	r28, r24
    1afc:	d9 2f       	mov	r29, r25
    1afe:	26 2f       	mov	r18, r22
    1b00:	37 2f       	mov	r19, r23

00001b02 <.Loc.240>:
    1b02:	89 01       	movw	r16, r18
    1b04:	25 36       	cpi	r18, 0x65	; 101
    1b06:	31 05       	cpc	r19, r1
    1b08:	14 f0       	brlt	.+4      	; 0x1b0e <.L53>
    1b0a:	04 e6       	ldi	r16, 0x64	; 100
    1b0c:	10 e0       	ldi	r17, 0x00	; 0

00001b0e <.L53>:
    1b0e:	0c 39       	cpi	r16, 0x9C	; 156
    1b10:	8f ef       	ldi	r24, 0xFF	; 255
    1b12:	18 07       	cpc	r17, r24
    1b14:	14 f4       	brge	.+4      	; 0x1b1a <.L54>
    1b16:	0c e9       	ldi	r16, 0x9C	; 156
    1b18:	1f ef       	ldi	r17, 0xFF	; 255

00001b1a <.L54>:
    1b1a:	20 97       	sbiw	r28, 0x00	; 0
    1b1c:	09 f4       	brne	.+2      	; 0x1b20 <.Loc.245>

00001b1e <L0^A>:
    1b1e:	46 c0       	rjmp	.+140    	; 0x1bac <.L55>

00001b20 <.Loc.245>:
    1b20:	c5 36       	cpi	r28, 0x65	; 101
    1b22:	d1 05       	cpc	r29, r1
    1b24:	14 f0       	brlt	.+4      	; 0x1b2a <.L56>
    1b26:	c4 e6       	ldi	r28, 0x64	; 100
    1b28:	d0 e0       	ldi	r29, 0x00	; 0

00001b2a <.L56>:
    1b2a:	cc 39       	cpi	r28, 0x9C	; 156
    1b2c:	8f ef       	ldi	r24, 0xFF	; 255
    1b2e:	d8 07       	cpc	r29, r24
    1b30:	14 f4       	brge	.+4      	; 0x1b36 <.L57>
    1b32:	cc e9       	ldi	r28, 0x9C	; 156
    1b34:	df ef       	ldi	r29, 0xFF	; 255

00001b36 <.L57>:
    1b36:	21 15       	cp	r18, r1
    1b38:	31 05       	cpc	r19, r1
    1b3a:	a9 f0       	breq	.+42     	; 0x1b66 <.L62>

00001b3c <.Loc.249>:
    1b3c:	dc f0       	brlt	.+54     	; 0x1b74 <.L63>

00001b3e <.Loc.251>:
    1b3e:	ce 01       	movw	r24, r28
    1b40:	0e 94 07 0d 	call	0x1a0e	; 0x1a0e <stepper_speed_left>

00001b44 <.LVL11>:
    1b44:	0c 9f       	mul	r16, r28
    1b46:	c0 01       	movw	r24, r0
    1b48:	0d 9f       	mul	r16, r29
    1b4a:	90 0d       	add	r25, r0
    1b4c:	1c 9f       	mul	r17, r28
    1b4e:	90 0d       	add	r25, r0
    1b50:	11 24       	eor	r1, r1

00001b52 <.Loc.255>:
    1b52:	6c e9       	ldi	r22, 0x9C	; 156
    1b54:	7f ef       	ldi	r23, 0xFF	; 255
    1b56:	0e 94 7f 10 	call	0x20fe	; 0x20fe <__divmodhi4>

00001b5a <.Loc.256>:
    1b5a:	cb 01       	movw	r24, r22
    1b5c:	8c 0f       	add	r24, r28
    1b5e:	9d 1f       	adc	r25, r29
    1b60:	0e 94 40 0d 	call	0x1a80	; 0x1a80 <stepper_speed_right>

00001b64 <.LVL12>:
    1b64:	2c c0       	rjmp	.+88     	; 0x1bbe <.L59>

00001b66 <.L62>:
    1b66:	ce 01       	movw	r24, r28
    1b68:	0e 94 07 0d 	call	0x1a0e	; 0x1a0e <stepper_speed_left>

00001b6c <.LVL13>:
    1b6c:	ce 01       	movw	r24, r28
    1b6e:	0e 94 40 0d 	call	0x1a80	; 0x1a80 <stepper_speed_right>

00001b72 <.LVL14>:
    1b72:	25 c0       	rjmp	.+74     	; 0x1bbe <.L59>

00001b74 <.L63>:
    1b74:	98 01       	movw	r18, r16
    1b76:	11 23       	and	r17, r17
    1b78:	a4 f0       	brlt	.+40     	; 0x1ba2 <.L64>

00001b7a <.L61>:
    1b7a:	2c 9f       	mul	r18, r28
    1b7c:	c0 01       	movw	r24, r0
    1b7e:	2d 9f       	mul	r18, r29
    1b80:	90 0d       	add	r25, r0
    1b82:	3c 9f       	mul	r19, r28
    1b84:	90 0d       	add	r25, r0
    1b86:	11 24       	eor	r1, r1

00001b88 <.Loc.262>:
    1b88:	6c e9       	ldi	r22, 0x9C	; 156
    1b8a:	7f ef       	ldi	r23, 0xFF	; 255
    1b8c:	0e 94 7f 10 	call	0x20fe	; 0x20fe <__divmodhi4>

00001b90 <.Loc.263>:
    1b90:	cb 01       	movw	r24, r22
    1b92:	8c 0f       	add	r24, r28
    1b94:	9d 1f       	adc	r25, r29
    1b96:	0e 94 07 0d 	call	0x1a0e	; 0x1a0e <stepper_speed_left>

00001b9a <.LVL15>:
    1b9a:	ce 01       	movw	r24, r28
    1b9c:	0e 94 40 0d 	call	0x1a80	; 0x1a80 <stepper_speed_right>

00001ba0 <.LVL16>:
    1ba0:	0e c0       	rjmp	.+28     	; 0x1bbe <.L59>

00001ba2 <.L64>:
    1ba2:	22 27       	eor	r18, r18
    1ba4:	33 27       	eor	r19, r19
    1ba6:	20 1b       	sub	r18, r16
    1ba8:	31 0b       	sbc	r19, r17
    1baa:	e7 cf       	rjmp	.-50     	; 0x1b7a <.L61>

00001bac <.L55>:
    1bac:	c8 01       	movw	r24, r16
    1bae:	0e 94 07 0d 	call	0x1a0e	; 0x1a0e <stepper_speed_left>

00001bb2 <.LVL18>:
    1bb2:	88 27       	eor	r24, r24
    1bb4:	99 27       	eor	r25, r25
    1bb6:	80 1b       	sub	r24, r16
    1bb8:	91 0b       	sbc	r25, r17
    1bba:	0e 94 40 0d 	call	0x1a80	; 0x1a80 <stepper_speed_right>

00001bbe <.L59>:
    1bbe:	8f ef       	ldi	r24, 0xFF	; 255
    1bc0:	9f ef       	ldi	r25, 0xFF	; 255
    1bc2:	90 93 a4 02 	sts	0x02A4, r25	; 0x8002a4 <step_count_left+0x1>
    1bc6:	80 93 a3 02 	sts	0x02A3, r24	; 0x8002a3 <step_count_left>

00001bca <.Loc.271>:
    1bca:	90 93 a2 02 	sts	0x02A2, r25	; 0x8002a2 <step_count_right+0x1>
    1bce:	80 93 a1 02 	sts	0x02A1, r24	; 0x8002a1 <step_count_right>

00001bd2 <.Loc.273>:
    1bd2:	df 91       	pop	r29
    1bd4:	cf 91       	pop	r28
    1bd6:	1f 91       	pop	r17
    1bd8:	0f 91       	pop	r16

00001bda <.Loc.274>:
    1bda:	08 95       	ret

00001bdc <stepper_init>:
    1bdc:	9d 9a       	sbi	0x13, 5	; 19

00001bde <.Loc.278>:
    1bde:	e1 e0       	ldi	r30, 0x01	; 1
    1be0:	f1 e0       	ldi	r31, 0x01	; 1
    1be2:	80 81       	ld	r24, Z

00001be4 <.Loc.279>:
    1be4:	88 60       	ori	r24, 0x08	; 8
    1be6:	80 83       	st	Z, r24

00001be8 <.Loc.280>:
    1be8:	6b 9a       	sbi	0x0d, 3	; 13

00001bea <.Loc.282>:
    1bea:	80 81       	ld	r24, Z

00001bec <.Loc.283>:
    1bec:	80 64       	ori	r24, 0x40	; 64
    1bee:	80 83       	st	Z, r24

00001bf0 <.Loc.284>:
    1bf0:	25 9a       	sbi	0x04, 5	; 4

00001bf2 <.Loc.286>:
    1bf2:	24 9a       	sbi	0x04, 4	; 4

00001bf4 <.Loc.288>:
    1bf4:	e2 e0       	ldi	r30, 0x02	; 2
    1bf6:	f1 e0       	ldi	r31, 0x01	; 1
    1bf8:	80 81       	ld	r24, Z

00001bfa <.Loc.289>:
    1bfa:	88 60       	ori	r24, 0x08	; 8
    1bfc:	80 83       	st	Z, r24

00001bfe <.Loc.290>:
    1bfe:	2d 9a       	sbi	0x05, 5	; 5

00001c00 <.Loc.292>:
    1c00:	73 9a       	sbi	0x0e, 3	; 14

00001c02 <.Loc.294>:
    1c02:	2c 9a       	sbi	0x05, 4	; 5

00001c04 <.Loc.296>:
    1c04:	8f ef       	ldi	r24, 0xFF	; 255
    1c06:	80 93 b3 00 	sts	0x00B3, r24	; 0x8000b3 <__TEXT_REGION_LENGTH__+0x7000b3>

00001c0a <.Loc.298>:
    1c0a:	87 bd       	out	0x27, r24	; 39

00001c0c <.Loc.300>:
    1c0c:	81 e0       	ldi	r24, 0x01	; 1
    1c0e:	88 bd       	out	0x28, r24	; 40

00001c10 <.Loc.302>:
    1c10:	80 93 b4 00 	sts	0x00B4, r24	; 0x8000b4 <__TEXT_REGION_LENGTH__+0x7000b4>

00001c14 <.Loc.304>:
    1c14:	83 e2       	ldi	r24, 0x23	; 35
    1c16:	84 bd       	out	0x24, r24	; 36

00001c18 <.Loc.306>:
    1c18:	9c e0       	ldi	r25, 0x0C	; 12
    1c1a:	95 bd       	out	0x25, r25	; 37

00001c1c <.Loc.308>:
    1c1c:	80 93 b0 00 	sts	0x00B0, r24	; 0x8000b0 <__TEXT_REGION_LENGTH__+0x7000b0>

00001c20 <.Loc.310>:
    1c20:	8e e0       	ldi	r24, 0x0E	; 14
    1c22:	80 93 b1 00 	sts	0x00B1, r24	; 0x8000b1 <__TEXT_REGION_LENGTH__+0x7000b1>

00001c26 <.Loc.312>:
    1c26:	60 e0       	ldi	r22, 0x00	; 0
    1c28:	70 e0       	ldi	r23, 0x00	; 0
    1c2a:	80 e0       	ldi	r24, 0x00	; 0
    1c2c:	90 e0       	ldi	r25, 0x00	; 0
    1c2e:	0e 94 79 0d 	call	0x1af2	; 0x1af2 <stepper_control>

00001c32 <.LVL21>:
    1c32:	08 95       	ret

00001c34 <stepper_step_control>:
    1c34:	cf 93       	push	r28
    1c36:	df 93       	push	r29
    1c38:	c4 2f       	mov	r28, r20
    1c3a:	d5 2f       	mov	r29, r21

00001c3c <.Loc.316>:
    1c3c:	21 e0       	ldi	r18, 0x01	; 1
    1c3e:	20 93 6e 00 	sts	0x006E, r18	; 0x80006e <__TEXT_REGION_LENGTH__+0x70006e>

00001c42 <.Loc.318>:
    1c42:	20 93 70 00 	sts	0x0070, r18	; 0x800070 <__TEXT_REGION_LENGTH__+0x700070>

00001c46 <.Loc.320>:
    1c46:	0e 94 79 0d 	call	0x1af2	; 0x1af2 <stepper_control>

00001c4a <.LVL23>:
    1c4a:	d0 93 a4 02 	sts	0x02A4, r29	; 0x8002a4 <step_count_left+0x1>
    1c4e:	c0 93 a3 02 	sts	0x02A3, r28	; 0x8002a3 <step_count_left>

00001c52 <.Loc.323>:
    1c52:	d0 93 a2 02 	sts	0x02A2, r29	; 0x8002a2 <step_count_right+0x1>
    1c56:	c0 93 a1 02 	sts	0x02A1, r28	; 0x8002a1 <step_count_right>

00001c5a <.Loc.325>:
    1c5a:	df 91       	pop	r29
    1c5c:	cf 91       	pop	r28
    1c5e:	08 95       	ret

00001c60 <display_start>:
    1c60:	ea e0       	ldi	r30, 0x0A	; 10
    1c62:	f1 e0       	ldi	r31, 0x01	; 1
    1c64:	80 81       	ld	r24, Z

00001c66 <.Loc.2>:
    1c66:	80 68       	ori	r24, 0x80	; 128
    1c68:	80 83       	st	Z, r24

00001c6a <.Loc.3>:
    1c6a:	eb e0       	ldi	r30, 0x0B	; 11
    1c6c:	f1 e0       	ldi	r31, 0x01	; 1
    1c6e:	80 81       	ld	r24, Z

00001c70 <.Loc.4>:
    1c70:	80 68       	ori	r24, 0x80	; 128
    1c72:	80 83       	st	Z, r24

00001c74 <.Loc.5>:
    1c74:	80 81       	ld	r24, Z

00001c76 <.Loc.6>:
    1c76:	80 62       	ori	r24, 0x20	; 32
    1c78:	80 83       	st	Z, r24

00001c7a <.Loc.7>:
    1c7a:	80 81       	ld	r24, Z
    1c7c:	8f 77       	andi	r24, 0x7F	; 127
    1c7e:	80 83       	st	Z, r24

00001c80 <.Loc.9>:
    1c80:	08 95       	ret

00001c82 <display_stop>:
    1c82:	ea e0       	ldi	r30, 0x0A	; 10
    1c84:	f1 e0       	ldi	r31, 0x01	; 1
    1c86:	80 81       	ld	r24, Z

00001c88 <.Loc.12>:
    1c88:	80 68       	ori	r24, 0x80	; 128
    1c8a:	80 83       	st	Z, r24

00001c8c <.Loc.13>:
    1c8c:	eb e0       	ldi	r30, 0x0B	; 11
    1c8e:	f1 e0       	ldi	r31, 0x01	; 1
    1c90:	80 81       	ld	r24, Z
    1c92:	8f 7d       	andi	r24, 0xDF	; 223
    1c94:	80 83       	st	Z, r24

00001c96 <.Loc.15>:
    1c96:	80 81       	ld	r24, Z

00001c98 <.Loc.16>:
    1c98:	80 62       	ori	r24, 0x20	; 32
    1c9a:	80 83       	st	Z, r24

00001c9c <.Loc.17>:
    1c9c:	80 81       	ld	r24, Z

00001c9e <.Loc.18>:
    1c9e:	80 68       	ori	r24, 0x80	; 128
    1ca0:	80 83       	st	Z, r24

00001ca2 <.Loc.19>:
    1ca2:	08 95       	ret

00001ca4 <display_sendbyte>:
    1ca4:	ea e0       	ldi	r30, 0x0A	; 10
    1ca6:	f1 e0       	ldi	r31, 0x01	; 1
    1ca8:	90 81       	ld	r25, Z

00001caa <.Loc.22>:
    1caa:	90 68       	ori	r25, 0x80	; 128
    1cac:	90 83       	st	Z, r25

00001cae <.Loc.23>:
    1cae:	28 e0       	ldi	r18, 0x08	; 8
    1cb0:	30 e0       	ldi	r19, 0x00	; 0

00001cb2 <.Loc.27>:
    1cb2:	eb e0       	ldi	r30, 0x0B	; 11
    1cb4:	f1 e0       	ldi	r31, 0x01	; 1
    1cb6:	0c c0       	rjmp	.+24     	; 0x1cd0 <.L6>

00001cb8 <.L4>:
    1cb8:	90 81       	ld	r25, Z
    1cba:	9f 77       	andi	r25, 0x7F	; 127
    1cbc:	90 83       	st	Z, r25

00001cbe <.L5>:
    1cbe:	90 81       	ld	r25, Z

00001cc0 <.Loc.31>:
    1cc0:	90 62       	ori	r25, 0x20	; 32
    1cc2:	90 83       	st	Z, r25

00001cc4 <.Loc.32>:
    1cc4:	86 95       	lsr	r24

00001cc6 <.Loc.34>:
    1cc6:	21 50       	subi	r18, 0x01	; 1
    1cc8:	31 09       	sbc	r19, r1

00001cca <.Loc.36>:
    1cca:	21 15       	cp	r18, r1
    1ccc:	31 05       	cpc	r19, r1
    1cce:	49 f0       	breq	.+18     	; 0x1ce2 <.L8>

00001cd0 <.L6>:
    1cd0:	90 81       	ld	r25, Z
    1cd2:	9f 7d       	andi	r25, 0xDF	; 223
    1cd4:	90 83       	st	Z, r25

00001cd6 <.Loc.39>:
    1cd6:	80 ff       	sbrs	r24, 0
    1cd8:	ef cf       	rjmp	.-34     	; 0x1cb8 <.L4>

00001cda <.Loc.41>:
    1cda:	90 81       	ld	r25, Z

00001cdc <.Loc.42>:
    1cdc:	90 68       	ori	r25, 0x80	; 128
    1cde:	90 83       	st	Z, r25
    1ce0:	ee cf       	rjmp	.-36     	; 0x1cbe <.L5>

00001ce2 <.L8>:
    1ce2:	eb e0       	ldi	r30, 0x0B	; 11
    1ce4:	f1 e0       	ldi	r31, 0x01	; 1
    1ce6:	80 81       	ld	r24, Z

00001ce8 <.Loc.46>:
    1ce8:	8f 7d       	andi	r24, 0xDF	; 223
    1cea:	80 83       	st	Z, r24

00001cec <.Loc.47>:
    1cec:	80 81       	ld	r24, Z

00001cee <.Loc.48>:
    1cee:	80 62       	ori	r24, 0x20	; 32
    1cf0:	80 83       	st	Z, r24

00001cf2 <.Loc.49>:
    1cf2:	08 95       	ret

00001cf4 <display_brightness>:
    1cf4:	cf 93       	push	r28
    1cf6:	c8 2f       	mov	r28, r24

00001cf8 <.Loc.52>:
    1cf8:	0e 94 30 0e 	call	0x1c60	; 0x1c60 <display_start>

00001cfc <.LVL8>:
    1cfc:	8c 2f       	mov	r24, r28
    1cfe:	87 70       	andi	r24, 0x07	; 7
    1d00:	88 68       	ori	r24, 0x88	; 136
    1d02:	0e 94 52 0e 	call	0x1ca4	; 0x1ca4 <display_sendbyte>

00001d06 <.LVL9>:
    1d06:	0e 94 41 0e 	call	0x1c82	; 0x1c82 <display_stop>

00001d0a <.LVL10>:
    1d0a:	cf 91       	pop	r28

00001d0c <.Loc.56>:
    1d0c:	08 95       	ret

00001d0e <display_number>:
    1d0e:	ef 92       	push	r14
    1d10:	ff 92       	push	r15
    1d12:	1f 93       	push	r17
    1d14:	cf 93       	push	r28
    1d16:	df 93       	push	r29
    1d18:	d8 2f       	mov	r29, r24
    1d1a:	c9 2f       	mov	r28, r25

00001d1c <.Loc.59>:
    1d1c:	0e 94 30 0e 	call	0x1c60	; 0x1c60 <display_start>

00001d20 <.LVL13>:
    1d20:	80 e4       	ldi	r24, 0x40	; 64
    1d22:	0e 94 52 0e 	call	0x1ca4	; 0x1ca4 <display_sendbyte>

00001d26 <.LVL14>:
    1d26:	0e 94 41 0e 	call	0x1c82	; 0x1c82 <display_stop>

00001d2a <.LVL15>:
    1d2a:	13 ec       	ldi	r17, 0xC3	; 195

00001d2c <.Loc.66>:
    1d2c:	0f 2e       	mov	r0, r31
    1d2e:	fa e0       	ldi	r31, 0x0A	; 10
    1d30:	ef 2e       	mov	r14, r31
    1d32:	f1 2c       	mov	r15, r1
    1d34:	f0 2d       	mov	r31, r0

00001d36 <.L11>:
    1d36:	0e 94 30 0e 	call	0x1c60	; 0x1c60 <display_start>

00001d3a <.LVL17>:
    1d3a:	81 2f       	mov	r24, r17
    1d3c:	0e 94 52 0e 	call	0x1ca4	; 0x1ca4 <display_sendbyte>

00001d40 <.LVL18>:
    1d40:	8d 2f       	mov	r24, r29
    1d42:	9c 2f       	mov	r25, r28
    1d44:	b7 01       	movw	r22, r14
    1d46:	0e 94 7f 10 	call	0x20fe	; 0x20fe <__divmodhi4>
    1d4a:	d6 2f       	mov	r29, r22

00001d4c <.Loc.71>:
    1d4c:	c7 2f       	mov	r28, r23

00001d4e <.Loc.72>:
    1d4e:	fc 01       	movw	r30, r24
    1d50:	ec 5d       	subi	r30, 0xDC	; 220
    1d52:	fd 4f       	sbci	r31, 0xFD	; 253

00001d54 <.Loc.73>:
    1d54:	80 81       	ld	r24, Z
    1d56:	0e 94 52 0e 	call	0x1ca4	; 0x1ca4 <display_sendbyte>

00001d5a <.LVL20>:
    1d5a:	0e 94 41 0e 	call	0x1c82	; 0x1c82 <display_stop>

00001d5e <.LVL21>:
    1d5e:	11 50       	subi	r17, 0x01	; 1
    1d60:	1f 3b       	cpi	r17, 0xBF	; 191
    1d62:	49 f7       	brne	.-46     	; 0x1d36 <.L11>

00001d64 <.Loc.78>:
    1d64:	df 91       	pop	r29

00001d66 <.Loc.79>:
    1d66:	cf 91       	pop	r28
    1d68:	1f 91       	pop	r17
    1d6a:	ff 90       	pop	r15
    1d6c:	ef 90       	pop	r14
    1d6e:	08 95       	ret

00001d70 <display_metal_and_non_metal>:
    1d70:	ef 92       	push	r14
    1d72:	ff 92       	push	r15
    1d74:	0f 93       	push	r16
    1d76:	1f 93       	push	r17
    1d78:	cf 93       	push	r28
    1d7a:	df 93       	push	r29
    1d7c:	00 d0       	rcall	.+0      	; 0x1d7e <L0^A>

00001d7e <L0^A>:
    1d7e:	00 d0       	rcall	.+0      	; 0x1d80 <L0^A>

00001d80 <L0^A>:
    1d80:	0f 92       	push	r0
    1d82:	0f 92       	push	r0
    1d84:	cd b7       	in	r28, 0x3d	; 61
    1d86:	de b7       	in	r29, 0x3e	; 62

00001d88 <.Loc.82>:
    1d88:	e8 2e       	mov	r14, r24
    1d8a:	f9 2e       	mov	r15, r25
    1d8c:	84 e6       	ldi	r24, 0x64	; 100
    1d8e:	e8 16       	cp	r14, r24
    1d90:	f1 04       	cpc	r15, r1

00001d92 <.Loc.84>:
    1d92:	2c f0       	brlt	.+10     	; 0x1d9e <.L14>
    1d94:	0f 2e       	mov	r0, r31
    1d96:	f3 e6       	ldi	r31, 0x63	; 99
    1d98:	ef 2e       	mov	r14, r31
    1d9a:	f1 2c       	mov	r15, r1
    1d9c:	f0 2d       	mov	r31, r0

00001d9e <.L14>:
    1d9e:	ff 20       	and	r15, r15
    1da0:	0c f4       	brge	.+2      	; 0x1da4 <.L15>

00001da2 <L0^A>:
    1da2:	47 c0       	rjmp	.+142    	; 0x1e32 <.L20>

00001da4 <.L15>:
    1da4:	06 2f       	mov	r16, r22
    1da6:	17 2f       	mov	r17, r23
    1da8:	04 36       	cpi	r16, 0x64	; 100
    1daa:	11 05       	cpc	r17, r1
    1dac:	14 f0       	brlt	.+4      	; 0x1db2 <.L16>
    1dae:	03 e6       	ldi	r16, 0x63	; 99
    1db0:	10 e0       	ldi	r17, 0x00	; 0

00001db2 <.L16>:
    1db2:	11 23       	and	r17, r17
    1db4:	0c f4       	brge	.+2      	; 0x1db8 <.L17>

00001db6 <L0^A>:
    1db6:	40 c0       	rjmp	.+128    	; 0x1e38 <.L21>

00001db8 <.L17>:
    1db8:	0e 94 30 0e 	call	0x1c60	; 0x1c60 <display_start>

00001dbc <.LVL27>:
    1dbc:	80 e4       	ldi	r24, 0x40	; 64
    1dbe:	0e 94 52 0e 	call	0x1ca4	; 0x1ca4 <display_sendbyte>

00001dc2 <.LVL28>:
    1dc2:	0e 94 41 0e 	call	0x1c82	; 0x1c82 <display_stop>

00001dc6 <.LVL29>:
    1dc6:	2a e0       	ldi	r18, 0x0A	; 10
    1dc8:	30 e0       	ldi	r19, 0x00	; 0
    1dca:	c7 01       	movw	r24, r14
    1dcc:	b9 01       	movw	r22, r18
    1dce:	0e 94 7f 10 	call	0x20fe	; 0x20fe <__divmodhi4>

00001dd2 <.Loc.93>:
    1dd2:	7a 83       	std	Y+2, r23	; 0x02
    1dd4:	69 83       	std	Y+1, r22	; 0x01

00001dd6 <.Loc.94>:
    1dd6:	9c 83       	std	Y+4, r25	; 0x04
    1dd8:	8b 83       	std	Y+3, r24	; 0x03

00001dda <.Loc.96>:
    1dda:	c8 01       	movw	r24, r16
    1ddc:	b9 01       	movw	r22, r18
    1dde:	0e 94 7f 10 	call	0x20fe	; 0x20fe <__divmodhi4>

00001de2 <.Loc.98>:
    1de2:	7e 83       	std	Y+6, r23	; 0x06
    1de4:	6d 83       	std	Y+5, r22	; 0x05

00001de6 <.Loc.100>:
    1de6:	98 87       	std	Y+8, r25	; 0x08
    1de8:	8f 83       	std	Y+7, r24	; 0x07

00001dea <.Loc.101>:
    1dea:	de 01       	movw	r26, r28
    1dec:	11 96       	adiw	r26, 0x01	; 1
    1dee:	7d 01       	movw	r14, r26

00001df0 <.Loc.104>:
    1df0:	10 ec       	ldi	r17, 0xC0	; 192

00001df2 <.L18>:
    1df2:	0e 94 30 0e 	call	0x1c60	; 0x1c60 <display_start>

00001df6 <.LVL33>:
    1df6:	81 2f       	mov	r24, r17
    1df8:	0e 94 52 0e 	call	0x1ca4	; 0x1ca4 <display_sendbyte>

00001dfc <.LVL34>:
    1dfc:	d7 01       	movw	r26, r14
    1dfe:	ed 91       	ld	r30, X+
    1e00:	fd 91       	ld	r31, X+
    1e02:	7d 01       	movw	r14, r26

00001e04 <.Loc.110>:
    1e04:	ec 5d       	subi	r30, 0xDC	; 220
    1e06:	fd 4f       	sbci	r31, 0xFD	; 253

00001e08 <.Loc.111>:
    1e08:	80 81       	ld	r24, Z
    1e0a:	0e 94 52 0e 	call	0x1ca4	; 0x1ca4 <display_sendbyte>

00001e0e <.LVL35>:
    1e0e:	0e 94 41 0e 	call	0x1c82	; 0x1c82 <display_stop>

00001e12 <.LVL36>:
    1e12:	1f 5f       	subi	r17, 0xFF	; 255
    1e14:	14 3c       	cpi	r17, 0xC4	; 196
    1e16:	69 f7       	brne	.-38     	; 0x1df2 <.L18>

00001e18 <.Loc.115>:
    1e18:	28 96       	adiw	r28, 0x08	; 8
    1e1a:	0f b6       	in	r0, 0x3f	; 63
    1e1c:	f8 94       	cli
    1e1e:	de bf       	out	0x3e, r29	; 62
    1e20:	0f be       	out	0x3f, r0	; 63
    1e22:	cd bf       	out	0x3d, r28	; 61
    1e24:	df 91       	pop	r29
    1e26:	cf 91       	pop	r28
    1e28:	1f 91       	pop	r17
    1e2a:	0f 91       	pop	r16

00001e2c <.Loc.116>:
    1e2c:	ff 90       	pop	r15
    1e2e:	ef 90       	pop	r14
    1e30:	08 95       	ret

00001e32 <.L20>:
    1e32:	e1 2c       	mov	r14, r1
    1e34:	f1 2c       	mov	r15, r1
    1e36:	b6 cf       	rjmp	.-148    	; 0x1da4 <.L15>

00001e38 <.L21>:
    1e38:	00 e0       	ldi	r16, 0x00	; 0
    1e3a:	10 e0       	ldi	r17, 0x00	; 0
    1e3c:	bd cf       	rjmp	.-134    	; 0x1db8 <.L17>

00001e3e <display_letter>:
    1e3e:	1f 93       	push	r17
    1e40:	cf 93       	push	r28
    1e42:	df 93       	push	r29
    1e44:	c8 2f       	mov	r28, r24
    1e46:	d9 2f       	mov	r29, r25
    1e48:	16 2f       	mov	r17, r22

00001e4a <.Loc.121>:
    1e4a:	0e 94 30 0e 	call	0x1c60	; 0x1c60 <display_start>

00001e4e <.LVL41>:
    1e4e:	80 ec       	ldi	r24, 0xC0	; 192
    1e50:	81 0f       	add	r24, r17
    1e52:	0e 94 52 0e 	call	0x1ca4	; 0x1ca4 <display_sendbyte>

00001e56 <.LVL42>:
    1e56:	c0 5f       	subi	r28, 0xF0	; 240
    1e58:	dd 4f       	sbci	r29, 0xFD	; 253

00001e5a <.Loc.125>:
    1e5a:	88 81       	ld	r24, Y
    1e5c:	0e 94 52 0e 	call	0x1ca4	; 0x1ca4 <display_sendbyte>

00001e60 <.LVL43>:
    1e60:	0e 94 41 0e 	call	0x1c82	; 0x1c82 <display_stop>

00001e64 <.LVL44>:
    1e64:	df 91       	pop	r29
    1e66:	cf 91       	pop	r28
    1e68:	1f 91       	pop	r17

00001e6a <.Loc.128>:
    1e6a:	08 95       	ret

00001e6c <display_init>:
    1e6c:	ea e0       	ldi	r30, 0x0A	; 10
    1e6e:	f1 e0       	ldi	r31, 0x01	; 1
    1e70:	80 81       	ld	r24, Z

00001e72 <.Loc.131>:
    1e72:	80 68       	ori	r24, 0x80	; 128
    1e74:	80 83       	st	Z, r24

00001e76 <.Loc.132>:
    1e76:	80 81       	ld	r24, Z

00001e78 <.Loc.133>:
    1e78:	80 62       	ori	r24, 0x20	; 32
    1e7a:	80 83       	st	Z, r24

00001e7c <.Loc.134>:
    1e7c:	eb e0       	ldi	r30, 0x0B	; 11
    1e7e:	f1 e0       	ldi	r31, 0x01	; 1
    1e80:	80 81       	ld	r24, Z

00001e82 <.Loc.135>:
    1e82:	80 68       	ori	r24, 0x80	; 128
    1e84:	80 83       	st	Z, r24

00001e86 <.Loc.136>:
    1e86:	80 81       	ld	r24, Z

00001e88 <.Loc.137>:
    1e88:	80 62       	ori	r24, 0x20	; 32
    1e8a:	80 83       	st	Z, r24

00001e8c <.Loc.138>:
    1e8c:	82 e0       	ldi	r24, 0x02	; 2
    1e8e:	0e 94 7a 0e 	call	0x1cf4	; 0x1cf4 <display_brightness>

00001e92 <.LVL46>:
    1e92:	08 95       	ret

00001e94 <display_cfg>:
    1e94:	60 e0       	ldi	r22, 0x00	; 0
    1e96:	83 e1       	ldi	r24, 0x13	; 19
    1e98:	90 e0       	ldi	r25, 0x00	; 0
    1e9a:	0e 94 1f 0f 	call	0x1e3e	; 0x1e3e <display_letter>

00001e9e <.LVL47>:
    1e9e:	61 e0       	ldi	r22, 0x01	; 1
    1ea0:	83 e0       	ldi	r24, 0x03	; 3
    1ea2:	90 e0       	ldi	r25, 0x00	; 0
    1ea4:	0e 94 1f 0f 	call	0x1e3e	; 0x1e3e <display_letter>

00001ea8 <.LVL48>:
    1ea8:	62 e0       	ldi	r22, 0x02	; 2
    1eaa:	86 e0       	ldi	r24, 0x06	; 6
    1eac:	90 e0       	ldi	r25, 0x00	; 0
    1eae:	0e 94 1f 0f 	call	0x1e3e	; 0x1e3e <display_letter>

00001eb2 <.LVL49>:
    1eb2:	63 e0       	ldi	r22, 0x03	; 3
    1eb4:	87 e0       	ldi	r24, 0x07	; 7
    1eb6:	90 e0       	ldi	r25, 0x00	; 0
    1eb8:	0e 94 1f 0f 	call	0x1e3e	; 0x1e3e <display_letter>

00001ebc <.LVL50>:
    1ebc:	08 95       	ret

00001ebe <display_heavy>:
    1ebe:	84 e0       	ldi	r24, 0x04	; 4
    1ec0:	90 e0       	ldi	r25, 0x00	; 0
    1ec2:	0e 94 87 0e 	call	0x1d0e	; 0x1d0e <display_number>

00001ec6 <.LVL51>:
    1ec6:	61 e0       	ldi	r22, 0x01	; 1
    1ec8:	81 e0       	ldi	r24, 0x01	; 1
    1eca:	90 e0       	ldi	r25, 0x00	; 0
    1ecc:	0e 94 1f 0f 	call	0x1e3e	; 0x1e3e <display_letter>

00001ed0 <.LVL52>:
    1ed0:	62 e0       	ldi	r22, 0x02	; 2
    1ed2:	85 e0       	ldi	r24, 0x05	; 5
    1ed4:	90 e0       	ldi	r25, 0x00	; 0
    1ed6:	0e 94 1f 0f 	call	0x1e3e	; 0x1e3e <display_letter>

00001eda <.LVL53>:
    1eda:	63 e0       	ldi	r22, 0x03	; 3
    1edc:	88 e0       	ldi	r24, 0x08	; 8
    1ede:	90 e0       	ldi	r25, 0x00	; 0
    1ee0:	0e 94 1f 0f 	call	0x1e3e	; 0x1e3e <display_letter>

00001ee4 <.LVL54>:
    1ee4:	08 95       	ret

00001ee6 <display_light>:
    1ee6:	60 e0       	ldi	r22, 0x00	; 0
    1ee8:	81 e1       	ldi	r24, 0x11	; 17
    1eea:	90 e0       	ldi	r25, 0x00	; 0
    1eec:	0e 94 1f 0f 	call	0x1e3e	; 0x1e3e <display_letter>

00001ef0 <.LVL55>:
    1ef0:	61 e0       	ldi	r22, 0x01	; 1
    1ef2:	88 e0       	ldi	r24, 0x08	; 8
    1ef4:	90 e0       	ldi	r25, 0x00	; 0
    1ef6:	0e 94 1f 0f 	call	0x1e3e	; 0x1e3e <display_letter>

00001efa <.LVL56>:
    1efa:	62 e0       	ldi	r22, 0x02	; 2
    1efc:	87 e0       	ldi	r24, 0x07	; 7
    1efe:	90 e0       	ldi	r25, 0x00	; 0
    1f00:	0e 94 1f 0f 	call	0x1e3e	; 0x1e3e <display_letter>

00001f04 <.LVL57>:
    1f04:	63 e0       	ldi	r22, 0x03	; 3
    1f06:	8b e0       	ldi	r24, 0x0B	; 11
    1f08:	90 e0       	ldi	r25, 0x00	; 0
    1f0a:	0e 94 1f 0f 	call	0x1e3e	; 0x1e3e <display_letter>

00001f0e <.LVL58>:
    1f0e:	08 95       	ret

00001f10 <display_fol>:
    1f10:	60 e0       	ldi	r22, 0x00	; 0
    1f12:	83 e1       	ldi	r24, 0x13	; 19
    1f14:	90 e0       	ldi	r25, 0x00	; 0
    1f16:	0e 94 1f 0f 	call	0x1e3e	; 0x1e3e <display_letter>

00001f1a <.LVL59>:
    1f1a:	61 e0       	ldi	r22, 0x01	; 1
    1f1c:	86 e0       	ldi	r24, 0x06	; 6
    1f1e:	90 e0       	ldi	r25, 0x00	; 0
    1f20:	0e 94 1f 0f 	call	0x1e3e	; 0x1e3e <display_letter>

00001f24 <.LVL60>:
    1f24:	62 e0       	ldi	r22, 0x02	; 2
    1f26:	8d e0       	ldi	r24, 0x0D	; 13
    1f28:	90 e0       	ldi	r25, 0x00	; 0
    1f2a:	0e 94 1f 0f 	call	0x1e3e	; 0x1e3e <display_letter>

00001f2e <.LVL61>:
    1f2e:	63 e0       	ldi	r22, 0x03	; 3
    1f30:	8b e0       	ldi	r24, 0x0B	; 11
    1f32:	90 e0       	ldi	r25, 0x00	; 0
    1f34:	0e 94 1f 0f 	call	0x1e3e	; 0x1e3e <display_letter>

00001f38 <.LVL62>:
    1f38:	08 95       	ret

00001f3a <display_cnt>:
    1f3a:	60 e0       	ldi	r22, 0x00	; 0
    1f3c:	83 e1       	ldi	r24, 0x13	; 19
    1f3e:	90 e0       	ldi	r25, 0x00	; 0
    1f40:	0e 94 1f 0f 	call	0x1e3e	; 0x1e3e <display_letter>

00001f44 <.LVL63>:
    1f44:	61 e0       	ldi	r22, 0x01	; 1
    1f46:	83 e0       	ldi	r24, 0x03	; 3
    1f48:	90 e0       	ldi	r25, 0x00	; 0
    1f4a:	0e 94 1f 0f 	call	0x1e3e	; 0x1e3e <display_letter>

00001f4e <.LVL64>:
    1f4e:	62 e0       	ldi	r22, 0x02	; 2
    1f50:	8c e0       	ldi	r24, 0x0C	; 12
    1f52:	90 e0       	ldi	r25, 0x00	; 0
    1f54:	0e 94 1f 0f 	call	0x1e3e	; 0x1e3e <display_letter>

00001f58 <.LVL65>:
    1f58:	63 e0       	ldi	r22, 0x03	; 3
    1f5a:	81 e1       	ldi	r24, 0x11	; 17
    1f5c:	90 e0       	ldi	r25, 0x00	; 0
    1f5e:	0e 94 1f 0f 	call	0x1e3e	; 0x1e3e <display_letter>

00001f62 <.LVL66>:
    1f62:	08 95       	ret

00001f64 <display_turn>:
    1f64:	60 e0       	ldi	r22, 0x00	; 0
    1f66:	81 e1       	ldi	r24, 0x11	; 17
    1f68:	90 e0       	ldi	r25, 0x00	; 0
    1f6a:	0e 94 1f 0f 	call	0x1e3e	; 0x1e3e <display_letter>

00001f6e <.LVL67>:
    1f6e:	61 e0       	ldi	r22, 0x01	; 1
    1f70:	82 e1       	ldi	r24, 0x12	; 18
    1f72:	90 e0       	ldi	r25, 0x00	; 0
    1f74:	0e 94 1f 0f 	call	0x1e3e	; 0x1e3e <display_letter>

00001f78 <.LVL68>:
    1f78:	62 e0       	ldi	r22, 0x02	; 2
    1f7a:	8f e0       	ldi	r24, 0x0F	; 15
    1f7c:	90 e0       	ldi	r25, 0x00	; 0
    1f7e:	0e 94 1f 0f 	call	0x1e3e	; 0x1e3e <display_letter>

00001f82 <.LVL69>:
    1f82:	63 e0       	ldi	r22, 0x03	; 3
    1f84:	8c e0       	ldi	r24, 0x0C	; 12
    1f86:	90 e0       	ldi	r25, 0x00	; 0
    1f88:	0e 94 1f 0f 	call	0x1e3e	; 0x1e3e <display_letter>

00001f8c <.LVL70>:
    1f8c:	08 95       	ret

00001f8e <display_dist>:
    1f8e:	60 e0       	ldi	r22, 0x00	; 0
    1f90:	84 e0       	ldi	r24, 0x04	; 4
    1f92:	90 e0       	ldi	r25, 0x00	; 0
    1f94:	0e 94 1f 0f 	call	0x1e3e	; 0x1e3e <display_letter>

00001f98 <.LVL71>:
    1f98:	61 e0       	ldi	r22, 0x01	; 1
    1f9a:	89 e0       	ldi	r24, 0x09	; 9
    1f9c:	90 e0       	ldi	r25, 0x00	; 0
    1f9e:	0e 94 1f 0f 	call	0x1e3e	; 0x1e3e <display_letter>

00001fa2 <.LVL72>:
    1fa2:	62 e0       	ldi	r22, 0x02	; 2
    1fa4:	80 e1       	ldi	r24, 0x10	; 16
    1fa6:	90 e0       	ldi	r25, 0x00	; 0
    1fa8:	0e 94 1f 0f 	call	0x1e3e	; 0x1e3e <display_letter>

00001fac <.LVL73>:
    1fac:	63 e0       	ldi	r22, 0x03	; 3
    1fae:	81 e1       	ldi	r24, 0x11	; 17
    1fb0:	90 e0       	ldi	r25, 0x00	; 0
    1fb2:	0e 94 1f 0f 	call	0x1e3e	; 0x1e3e <display_letter>

00001fb6 <.LVL74>:
    1fb6:	08 95       	ret

00001fb8 <display_pac>:
    1fb8:	60 e0       	ldi	r22, 0x00	; 0
    1fba:	83 e1       	ldi	r24, 0x13	; 19
    1fbc:	90 e0       	ldi	r25, 0x00	; 0
    1fbe:	0e 94 1f 0f 	call	0x1e3e	; 0x1e3e <display_letter>

00001fc2 <.LVL75>:
    1fc2:	61 e0       	ldi	r22, 0x01	; 1
    1fc4:	8e e0       	ldi	r24, 0x0E	; 14
    1fc6:	90 e0       	ldi	r25, 0x00	; 0
    1fc8:	0e 94 1f 0f 	call	0x1e3e	; 0x1e3e <display_letter>

00001fcc <.LVL76>:
    1fcc:	62 e0       	ldi	r22, 0x02	; 2
    1fce:	81 e0       	ldi	r24, 0x01	; 1
    1fd0:	90 e0       	ldi	r25, 0x00	; 0
    1fd2:	0e 94 1f 0f 	call	0x1e3e	; 0x1e3e <display_letter>

00001fd6 <.LVL77>:
    1fd6:	63 e0       	ldi	r22, 0x03	; 3
    1fd8:	83 e0       	ldi	r24, 0x03	; 3
    1fda:	90 e0       	ldi	r25, 0x00	; 0
    1fdc:	0e 94 1f 0f 	call	0x1e3e	; 0x1e3e <display_letter>

00001fe0 <.LVL78>:
    1fe0:	08 95       	ret

00001fe2 <display_mode>:
    1fe2:	88 23       	and	r24, r24
    1fe4:	19 f0       	breq	.+6      	; 0x1fec <.L33>

00001fe6 <.Loc.191>:
    1fe6:	0e 94 88 0f 	call	0x1f10	; 0x1f10 <display_fol>

00001fea <.LVL80>:
    1fea:	08 95       	ret

00001fec <.L33>:
    1fec:	0e 94 dc 0f 	call	0x1fb8	; 0x1fb8 <display_pac>

00001ff0 <.LVL82>:
    1ff0:	08 95       	ret

00001ff2 <display_left>:
    1ff2:	60 e0       	ldi	r22, 0x00	; 0
    1ff4:	8b e0       	ldi	r24, 0x0B	; 11
    1ff6:	90 e0       	ldi	r25, 0x00	; 0
    1ff8:	0e 94 1f 0f 	call	0x1e3e	; 0x1e3e <display_letter>

00001ffc <.LVL83>:
    1ffc:	61 e0       	ldi	r22, 0x01	; 1
    1ffe:	85 e0       	ldi	r24, 0x05	; 5
    2000:	90 e0       	ldi	r25, 0x00	; 0
    2002:	0e 94 1f 0f 	call	0x1e3e	; 0x1e3e <display_letter>

00002006 <.LVL84>:
    2006:	62 e0       	ldi	r22, 0x02	; 2
    2008:	86 e0       	ldi	r24, 0x06	; 6
    200a:	90 e0       	ldi	r25, 0x00	; 0
    200c:	0e 94 1f 0f 	call	0x1e3e	; 0x1e3e <display_letter>

00002010 <.LVL85>:
    2010:	63 e0       	ldi	r22, 0x03	; 3
    2012:	81 e1       	ldi	r24, 0x11	; 17
    2014:	90 e0       	ldi	r25, 0x00	; 0
    2016:	0e 94 1f 0f 	call	0x1e3e	; 0x1e3e <display_letter>

0000201a <.LVL86>:
    201a:	08 95       	ret

0000201c <display_rght>:
    201c:	60 e0       	ldi	r22, 0x00	; 0
    201e:	8f e0       	ldi	r24, 0x0F	; 15
    2020:	90 e0       	ldi	r25, 0x00	; 0
    2022:	0e 94 1f 0f 	call	0x1e3e	; 0x1e3e <display_letter>

00002026 <.LVL87>:
    2026:	61 e0       	ldi	r22, 0x01	; 1
    2028:	87 e0       	ldi	r24, 0x07	; 7
    202a:	90 e0       	ldi	r25, 0x00	; 0
    202c:	0e 94 1f 0f 	call	0x1e3e	; 0x1e3e <display_letter>

00002030 <.LVL88>:
    2030:	62 e0       	ldi	r22, 0x02	; 2
    2032:	88 e0       	ldi	r24, 0x08	; 8
    2034:	90 e0       	ldi	r25, 0x00	; 0
    2036:	0e 94 1f 0f 	call	0x1e3e	; 0x1e3e <display_letter>

0000203a <.LVL89>:
    203a:	63 e0       	ldi	r22, 0x03	; 3
    203c:	81 e1       	ldi	r24, 0x11	; 17
    203e:	90 e0       	ldi	r25, 0x00	; 0
    2040:	0e 94 1f 0f 	call	0x1e3e	; 0x1e3e <display_letter>

00002044 <.LVL90>:
    2044:	08 95       	ret

00002046 <display_direction>:
    2046:	88 23       	and	r24, r24
    2048:	19 f0       	breq	.+6      	; 0x2050 <.L38>

0000204a <.Loc.210>:
    204a:	0e 94 0e 10 	call	0x201c	; 0x201c <display_rght>

0000204e <.LVL92>:
    204e:	08 95       	ret

00002050 <.L38>:
    2050:	0e 94 f9 0f 	call	0x1ff2	; 0x1ff2 <display_left>

00002054 <.LVL94>:
    2054:	08 95       	ret

00002056 <display_go>:
    2056:	60 e0       	ldi	r22, 0x00	; 0
    2058:	83 e1       	ldi	r24, 0x13	; 19
    205a:	90 e0       	ldi	r25, 0x00	; 0
    205c:	0e 94 1f 0f 	call	0x1e3e	; 0x1e3e <display_letter>

00002060 <.LVL95>:
    2060:	61 e0       	ldi	r22, 0x01	; 1
    2062:	83 e1       	ldi	r24, 0x13	; 19
    2064:	90 e0       	ldi	r25, 0x00	; 0
    2066:	0e 94 1f 0f 	call	0x1e3e	; 0x1e3e <display_letter>

0000206a <.LVL96>:
    206a:	62 e0       	ldi	r22, 0x02	; 2
    206c:	87 e0       	ldi	r24, 0x07	; 7
    206e:	90 e0       	ldi	r25, 0x00	; 0
    2070:	0e 94 1f 0f 	call	0x1e3e	; 0x1e3e <display_letter>

00002074 <.LVL97>:
    2074:	63 e0       	ldi	r22, 0x03	; 3
    2076:	8d e0       	ldi	r24, 0x0D	; 13
    2078:	90 e0       	ldi	r25, 0x00	; 0
    207a:	0e 94 1f 0f 	call	0x1e3e	; 0x1e3e <display_letter>

0000207e <.LVL98>:
    207e:	08 95       	ret

00002080 <display_end>:
    2080:	60 e0       	ldi	r22, 0x00	; 0
    2082:	83 e1       	ldi	r24, 0x13	; 19
    2084:	90 e0       	ldi	r25, 0x00	; 0
    2086:	0e 94 1f 0f 	call	0x1e3e	; 0x1e3e <display_letter>

0000208a <.LVL99>:
    208a:	61 e0       	ldi	r22, 0x01	; 1
    208c:	85 e0       	ldi	r24, 0x05	; 5
    208e:	90 e0       	ldi	r25, 0x00	; 0
    2090:	0e 94 1f 0f 	call	0x1e3e	; 0x1e3e <display_letter>

00002094 <.LVL100>:
    2094:	62 e0       	ldi	r22, 0x02	; 2
    2096:	8c e0       	ldi	r24, 0x0C	; 12
    2098:	90 e0       	ldi	r25, 0x00	; 0
    209a:	0e 94 1f 0f 	call	0x1e3e	; 0x1e3e <display_letter>

0000209e <.LVL101>:
    209e:	63 e0       	ldi	r22, 0x03	; 3
    20a0:	84 e0       	ldi	r24, 0x04	; 4
    20a2:	90 e0       	ldi	r25, 0x00	; 0
    20a4:	0e 94 1f 0f 	call	0x1e3e	; 0x1e3e <display_letter>

000020a8 <.LVL102>:
    20a8:	08 95       	ret

000020aa <display_srch>:
    20aa:	60 e0       	ldi	r22, 0x00	; 0
    20ac:	80 e1       	ldi	r24, 0x10	; 16
    20ae:	90 e0       	ldi	r25, 0x00	; 0
    20b0:	0e 94 1f 0f 	call	0x1e3e	; 0x1e3e <display_letter>

000020b4 <.LVL103>:
    20b4:	61 e0       	ldi	r22, 0x01	; 1
    20b6:	8f e0       	ldi	r24, 0x0F	; 15
    20b8:	90 e0       	ldi	r25, 0x00	; 0
    20ba:	0e 94 1f 0f 	call	0x1e3e	; 0x1e3e <display_letter>

000020be <.LVL104>:
    20be:	62 e0       	ldi	r22, 0x02	; 2
    20c0:	83 e0       	ldi	r24, 0x03	; 3
    20c2:	90 e0       	ldi	r25, 0x00	; 0
    20c4:	0e 94 1f 0f 	call	0x1e3e	; 0x1e3e <display_letter>

000020c8 <.LVL105>:
    20c8:	63 e0       	ldi	r22, 0x03	; 3
    20ca:	88 e0       	ldi	r24, 0x08	; 8
    20cc:	90 e0       	ldi	r25, 0x00	; 0
    20ce:	0e 94 1f 0f 	call	0x1e3e	; 0x1e3e <display_letter>

000020d2 <.LVL106>:
    20d2:	08 95       	ret

000020d4 <display_txt_stop>:
    20d4:	60 e0       	ldi	r22, 0x00	; 0
    20d6:	80 e1       	ldi	r24, 0x10	; 16
    20d8:	90 e0       	ldi	r25, 0x00	; 0
    20da:	0e 94 1f 0f 	call	0x1e3e	; 0x1e3e <display_letter>

000020de <.LVL107>:
    20de:	61 e0       	ldi	r22, 0x01	; 1
    20e0:	81 e1       	ldi	r24, 0x11	; 17
    20e2:	90 e0       	ldi	r25, 0x00	; 0
    20e4:	0e 94 1f 0f 	call	0x1e3e	; 0x1e3e <display_letter>

000020e8 <.LVL108>:
    20e8:	62 e0       	ldi	r22, 0x02	; 2
    20ea:	8d e0       	ldi	r24, 0x0D	; 13
    20ec:	90 e0       	ldi	r25, 0x00	; 0
    20ee:	0e 94 1f 0f 	call	0x1e3e	; 0x1e3e <display_letter>

000020f2 <.LVL109>:
    20f2:	63 e0       	ldi	r22, 0x03	; 3
    20f4:	8e e0       	ldi	r24, 0x0E	; 14
    20f6:	90 e0       	ldi	r25, 0x00	; 0
    20f8:	0e 94 1f 0f 	call	0x1e3e	; 0x1e3e <display_letter>

000020fc <.LVL110>:
    20fc:	08 95       	ret

000020fe <__divmodhi4>:
    20fe:	97 fb       	bst	r25, 7

00002100 <.Loc.1>:
    2100:	07 2e       	mov	r0, r23

00002102 <.Loc.2>:
    2102:	16 f4       	brtc	.+4      	; 0x2108 <.L^B1>

00002104 <.Loc.3>:
    2104:	00 94       	com	r0

00002106 <.Loc.4>:
    2106:	07 d0       	rcall	.+14     	; 0x2116 <__divmodhi4_neg1>

00002108 <.L^B1>:
    2108:	77 fd       	sbrc	r23, 7

0000210a <.Loc.6>:
    210a:	09 d0       	rcall	.+18     	; 0x211e <__divmodhi4_neg2>

0000210c <.Loc.7>:
    210c:	0e 94 eb 10 	call	0x21d6	; 0x21d6 <__udivmodhi4>

00002110 <.Loc.8>:
    2110:	07 fc       	sbrc	r0, 7

00002112 <.Loc.9>:
    2112:	05 d0       	rcall	.+10     	; 0x211e <__divmodhi4_neg2>

00002114 <.Loc.10>:
    2114:	3e f4       	brtc	.+14     	; 0x2124 <__divmodhi4_exit>

00002116 <__divmodhi4_neg1>:
    2116:	90 95       	com	r25

00002118 <.Loc.12>:
    2118:	81 95       	neg	r24

0000211a <.Loc.13>:
    211a:	9f 4f       	sbci	r25, 0xFF	; 255

0000211c <.Loc.14>:
    211c:	08 95       	ret

0000211e <__divmodhi4_neg2>:
    211e:	70 95       	com	r23

00002120 <.Loc.16>:
    2120:	61 95       	neg	r22

00002122 <.Loc.17>:
    2122:	7f 4f       	sbci	r23, 0xFF	; 255

00002124 <__divmodhi4_exit>:
    2124:	08 95       	ret

00002126 <__udivmodsi4>:
    2126:	a1 e2       	ldi	r26, 0x21	; 33

00002128 <.Loc.1>:
    2128:	1a 2e       	mov	r1, r26

0000212a <.Loc.2>:
    212a:	aa 1b       	sub	r26, r26

0000212c <.Loc.3>:
    212c:	bb 1b       	sub	r27, r27

0000212e <.Loc.4>:
    212e:	fd 01       	movw	r30, r26

00002130 <.Loc.5>:
    2130:	0d c0       	rjmp	.+26     	; 0x214c <__udivmodsi4_ep>

00002132 <__udivmodsi4_loop>:
    2132:	aa 1f       	adc	r26, r26

00002134 <.Loc.7>:
    2134:	bb 1f       	adc	r27, r27

00002136 <.Loc.8>:
    2136:	ee 1f       	adc	r30, r30

00002138 <.Loc.9>:
    2138:	ff 1f       	adc	r31, r31

0000213a <.Loc.10>:
    213a:	a2 17       	cp	r26, r18

0000213c <.Loc.11>:
    213c:	b3 07       	cpc	r27, r19

0000213e <.Loc.12>:
    213e:	e4 07       	cpc	r30, r20

00002140 <.Loc.13>:
    2140:	f5 07       	cpc	r31, r21

00002142 <.Loc.14>:
    2142:	20 f0       	brcs	.+8      	; 0x214c <__udivmodsi4_ep>

00002144 <.Loc.15>:
    2144:	a2 1b       	sub	r26, r18

00002146 <.Loc.16>:
    2146:	b3 0b       	sbc	r27, r19

00002148 <.Loc.17>:
    2148:	e4 0b       	sbc	r30, r20

0000214a <.Loc.18>:
    214a:	f5 0b       	sbc	r31, r21

0000214c <__udivmodsi4_ep>:
    214c:	66 1f       	adc	r22, r22

0000214e <.Loc.20>:
    214e:	77 1f       	adc	r23, r23

00002150 <.Loc.21>:
    2150:	88 1f       	adc	r24, r24

00002152 <.Loc.22>:
    2152:	99 1f       	adc	r25, r25

00002154 <.Loc.23>:
    2154:	1a 94       	dec	r1

00002156 <.Loc.24>:
    2156:	69 f7       	brne	.-38     	; 0x2132 <__udivmodsi4_loop>

00002158 <.Loc.25>:
    2158:	60 95       	com	r22

0000215a <.Loc.26>:
    215a:	70 95       	com	r23

0000215c <.Loc.27>:
    215c:	80 95       	com	r24

0000215e <.Loc.28>:
    215e:	90 95       	com	r25

00002160 <.Loc.29>:
    2160:	9b 01       	movw	r18, r22

00002162 <.Loc.30>:
    2162:	ac 01       	movw	r20, r24

00002164 <.Loc.31>:
    2164:	bd 01       	movw	r22, r26

00002166 <.Loc.32>:
    2166:	cf 01       	movw	r24, r30

00002168 <.Loc.33>:
    2168:	08 95       	ret

0000216a <__divmodsi4>:
    216a:	05 2e       	mov	r0, r21

0000216c <.Loc.1>:
    216c:	97 fb       	bst	r25, 7

0000216e <.Loc.2>:
    216e:	1e f4       	brtc	.+6      	; 0x2176 <.L^B1>

00002170 <.Loc.3>:
    2170:	00 94       	com	r0

00002172 <.Loc.4>:
    2172:	0e 94 cc 10 	call	0x2198	; 0x2198 <__negsi2>

00002176 <.L^B1>:
    2176:	57 fd       	sbrc	r21, 7

00002178 <.Loc.6>:
    2178:	07 d0       	rcall	.+14     	; 0x2188 <__divmodsi4_neg2>

0000217a <.Loc.7>:
    217a:	0e 94 93 10 	call	0x2126	; 0x2126 <__udivmodsi4>

0000217e <.Loc.8>:
    217e:	07 fc       	sbrc	r0, 7

00002180 <.Loc.9>:
    2180:	03 d0       	rcall	.+6      	; 0x2188 <__divmodsi4_neg2>

00002182 <.Loc.10>:
    2182:	4e f4       	brtc	.+18     	; 0x2196 <__divmodsi4_exit>

00002184 <.Loc.11>:
    2184:	0c 94 cc 10 	jmp	0x2198	; 0x2198 <__negsi2>

00002188 <__divmodsi4_neg2>:
    2188:	50 95       	com	r21

0000218a <.Loc.13>:
    218a:	40 95       	com	r20

0000218c <.Loc.14>:
    218c:	30 95       	com	r19

0000218e <.Loc.15>:
    218e:	21 95       	neg	r18

00002190 <.Loc.16>:
    2190:	3f 4f       	sbci	r19, 0xFF	; 255

00002192 <.Loc.17>:
    2192:	4f 4f       	sbci	r20, 0xFF	; 255

00002194 <.Loc.18>:
    2194:	5f 4f       	sbci	r21, 0xFF	; 255

00002196 <__divmodsi4_exit>:
    2196:	08 95       	ret

00002198 <__negsi2>:
    2198:	90 95       	com	r25
    219a:	80 95       	com	r24
    219c:	70 95       	com	r23
    219e:	61 95       	neg	r22
    21a0:	7f 4f       	sbci	r23, 0xFF	; 255
    21a2:	8f 4f       	sbci	r24, 0xFF	; 255
    21a4:	9f 4f       	sbci	r25, 0xFF	; 255

000021a6 <.Loc.1>:
    21a6:	08 95       	ret

000021a8 <__tablejump2__>:
    21a8:	ee 0f       	add	r30, r30

000021aa <.Loc.1>:
    21aa:	ff 1f       	adc	r31, r31

000021ac <.Loc.2>:
    21ac:	88 1f       	adc	r24, r24

000021ae <.Loc.3>:
    21ae:	8b bf       	out	0x3b, r24	; 59

000021b0 <.Loc.4>:
    21b0:	07 90       	elpm	r0, Z+

000021b2 <.Loc.5>:
    21b2:	f6 91       	elpm	r31, Z

000021b4 <.Loc.6>:
    21b4:	e0 2d       	mov	r30, r0

000021b6 <.Loc.7>:
    21b6:	19 94       	eijmp

000021b8 <__umulhisi3>:
    21b8:	a2 9f       	mul	r26, r18

000021ba <.Loc.1>:
    21ba:	b0 01       	movw	r22, r0

000021bc <.Loc.2>:
    21bc:	b3 9f       	mul	r27, r19

000021be <.Loc.3>:
    21be:	c0 01       	movw	r24, r0

000021c0 <.Loc.4>:
    21c0:	a3 9f       	mul	r26, r19

000021c2 <.Loc.5>:
    21c2:	70 0d       	add	r23, r0

000021c4 <.Loc.6>:
    21c4:	81 1d       	adc	r24, r1

000021c6 <.Loc.7>:
    21c6:	11 24       	eor	r1, r1

000021c8 <.Loc.8>:
    21c8:	91 1d       	adc	r25, r1

000021ca <.Loc.9>:
    21ca:	b2 9f       	mul	r27, r18

000021cc <.Loc.10>:
    21cc:	70 0d       	add	r23, r0

000021ce <.Loc.11>:
    21ce:	81 1d       	adc	r24, r1

000021d0 <.Loc.12>:
    21d0:	11 24       	eor	r1, r1

000021d2 <.Loc.13>:
    21d2:	91 1d       	adc	r25, r1

000021d4 <.Loc.14>:
    21d4:	08 95       	ret

000021d6 <__udivmodhi4>:
    21d6:	aa 1b       	sub	r26, r26

000021d8 <.Loc.1>:
    21d8:	bb 1b       	sub	r27, r27

000021da <.Loc.2>:
    21da:	51 e1       	ldi	r21, 0x11	; 17

000021dc <.Loc.3>:
    21dc:	07 c0       	rjmp	.+14     	; 0x21ec <__udivmodhi4_ep>

000021de <__udivmodhi4_loop>:
    21de:	aa 1f       	adc	r26, r26

000021e0 <.Loc.5>:
    21e0:	bb 1f       	adc	r27, r27

000021e2 <.Loc.6>:
    21e2:	a6 17       	cp	r26, r22

000021e4 <.Loc.7>:
    21e4:	b7 07       	cpc	r27, r23

000021e6 <.Loc.8>:
    21e6:	10 f0       	brcs	.+4      	; 0x21ec <__udivmodhi4_ep>

000021e8 <.Loc.9>:
    21e8:	a6 1b       	sub	r26, r22

000021ea <.Loc.10>:
    21ea:	b7 0b       	sbc	r27, r23

000021ec <__udivmodhi4_ep>:
    21ec:	88 1f       	adc	r24, r24

000021ee <.Loc.12>:
    21ee:	99 1f       	adc	r25, r25

000021f0 <.Loc.13>:
    21f0:	5a 95       	dec	r21

000021f2 <.Loc.14>:
    21f2:	a9 f7       	brne	.-22     	; 0x21de <__udivmodhi4_loop>

000021f4 <.Loc.15>:
    21f4:	80 95       	com	r24

000021f6 <.Loc.16>:
    21f6:	90 95       	com	r25

000021f8 <.Loc.17>:
    21f8:	bc 01       	movw	r22, r24

000021fa <.Loc.18>:
    21fa:	cd 01       	movw	r24, r26

000021fc <.Loc.19>:
    21fc:	08 95       	ret

000021fe <__fixsfsi>:
    21fe:	0e 94 06 11 	call	0x220c	; 0x220c <__fixunssfsi>
    2202:	68 94       	set
    2204:	b1 11       	cpse	r27, r1
    2206:	0c 94 95 11 	jmp	0x232a	; 0x232a <__fp_szero>
    220a:	08 95       	ret

0000220c <__fixunssfsi>:
    220c:	0e 94 7a 11 	call	0x22f4	; 0x22f4 <__fp_splitA>
    2210:	88 f0       	brcs	.+34     	; 0x2234 <.L_err>
    2212:	9f 57       	subi	r25, 0x7F	; 127
    2214:	98 f0       	brcs	.+38     	; 0x223c <.L_zr>
    2216:	b9 2f       	mov	r27, r25
    2218:	99 27       	eor	r25, r25
    221a:	b7 51       	subi	r27, 0x17	; 23
    221c:	b0 f0       	brcs	.+44     	; 0x224a <.L4^B1>
    221e:	e1 f0       	breq	.+56     	; 0x2258 <.L_sign>

00002220 <.L1^B1>:
    2220:	66 0f       	add	r22, r22
    2222:	77 1f       	adc	r23, r23
    2224:	88 1f       	adc	r24, r24
    2226:	99 1f       	adc	r25, r25
    2228:	1a f0       	brmi	.+6      	; 0x2230 <.L2^B1>
    222a:	ba 95       	dec	r27
    222c:	c9 f7       	brne	.-14     	; 0x2220 <.L1^B1>
    222e:	14 c0       	rjmp	.+40     	; 0x2258 <.L_sign>

00002230 <.L2^B1>:
    2230:	b1 30       	cpi	r27, 0x01	; 1
    2232:	91 f0       	breq	.+36     	; 0x2258 <.L_sign>

00002234 <.L_err>:
    2234:	0e 94 94 11 	call	0x2328	; 0x2328 <__fp_zero>
    2238:	b1 e0       	ldi	r27, 0x01	; 1
    223a:	08 95       	ret

0000223c <.L_zr>:
    223c:	0c 94 94 11 	jmp	0x2328	; 0x2328 <__fp_zero>

00002240 <.L3^B1>:
    2240:	67 2f       	mov	r22, r23
    2242:	78 2f       	mov	r23, r24
    2244:	88 27       	eor	r24, r24
    2246:	b8 5f       	subi	r27, 0xF8	; 248
    2248:	39 f0       	breq	.+14     	; 0x2258 <.L_sign>

0000224a <.L4^B1>:
    224a:	b9 3f       	cpi	r27, 0xF9	; 249
    224c:	cc f3       	brlt	.-14     	; 0x2240 <.L3^B1>

0000224e <.L5^B1>:
    224e:	86 95       	lsr	r24
    2250:	77 95       	ror	r23
    2252:	67 95       	ror	r22
    2254:	b3 95       	inc	r27
    2256:	d9 f7       	brne	.-10     	; 0x224e <.L5^B1>

00002258 <.L_sign>:
    2258:	3e f4       	brtc	.+14     	; 0x2268 <.L6^B1>
    225a:	90 95       	com	r25
    225c:	80 95       	com	r24
    225e:	70 95       	com	r23
    2260:	61 95       	neg	r22
    2262:	7f 4f       	sbci	r23, 0xFF	; 255
    2264:	8f 4f       	sbci	r24, 0xFF	; 255
    2266:	9f 4f       	sbci	r25, 0xFF	; 255

00002268 <.L6^B1>:
    2268:	08 95       	ret

0000226a <__floatunsisf>:
    226a:	e8 94       	clt
    226c:	09 c0       	rjmp	.+18     	; 0x2280 <.L1^B1>

0000226e <__floatsisf>:
    226e:	97 fb       	bst	r25, 7
    2270:	3e f4       	brtc	.+14     	; 0x2280 <.L1^B1>
    2272:	90 95       	com	r25
    2274:	80 95       	com	r24
    2276:	70 95       	com	r23
    2278:	61 95       	neg	r22
    227a:	7f 4f       	sbci	r23, 0xFF	; 255
    227c:	8f 4f       	sbci	r24, 0xFF	; 255
    227e:	9f 4f       	sbci	r25, 0xFF	; 255

00002280 <.L1^B1>:
    2280:	99 23       	and	r25, r25
    2282:	a9 f0       	breq	.+42     	; 0x22ae <.L4^B1>
    2284:	f9 2f       	mov	r31, r25
    2286:	96 e9       	ldi	r25, 0x96	; 150
    2288:	bb 27       	eor	r27, r27

0000228a <.L2^B1>:
    228a:	93 95       	inc	r25
    228c:	f6 95       	lsr	r31
    228e:	87 95       	ror	r24
    2290:	77 95       	ror	r23
    2292:	67 95       	ror	r22
    2294:	b7 95       	ror	r27
    2296:	f1 11       	cpse	r31, r1
    2298:	f8 cf       	rjmp	.-16     	; 0x228a <.L2^B1>
    229a:	fa f4       	brpl	.+62     	; 0x22da <.L_pack>
    229c:	bb 0f       	add	r27, r27
    229e:	11 f4       	brne	.+4      	; 0x22a4 <.L3^B1>
    22a0:	60 ff       	sbrs	r22, 0
    22a2:	1b c0       	rjmp	.+54     	; 0x22da <.L_pack>

000022a4 <.L3^B1>:
    22a4:	6f 5f       	subi	r22, 0xFF	; 255
    22a6:	7f 4f       	sbci	r23, 0xFF	; 255
    22a8:	8f 4f       	sbci	r24, 0xFF	; 255
    22aa:	9f 4f       	sbci	r25, 0xFF	; 255
    22ac:	16 c0       	rjmp	.+44     	; 0x22da <.L_pack>

000022ae <.L4^B1>:
    22ae:	88 23       	and	r24, r24
    22b0:	11 f0       	breq	.+4      	; 0x22b6 <.L5^B1>
    22b2:	96 e9       	ldi	r25, 0x96	; 150
    22b4:	11 c0       	rjmp	.+34     	; 0x22d8 <.L8^B1>

000022b6 <.L5^B1>:
    22b6:	77 23       	and	r23, r23
    22b8:	21 f0       	breq	.+8      	; 0x22c2 <.L6^B1>
    22ba:	9e e8       	ldi	r25, 0x8E	; 142
    22bc:	87 2f       	mov	r24, r23
    22be:	76 2f       	mov	r23, r22
    22c0:	05 c0       	rjmp	.+10     	; 0x22cc <.L7^B1>

000022c2 <.L6^B1>:
    22c2:	66 23       	and	r22, r22
    22c4:	71 f0       	breq	.+28     	; 0x22e2 <.L9^B1>
    22c6:	96 e8       	ldi	r25, 0x86	; 134
    22c8:	86 2f       	mov	r24, r22
    22ca:	70 e0       	ldi	r23, 0x00	; 0

000022cc <.L7^B1>:
    22cc:	60 e0       	ldi	r22, 0x00	; 0
    22ce:	2a f0       	brmi	.+10     	; 0x22da <.L_pack>

000022d0 <.L10^B1>:
    22d0:	9a 95       	dec	r25
    22d2:	66 0f       	add	r22, r22
    22d4:	77 1f       	adc	r23, r23
    22d6:	88 1f       	adc	r24, r24

000022d8 <.L8^B1>:
    22d8:	da f7       	brpl	.-10     	; 0x22d0 <.L10^B1>

000022da <.L_pack>:
    22da:	88 0f       	add	r24, r24
    22dc:	96 95       	lsr	r25
    22de:	87 95       	ror	r24
    22e0:	97 f9       	bld	r25, 7

000022e2 <.L9^B1>:
    22e2:	08 95       	ret

000022e4 <__fp_split3>:
    22e4:	57 fd       	sbrc	r21, 7
    22e6:	90 58       	subi	r25, 0x80	; 128
    22e8:	44 0f       	add	r20, r20
    22ea:	55 1f       	adc	r21, r21
    22ec:	59 f0       	breq	.+22     	; 0x2304 <.L4^B1>
    22ee:	5f 3f       	cpi	r21, 0xFF	; 255
    22f0:	71 f0       	breq	.+28     	; 0x230e <.L5^B1>

000022f2 <.L1^B1>:
    22f2:	47 95       	ror	r20

000022f4 <__fp_splitA>:
    22f4:	88 0f       	add	r24, r24
    22f6:	97 fb       	bst	r25, 7
    22f8:	99 1f       	adc	r25, r25
    22fa:	61 f0       	breq	.+24     	; 0x2314 <.L6^B1>
    22fc:	9f 3f       	cpi	r25, 0xFF	; 255
    22fe:	79 f0       	breq	.+30     	; 0x231e <.L7^B1>

00002300 <.L3^B1>:
    2300:	87 95       	ror	r24
    2302:	08 95       	ret

00002304 <.L4^B1>:
    2304:	12 16       	cp	r1, r18
    2306:	13 06       	cpc	r1, r19
    2308:	14 06       	cpc	r1, r20
    230a:	55 1f       	adc	r21, r21
    230c:	f2 cf       	rjmp	.-28     	; 0x22f2 <.L1^B1>

0000230e <.L5^B1>:
    230e:	46 95       	lsr	r20
    2310:	f1 df       	rcall	.-30     	; 0x22f4 <__fp_splitA>
    2312:	08 c0       	rjmp	.+16     	; 0x2324 <.L8^B1>

00002314 <.L6^B1>:
    2314:	16 16       	cp	r1, r22
    2316:	17 06       	cpc	r1, r23
    2318:	18 06       	cpc	r1, r24
    231a:	99 1f       	adc	r25, r25
    231c:	f1 cf       	rjmp	.-30     	; 0x2300 <.L3^B1>

0000231e <.L7^B1>:
    231e:	86 95       	lsr	r24
    2320:	71 05       	cpc	r23, r1
    2322:	61 05       	cpc	r22, r1

00002324 <.L8^B1>:
    2324:	08 94       	sec
    2326:	08 95       	ret

00002328 <__fp_zero>:
    2328:	e8 94       	clt

0000232a <__fp_szero>:
    232a:	bb 27       	eor	r27, r27
    232c:	66 27       	eor	r22, r22
    232e:	77 27       	eor	r23, r23
    2330:	cb 01       	movw	r24, r22
    2332:	97 f9       	bld	r25, 7
    2334:	08 95       	ret

00002336 <__mulsf3>:
    2336:	0e 94 ae 11 	call	0x235c	; 0x235c <__mulsf3x>
    233a:	0c 94 1f 12 	jmp	0x243e	; 0x243e <__fp_round>

0000233e <.L^B1>:
    233e:	0e 94 11 12 	call	0x2422	; 0x2422 <__fp_pscA>
    2342:	38 f0       	brcs	.+14     	; 0x2352 <.L1^B1>
    2344:	0e 94 18 12 	call	0x2430	; 0x2430 <__fp_pscB>
    2348:	20 f0       	brcs	.+8      	; 0x2352 <.L1^B1>
    234a:	95 23       	and	r25, r21
    234c:	11 f0       	breq	.+4      	; 0x2352 <.L1^B1>
    234e:	0c 94 08 12 	jmp	0x2410	; 0x2410 <__fp_inf>

00002352 <.L1^B1>:
    2352:	0c 94 0e 12 	jmp	0x241c	; 0x241c <__fp_nan>

00002356 <.L2^B1>:
    2356:	11 24       	eor	r1, r1
    2358:	0c 94 95 11 	jmp	0x232a	; 0x232a <__fp_szero>

0000235c <__mulsf3x>:
    235c:	0e 94 72 11 	call	0x22e4	; 0x22e4 <__fp_split3>
    2360:	70 f3       	brcs	.-36     	; 0x233e <.L^B1>

00002362 <__mulsf3_pse>:
    2362:	95 9f       	mul	r25, r21
    2364:	c1 f3       	breq	.-16     	; 0x2356 <.L2^B1>
    2366:	95 0f       	add	r25, r21
    2368:	50 e0       	ldi	r21, 0x00	; 0
    236a:	55 1f       	adc	r21, r21
    236c:	62 9f       	mul	r22, r18
    236e:	f0 01       	movw	r30, r0
    2370:	72 9f       	mul	r23, r18
    2372:	bb 27       	eor	r27, r27
    2374:	f0 0d       	add	r31, r0
    2376:	b1 1d       	adc	r27, r1
    2378:	63 9f       	mul	r22, r19
    237a:	aa 27       	eor	r26, r26
    237c:	f0 0d       	add	r31, r0
    237e:	b1 1d       	adc	r27, r1
    2380:	aa 1f       	adc	r26, r26
    2382:	64 9f       	mul	r22, r20
    2384:	66 27       	eor	r22, r22
    2386:	b0 0d       	add	r27, r0
    2388:	a1 1d       	adc	r26, r1
    238a:	66 1f       	adc	r22, r22
    238c:	82 9f       	mul	r24, r18
    238e:	22 27       	eor	r18, r18
    2390:	b0 0d       	add	r27, r0
    2392:	a1 1d       	adc	r26, r1
    2394:	62 1f       	adc	r22, r18
    2396:	73 9f       	mul	r23, r19
    2398:	b0 0d       	add	r27, r0
    239a:	a1 1d       	adc	r26, r1
    239c:	62 1f       	adc	r22, r18
    239e:	83 9f       	mul	r24, r19
    23a0:	a0 0d       	add	r26, r0
    23a2:	61 1d       	adc	r22, r1
    23a4:	22 1f       	adc	r18, r18
    23a6:	74 9f       	mul	r23, r20
    23a8:	33 27       	eor	r19, r19
    23aa:	a0 0d       	add	r26, r0
    23ac:	61 1d       	adc	r22, r1
    23ae:	23 1f       	adc	r18, r19
    23b0:	84 9f       	mul	r24, r20
    23b2:	60 0d       	add	r22, r0
    23b4:	21 1d       	adc	r18, r1
    23b6:	82 2f       	mov	r24, r18
    23b8:	76 2f       	mov	r23, r22
    23ba:	6a 2f       	mov	r22, r26
    23bc:	11 24       	eor	r1, r1
    23be:	9f 57       	subi	r25, 0x7F	; 127
    23c0:	50 40       	sbci	r21, 0x00	; 0
    23c2:	9a f0       	brmi	.+38     	; 0x23ea <.L13^B1>
    23c4:	f1 f0       	breq	.+60     	; 0x2402 <.L15^B1>

000023c6 <.L10^B1>:
    23c6:	88 23       	and	r24, r24
    23c8:	4a f0       	brmi	.+18     	; 0x23dc <.L11^B1>
    23ca:	ee 0f       	add	r30, r30
    23cc:	ff 1f       	adc	r31, r31
    23ce:	bb 1f       	adc	r27, r27
    23d0:	66 1f       	adc	r22, r22
    23d2:	77 1f       	adc	r23, r23
    23d4:	88 1f       	adc	r24, r24
    23d6:	91 50       	subi	r25, 0x01	; 1
    23d8:	50 40       	sbci	r21, 0x00	; 0
    23da:	a9 f7       	brne	.-22     	; 0x23c6 <.L10^B1>

000023dc <.L11^B1>:
    23dc:	9e 3f       	cpi	r25, 0xFE	; 254
    23de:	51 05       	cpc	r21, r1
    23e0:	80 f0       	brcs	.+32     	; 0x2402 <.L15^B1>
    23e2:	0c 94 08 12 	jmp	0x2410	; 0x2410 <__fp_inf>

000023e6 <.L12^B1>:
    23e6:	0c 94 95 11 	jmp	0x232a	; 0x232a <__fp_szero>

000023ea <.L13^B1>:
    23ea:	5f 3f       	cpi	r21, 0xFF	; 255
    23ec:	e4 f3       	brlt	.-8      	; 0x23e6 <.L12^B1>
    23ee:	98 3e       	cpi	r25, 0xE8	; 232
    23f0:	d4 f3       	brlt	.-12     	; 0x23e6 <.L12^B1>

000023f2 <.L14^B1>:
    23f2:	86 95       	lsr	r24
    23f4:	77 95       	ror	r23
    23f6:	67 95       	ror	r22
    23f8:	b7 95       	ror	r27
    23fa:	f7 95       	ror	r31
    23fc:	e7 95       	ror	r30
    23fe:	9f 5f       	subi	r25, 0xFF	; 255
    2400:	c1 f7       	brne	.-16     	; 0x23f2 <.L14^B1>

00002402 <.L15^B1>:
    2402:	fe 2b       	or	r31, r30
    2404:	88 0f       	add	r24, r24
    2406:	91 1d       	adc	r25, r1
    2408:	96 95       	lsr	r25
    240a:	87 95       	ror	r24
    240c:	97 f9       	bld	r25, 7
    240e:	08 95       	ret

00002410 <__fp_inf>:
    2410:	97 f9       	bld	r25, 7
    2412:	9f 67       	ori	r25, 0x7F	; 127
    2414:	80 e8       	ldi	r24, 0x80	; 128
    2416:	70 e0       	ldi	r23, 0x00	; 0
    2418:	60 e0       	ldi	r22, 0x00	; 0
    241a:	08 95       	ret

0000241c <__fp_nan>:
    241c:	9f ef       	ldi	r25, 0xFF	; 255
    241e:	80 ec       	ldi	r24, 0xC0	; 192
    2420:	08 95       	ret

00002422 <__fp_pscA>:
    2422:	00 24       	eor	r0, r0
    2424:	0a 94       	dec	r0
    2426:	16 16       	cp	r1, r22
    2428:	17 06       	cpc	r1, r23
    242a:	18 06       	cpc	r1, r24
    242c:	09 06       	cpc	r0, r25
    242e:	08 95       	ret

00002430 <__fp_pscB>:
    2430:	00 24       	eor	r0, r0
    2432:	0a 94       	dec	r0
    2434:	12 16       	cp	r1, r18
    2436:	13 06       	cpc	r1, r19
    2438:	14 06       	cpc	r1, r20
    243a:	05 06       	cpc	r0, r21
    243c:	08 95       	ret

0000243e <__fp_round>:
    243e:	09 2e       	mov	r0, r25
    2440:	03 94       	inc	r0
    2442:	00 0c       	add	r0, r0
    2444:	11 f4       	brne	.+4      	; 0x244a <.L1^B1>
    2446:	88 23       	and	r24, r24
    2448:	52 f0       	brmi	.+20     	; 0x245e <.L3^B1>

0000244a <.L1^B1>:
    244a:	bb 0f       	add	r27, r27
    244c:	40 f4       	brcc	.+16     	; 0x245e <.L3^B1>
    244e:	bf 2b       	or	r27, r31
    2450:	11 f4       	brne	.+4      	; 0x2456 <.L2^B1>
    2452:	60 ff       	sbrs	r22, 0
    2454:	04 c0       	rjmp	.+8      	; 0x245e <.L3^B1>

00002456 <.L2^B1>:
    2456:	6f 5f       	subi	r22, 0xFF	; 255
    2458:	7f 4f       	sbci	r23, 0xFF	; 255
    245a:	8f 4f       	sbci	r24, 0xFF	; 255
    245c:	9f 4f       	sbci	r25, 0xFF	; 255

0000245e <.L3^B1>:
    245e:	08 95       	ret

00002460 <_exit>:
    2460:	f8 94       	cli

00002462 <__stop_program>:
    2462:	ff cf       	rjmp	.-2      	; 0x2462 <__stop_program>

00002464 <L0^A>:
    2464:	c5 02       	muls	r28, r21
    2466:	cb 02       	muls	r28, r27
    2468:	d1 02       	muls	r29, r17
    246a:	d7 02       	muls	r29, r23
    246c:	dd 02       	muls	r29, r29
    246e:	e3 02       	muls	r30, r19
    2470:	e9 02       	muls	r30, r25
    2472:	ef 02       	muls	r30, r31
    2474:	f5 02       	muls	r31, r21

00002476 <.L41>:
    2476:	ea 08       	sbc	r14, r10
    2478:	f6 08       	sbc	r15, r6
    247a:	02 09       	sbc	r16, r2
    247c:	0e 09       	sbc	r16, r14
    247e:	1a 09       	sbc	r17, r10
    2480:	26 09       	sbc	r18, r6
    2482:	32 09       	sbc	r19, r2
    2484:	3e 09       	sbc	r19, r14
    2486:	4a 09       	sbc	r20, r10
    2488:	56 09       	sbc	r21, r6
    248a:	62 09       	sbc	r22, r2
    248c:	6e 09       	sbc	r22, r14
    248e:	7a 09       	sbc	r23, r10
    2490:	86 09       	sbc	r24, r6
    2492:	92 09       	sbc	r25, r2
