
bin\Debug\Bibo.elf:     file format elf32-avr

Sections:
Idx Name          Size      VMA       LMA       File off  Algn
  0 .data         00000074  00800200  00002614  000026c8  2**0
                  CONTENTS, ALLOC, LOAD, DATA
  1 .text         00002614  00000000  00000000  000000b4  2**1
                  CONTENTS, ALLOC, LOAD, READONLY, CODE
  2 .bss          00000039  00800274  00800274  0000273c  2**0
                  ALLOC
  3 .fuse         00000003  00820000  00820000  0000273c  2**0
                  CONTENTS, ALLOC, LOAD, DATA
  4 .comment      00000012  00000000  00000000  0000273f  2**0
                  CONTENTS, READONLY
  5 .note.gnu.avr.deviceinfo 00000040  00000000  00000000  00002754  2**2
                  CONTENTS, READONLY, OCTETS
  6 .debug_aranges 00000278  00000000  00000000  00002798  2**3
                  CONTENTS, READONLY, DEBUGGING, OCTETS
  7 .debug_info   00004388  00000000  00000000  00002a10  2**0
                  CONTENTS, READONLY, DEBUGGING, OCTETS
  8 .debug_abbrev 00001b4c  00000000  00000000  00006d98  2**0
                  CONTENTS, READONLY, DEBUGGING, OCTETS
  9 .debug_line   00004834  00000000  00000000  000088e4  2**0
                  CONTENTS, READONLY, DEBUGGING, OCTETS
 10 .debug_frame  000009a0  00000000  00000000  0000d118  2**2
                  CONTENTS, READONLY, DEBUGGING, OCTETS
 11 .debug_str    00000dd7  00000000  00000000  0000dab8  2**0
                  CONTENTS, READONLY, DEBUGGING, OCTETS
 12 .debug_line_str 000002f7  00000000  00000000  0000e88f  2**0
                  CONTENTS, READONLY, DEBUGGING, OCTETS
 13 .debug_loclists 00000d40  00000000  00000000  0000eb86  2**0
                  CONTENTS, READONLY, DEBUGGING, OCTETS
 14 .debug_rnglists 00000060  00000000  00000000  0000f8c6  2**0
                  CONTENTS, READONLY, DEBUGGING, OCTETS

Disassembly of section .text:

00000000 <__vectors>:
       0:	0c 94 a2 00 	jmp	0x144	; 0x144 <__ctors_end>
       4:	0c 94 8d 01 	jmp	0x31a	; 0x31a <__vector_1>
       8:	0c 94 c3 00 	jmp	0x186	; 0x186 <__bad_interrupt>
       c:	0c 94 c3 00 	jmp	0x186	; 0x186 <__bad_interrupt>
      10:	0c 94 c3 00 	jmp	0x186	; 0x186 <__bad_interrupt>
      14:	0c 94 c3 00 	jmp	0x186	; 0x186 <__bad_interrupt>
      18:	0c 94 c3 00 	jmp	0x186	; 0x186 <__bad_interrupt>
      1c:	0c 94 c3 00 	jmp	0x186	; 0x186 <__bad_interrupt>
      20:	0c 94 c3 00 	jmp	0x186	; 0x186 <__bad_interrupt>
      24:	0c 94 c3 00 	jmp	0x186	; 0x186 <__bad_interrupt>
      28:	0c 94 c3 00 	jmp	0x186	; 0x186 <__bad_interrupt>
      2c:	0c 94 c3 00 	jmp	0x186	; 0x186 <__bad_interrupt>
      30:	0c 94 c3 00 	jmp	0x186	; 0x186 <__bad_interrupt>
      34:	0c 94 c3 00 	jmp	0x186	; 0x186 <__bad_interrupt>
      38:	0c 94 c3 00 	jmp	0x186	; 0x186 <__bad_interrupt>
      3c:	0c 94 70 0c 	jmp	0x18e0	; 0x18e0 <__vector_15>
      40:	0c 94 c3 00 	jmp	0x186	; 0x186 <__bad_interrupt>
      44:	0c 94 c3 00 	jmp	0x186	; 0x186 <__bad_interrupt>
      48:	0c 94 c3 00 	jmp	0x186	; 0x186 <__bad_interrupt>
      4c:	0c 94 c3 00 	jmp	0x186	; 0x186 <__bad_interrupt>
      50:	0c 94 c3 00 	jmp	0x186	; 0x186 <__bad_interrupt>
      54:	0c 94 c3 00 	jmp	0x186	; 0x186 <__bad_interrupt>
      58:	0c 94 c3 00 	jmp	0x186	; 0x186 <__bad_interrupt>
      5c:	0c 94 31 0c 	jmp	0x1862	; 0x1862 <__vector_23>
      60:	0c 94 c3 00 	jmp	0x186	; 0x186 <__bad_interrupt>
      64:	0c 94 c3 00 	jmp	0x186	; 0x186 <__bad_interrupt>
      68:	0c 94 c3 00 	jmp	0x186	; 0x186 <__bad_interrupt>
      6c:	0c 94 c3 00 	jmp	0x186	; 0x186 <__bad_interrupt>
      70:	0c 94 c3 00 	jmp	0x186	; 0x186 <__bad_interrupt>
      74:	0c 94 c3 00 	jmp	0x186	; 0x186 <__bad_interrupt>
      78:	0c 94 c3 00 	jmp	0x186	; 0x186 <__bad_interrupt>
      7c:	0c 94 c3 00 	jmp	0x186	; 0x186 <__bad_interrupt>
      80:	0c 94 c3 00 	jmp	0x186	; 0x186 <__bad_interrupt>
      84:	0c 94 c3 00 	jmp	0x186	; 0x186 <__bad_interrupt>
      88:	0c 94 c3 00 	jmp	0x186	; 0x186 <__bad_interrupt>
      8c:	0c 94 c3 00 	jmp	0x186	; 0x186 <__bad_interrupt>
      90:	0c 94 c3 00 	jmp	0x186	; 0x186 <__bad_interrupt>
      94:	0c 94 c3 00 	jmp	0x186	; 0x186 <__bad_interrupt>
      98:	0c 94 c3 00 	jmp	0x186	; 0x186 <__bad_interrupt>
      9c:	0c 94 c3 00 	jmp	0x186	; 0x186 <__bad_interrupt>
      a0:	0c 94 c3 00 	jmp	0x186	; 0x186 <__bad_interrupt>
      a4:	0c 94 f5 02 	jmp	0x5ea	; 0x5ea <__vector_41>
      a8:	0c 94 c3 00 	jmp	0x186	; 0x186 <__bad_interrupt>
      ac:	0c 94 c3 00 	jmp	0x186	; 0x186 <__bad_interrupt>
      b0:	0c 94 c3 00 	jmp	0x186	; 0x186 <__bad_interrupt>
      b4:	0c 94 c3 00 	jmp	0x186	; 0x186 <__bad_interrupt>
      b8:	0c 94 49 03 	jmp	0x692	; 0x692 <__vector_46>
      bc:	0c 94 c3 00 	jmp	0x186	; 0x186 <__bad_interrupt>
      c0:	0c 94 c3 00 	jmp	0x186	; 0x186 <__bad_interrupt>
      c4:	0c 94 c3 00 	jmp	0x186	; 0x186 <__bad_interrupt>
      c8:	0c 94 af 0c 	jmp	0x195e	; 0x195e <__vector_50>
      cc:	0c 94 c3 00 	jmp	0x186	; 0x186 <__bad_interrupt>
      d0:	0c 94 c3 00 	jmp	0x186	; 0x186 <__bad_interrupt>
      d4:	0c 94 c3 00 	jmp	0x186	; 0x186 <__bad_interrupt>
      d8:	0c 94 c3 00 	jmp	0x186	; 0x186 <__bad_interrupt>
      dc:	0c 94 c3 00 	jmp	0x186	; 0x186 <__bad_interrupt>
      e0:	0c 94 c3 00 	jmp	0x186	; 0x186 <__bad_interrupt>

000000e4 <__trampolines_start>:
      e4:	0c 94 e3 02 	jmp	0x5c6	; 0x5c6 <.L28>
      e8:	0c 94 cb 02 	jmp	0x596	; 0x596 <.L32>
      ec:	0c 94 d7 02 	jmp	0x5ae	; 0x5ae <.L30>
      f0:	0c 94 fe 09 	jmp	0x13fc	; 0x13fc <.L48>
      f4:	0c 94 ce 09 	jmp	0x139c	; 0x139c <.L52>
      f8:	0c 94 da 09 	jmp	0x13b4	; 0x13b4 <.L51>
      fc:	0c 94 3a 0a 	jmp	0x1474	; 0x1474 <.L43>
     100:	0c 94 aa 09 	jmp	0x1354	; 0x1354 <.L55>
     104:	0c 94 c5 02 	jmp	0x58a	; 0x58a <.L33>
     108:	0c 94 f2 09 	jmp	0x13e4	; 0x13e4 <.L49>
     10c:	0c 94 52 0a 	jmp	0x14a4	; 0x14a4 <.L40>
     110:	0c 94 0a 0a 	jmp	0x1414	; 0x1414 <.L47>
     114:	0c 94 d1 02 	jmp	0x5a2	; 0x5a2 <.L31>
     118:	0c 94 e6 09 	jmp	0x13cc	; 0x13cc <.L50>
     11c:	0c 94 dd 02 	jmp	0x5ba	; 0x5ba <.L29>
     120:	0c 94 2e 0a 	jmp	0x145c	; 0x145c <.L44>
     124:	0c 94 bf 02 	jmp	0x57e	; 0x57e <.L34>
     128:	0c 94 e9 02 	jmp	0x5d2	; 0x5d2 <.L27>
     12c:	0c 94 b6 09 	jmp	0x136c	; 0x136c <.L54>
     130:	0c 94 16 0a 	jmp	0x142c	; 0x142c <.L46>
     134:	0c 94 22 0a 	jmp	0x1444	; 0x1444 <.L45>
     138:	0c 94 ef 02 	jmp	0x5de	; 0x5de <.L25>
     13c:	0c 94 46 0a 	jmp	0x148c	; 0x148c <.L42>
     140:	0c 94 c2 09 	jmp	0x1384	; 0x1384 <.L53>

00000144 <__ctors_end>:
     144:	11 24       	eor	r1, r1
     146:	1f be       	out	0x3f, r1	; 63
     148:	cf ef       	ldi	r28, 0xFF	; 255
     14a:	d1 e2       	ldi	r29, 0x21	; 33
     14c:	de bf       	out	0x3e, r29	; 62
     14e:	cd bf       	out	0x3d, r28	; 61
     150:	00 e0       	ldi	r16, 0x00	; 0
     152:	0c bf       	out	0x3c, r16	; 60

00000154 <__do_copy_data>:
     154:	12 e0       	ldi	r17, 0x02	; 2

00000156 <.Loc.1>:
     156:	a0 e0       	ldi	r26, 0x00	; 0

00000158 <.Loc.2>:
     158:	b2 e0       	ldi	r27, 0x02	; 2

0000015a <.Loc.3>:
     15a:	e4 e1       	ldi	r30, 0x14	; 20

0000015c <.Loc.4>:
     15c:	f6 e2       	ldi	r31, 0x26	; 38

0000015e <.Loc.5>:
     15e:	00 e0       	ldi	r16, 0x00	; 0

00000160 <.Loc.6>:
     160:	0b bf       	out	0x3b, r16	; 59

00000162 <.Loc.7>:
     162:	02 c0       	rjmp	.+4      	; 0x168 <.L__do_copy_data_start>

00000164 <.L__do_copy_data_loop>:
     164:	07 90       	elpm	r0, Z+

00000166 <.Loc.9>:
     166:	0d 92       	st	X+, r0

00000168 <.L__do_copy_data_start>:
     168:	a4 37       	cpi	r26, 0x74	; 116

0000016a <.Loc.11>:
     16a:	b1 07       	cpc	r27, r17

0000016c <.Loc.12>:
     16c:	d9 f7       	brne	.-10     	; 0x164 <.L__do_copy_data_loop>

0000016e <__do_clear_bss>:
     16e:	22 e0       	ldi	r18, 0x02	; 2

00000170 <.Loc.1>:
     170:	a4 e7       	ldi	r26, 0x74	; 116

00000172 <.Loc.2>:
     172:	b2 e0       	ldi	r27, 0x02	; 2

00000174 <.Loc.3>:
     174:	01 c0       	rjmp	.+2      	; 0x178 <.Loc.5>

00000176 <.Loc.4>:
     176:	1d 92       	st	X+, r1

00000178 <.Loc.5>:
     178:	ad 3a       	cpi	r26, 0xAD	; 173

0000017a <.Loc.6>:
     17a:	b2 07       	cpc	r27, r18

0000017c <.Loc.7>:
     17c:	e1 f7       	brne	.-8      	; 0x176 <.Loc.4>

0000017e <L0^A>:
     17e:	0e 94 57 07 	call	0xeae	; 0xeae <main>
     182:	0c 94 f0 12 	jmp	0x25e0	; 0x25e0 <_exit>

00000186 <__bad_interrupt>:
     186:	0c 94 00 00 	jmp	0	; 0x0 <__vectors>

0000018a <donk_init>:
    //led_init();
}
// --- E17-D80NK init -- ///
void donk_init(void){
    // Make input
    DDR_DONK1 &= ~(1<<PIN_DONK1);
     18a:	ea e0       	ldi	r30, 0x0A	; 10
     18c:	f1 e0       	ldi	r31, 0x01	; 1
     18e:	80 81       	ld	r24, Z
     190:	87 7f       	andi	r24, 0xF7	; 247
     192:	80 83       	st	Z, r24

00000194 <.Loc.3>:
    DDR_DONK2 &= ~(1<<PIN_DONK2);
     194:	80 81       	ld	r24, Z
     196:	8b 7f       	andi	r24, 0xFB	; 251
     198:	80 83       	st	Z, r24

0000019a <.Loc.5>:
    // Turn on pullup
    PORT_DONK1 |= (1<<PIN_DONK1);
     19a:	eb e0       	ldi	r30, 0x0B	; 11
     19c:	f1 e0       	ldi	r31, 0x01	; 1
     19e:	80 81       	ld	r24, Z

000001a0 <.Loc.6>:
     1a0:	88 60       	ori	r24, 0x08	; 8
     1a2:	80 83       	st	Z, r24

000001a4 <.Loc.7>:
    PORT_DONK2 |= (1<<PIN_DONK2);
     1a4:	80 81       	ld	r24, Z

000001a6 <.Loc.8>:
     1a6:	84 60       	ori	r24, 0x04	; 4
     1a8:	80 83       	st	Z, r24

000001aa <.Loc.9>:
}
     1aa:	08 95       	ret

000001ac <basic_io_init>:
    donk_init();
     1ac:	0e 94 c5 00 	call	0x18a	; 0x18a <donk_init>

000001b0 <.LVL0>:
}
     1b0:	08 95       	ret

000001b2 <buttons_init>:
// --- User interface buttons -- //
void buttons_init(void){
    // Make all input & enable pullup
    DDR_PLUS &= ~(1<<PIN_PLUS);
     1b2:	52 98       	cbi	0x0a, 2	; 10

000001b4 <.Loc.16>:
    PORT_PLUS |= (1<<PIN_PLUS);
     1b4:	5a 9a       	sbi	0x0b, 2	; 11

000001b6 <.Loc.18>:

    DDR_MINUS &= ~(1<<PIN_MINUS);
     1b6:	81 98       	cbi	0x10, 1	; 16

000001b8 <.Loc.20>:
    PORT_MINUS |= (1<<PIN_MINUS);
     1b8:	59 9a       	sbi	0x0b, 1	; 11

000001ba <.Loc.22>:

    DDR_ENTER &= ~(1<<PIN_ENTER);
     1ba:	53 98       	cbi	0x0a, 3	; 10

000001bc <.Loc.24>:
    PORT_ENTER |= (1<<PIN_ENTER);
     1bc:	5b 9a       	sbi	0x0b, 3	; 11

000001be <.Loc.26>:
}
     1be:	08 95       	ret

000001c0 <init_stop_button>:

// --- INIT INTERRUPT FOR STOP BUTTON --- //
void init_stop_button(void){
    DDR_STOP &= ~(1<<PIN_STOP);
     1c0:	50 98       	cbi	0x0a, 0	; 10

000001c2 <.Loc.30>:
    EICRA |= (1<<ISC01) | (1<<ISC00);  // Rising edge
     1c2:	e9 e6       	ldi	r30, 0x69	; 105
     1c4:	f0 e0       	ldi	r31, 0x00	; 0
     1c6:	80 81       	ld	r24, Z

000001c8 <.Loc.31>:
     1c8:	83 60       	ori	r24, 0x03	; 3
     1ca:	80 83       	st	Z, r24

000001cc <.Loc.32>:
    EIMSK |= (1<<INT0);
     1cc:	e8 9a       	sbi	0x1d, 0	; 29

000001ce <.Loc.34>:
}
     1ce:	08 95       	ret

000001d0 <donk_left>:
    DDR_LED |= (1<<PIN_LED);
    led_control(0);
}
// --- Functions for reading buttons and sensors --- //
char donk_left(void){
    return !(REG_DONK1 & (1<<PIN_DONK1));
     1d0:	80 91 09 01 	lds	r24, 0x0109	; 0x800109 <__TEXT_REGION_LENGTH__+0x700109>

000001d4 <.Loc.38>:
     1d4:	83 fb       	bst	r24, 3
     1d6:	88 27       	eor	r24, r24
     1d8:	80 f9       	bld	r24, 0

000001da <.Loc.39>:
}
     1da:	91 e0       	ldi	r25, 0x01	; 1
     1dc:	89 27       	eor	r24, r25
     1de:	08 95       	ret

000001e0 <donk_right>:
char donk_right(void){
    return !(REG_DONK2 & (1<<PIN_DONK2));
     1e0:	80 91 09 01 	lds	r24, 0x0109	; 0x800109 <__TEXT_REGION_LENGTH__+0x700109>

000001e4 <.Loc.43>:
     1e4:	82 fb       	bst	r24, 2
     1e6:	88 27       	eor	r24, r24
     1e8:	80 f9       	bld	r24, 0

000001ea <.Loc.44>:
}
     1ea:	91 e0       	ldi	r25, 0x01	; 1
     1ec:	89 27       	eor	r24, r25
     1ee:	08 95       	ret

000001f0 <plus_pressed>:

char plus_pressed(void) {
    return !(REG_PLUS & (1 << PIN_PLUS));
     1f0:	89 b1       	in	r24, 0x09	; 9

000001f2 <.Loc.48>:
     1f2:	82 fb       	bst	r24, 2
     1f4:	88 27       	eor	r24, r24
     1f6:	80 f9       	bld	r24, 0

000001f8 <.Loc.49>:
}
     1f8:	91 e0       	ldi	r25, 0x01	; 1
     1fa:	89 27       	eor	r24, r25
     1fc:	08 95       	ret

000001fe <minus_pressed>:

char minus_pressed(void) {
    return !(REG_MINUS & (1 << PIN_MINUS));
     1fe:	89 b1       	in	r24, 0x09	; 9

00000200 <.Loc.53>:
     200:	86 95       	lsr	r24
     202:	81 70       	andi	r24, 0x01	; 1

00000204 <.Loc.54>:
}
     204:	91 e0       	ldi	r25, 0x01	; 1
     206:	89 27       	eor	r24, r25
     208:	08 95       	ret

0000020a <enter_pressed>:

char enter_pressed(void) {
    return !(REG_ENTER & (1 << PIN_ENTER));
     20a:	89 b1       	in	r24, 0x09	; 9

0000020c <.Loc.58>:
     20c:	83 fb       	bst	r24, 3
     20e:	88 27       	eor	r24, r24
     210:	80 f9       	bld	r24, 0

00000212 <.Loc.59>:
}
     212:	91 e0       	ldi	r25, 0x01	; 1
     214:	89 27       	eor	r24, r25
     216:	08 95       	ret

00000218 <stop_pressed>:

char stop_pressed(void) {
    return (REG_STOP & (1 << PIN_STOP));
     218:	89 b1       	in	r24, 0x09	; 9

0000021a <.Loc.63>:
}
     21a:	81 70       	andi	r24, 0x01	; 1
     21c:	08 95       	ret

0000021e <plus_pressed_once>:
// --- Functions for reading single buttons presses with debounce --- //
char plus_pressed_once(void){
    static int pressed_before = 0;
    // Only return 1 when not pressed before
    if(plus_pressed()){
     21e:	0e 94 f8 00 	call	0x1f0	; 0x1f0 <plus_pressed>

00000222 <.LVL1>:
     222:	88 23       	and	r24, r24
     224:	a9 f0       	breq	.+42     	; 0x250 <.L12>

00000226 <.Loc.69>:
        if(!pressed_before){
     226:	80 91 78 02 	lds	r24, 0x0278	; 0x800278 <pressed_before.2>
     22a:	90 91 79 02 	lds	r25, 0x0279	; 0x800279 <pressed_before.2+0x1>
     22e:	89 2b       	or	r24, r25
     230:	11 f0       	breq	.+4      	; 0x236 <.L15>

00000232 <.Loc.71>:
        if(pressed_before){
            _delay_ms(DEBOUNCE_TIME);
            pressed_before = 0;
        }
    }
    return 0;
     232:	80 e0       	ldi	r24, 0x00	; 0

00000234 <.L11>:
}
     234:	08 95       	ret

00000236 <.L15>:
	#else
		//round up by default
		__ticks_dc = (uint32_t)(ceil(fabs(__tmp)));
	#endif

	__builtin_avr_delay_cycles(__ticks_dc);
     236:	8f e3       	ldi	r24, 0x3F	; 63
     238:	9c e9       	ldi	r25, 0x9C	; 156

0000023a <.L1^B1>:
     23a:	01 97       	sbiw	r24, 0x01	; 1
     23c:	f1 f7       	brne	.-4      	; 0x23a <.L1^B1>
     23e:	00 c0       	rjmp	.+0      	; 0x240 <L0^A>

00000240 <L0^A>:
	...

00000242 <.LBE14>:
            pressed_before = 1;
     242:	81 e0       	ldi	r24, 0x01	; 1
     244:	90 e0       	ldi	r25, 0x00	; 0
     246:	90 93 79 02 	sts	0x0279, r25	; 0x800279 <pressed_before.2+0x1>
     24a:	80 93 78 02 	sts	0x0278, r24	; 0x800278 <pressed_before.2>

0000024e <.Loc.84>:
            return 1;
     24e:	08 95       	ret

00000250 <.L12>:
        if(pressed_before){
     250:	20 91 78 02 	lds	r18, 0x0278	; 0x800278 <pressed_before.2>
     254:	30 91 79 02 	lds	r19, 0x0279	; 0x800279 <pressed_before.2+0x1>
     258:	23 2b       	or	r18, r19
     25a:	61 f3       	breq	.-40     	; 0x234 <.L11>

0000025c <.LBB16>:
     25c:	ef e3       	ldi	r30, 0x3F	; 63
     25e:	fc e9       	ldi	r31, 0x9C	; 156

00000260 <.L1^B2>:
     260:	31 97       	sbiw	r30, 0x01	; 1
     262:	f1 f7       	brne	.-4      	; 0x260 <.L1^B2>
     264:	00 c0       	rjmp	.+0      	; 0x266 <L0^A>

00000266 <L0^A>:
	...

00000268 <.LBE16>:
            pressed_before = 0;
     268:	10 92 79 02 	sts	0x0279, r1	; 0x800279 <pressed_before.2+0x1>
     26c:	10 92 78 02 	sts	0x0278, r1	; 0x800278 <pressed_before.2>
     270:	08 95       	ret

00000272 <minus_pressed_once>:

char minus_pressed_once(void) {
    static int pressed_before = 0;
    // Only return 1 when not pressed before
    if (minus_pressed()) {
     272:	0e 94 ff 00 	call	0x1fe	; 0x1fe <minus_pressed>

00000276 <.LVL6>:
     276:	88 23       	and	r24, r24
     278:	a9 f0       	breq	.+42     	; 0x2a4 <.L17>

0000027a <.Loc.104>:
        if (!pressed_before) {
     27a:	80 91 76 02 	lds	r24, 0x0276	; 0x800276 <pressed_before.1>
     27e:	90 91 77 02 	lds	r25, 0x0277	; 0x800277 <pressed_before.1+0x1>
     282:	89 2b       	or	r24, r25
     284:	11 f0       	breq	.+4      	; 0x28a <.L20>

00000286 <.Loc.106>:
        if (pressed_before) {
            _delay_ms(DEBOUNCE_TIME);
            pressed_before = 0;
        }
    }
    return 0;
     286:	80 e0       	ldi	r24, 0x00	; 0

00000288 <.L16>:
}
     288:	08 95       	ret

0000028a <.L20>:
     28a:	8f e3       	ldi	r24, 0x3F	; 63
     28c:	9c e9       	ldi	r25, 0x9C	; 156

0000028e <.L1^B3>:
     28e:	01 97       	sbiw	r24, 0x01	; 1
     290:	f1 f7       	brne	.-4      	; 0x28e <.L1^B3>
     292:	00 c0       	rjmp	.+0      	; 0x294 <L0^A>

00000294 <L0^A>:
	...

00000296 <.LBE18>:
            pressed_before = 1;
     296:	81 e0       	ldi	r24, 0x01	; 1
     298:	90 e0       	ldi	r25, 0x00	; 0
     29a:	90 93 77 02 	sts	0x0277, r25	; 0x800277 <pressed_before.1+0x1>
     29e:	80 93 76 02 	sts	0x0276, r24	; 0x800276 <pressed_before.1>

000002a2 <.Loc.119>:
            return 1;
     2a2:	08 95       	ret

000002a4 <.L17>:
        if (pressed_before) {
     2a4:	20 91 76 02 	lds	r18, 0x0276	; 0x800276 <pressed_before.1>
     2a8:	30 91 77 02 	lds	r19, 0x0277	; 0x800277 <pressed_before.1+0x1>
     2ac:	23 2b       	or	r18, r19
     2ae:	61 f3       	breq	.-40     	; 0x288 <.L16>

000002b0 <.LBB20>:
     2b0:	ef e3       	ldi	r30, 0x3F	; 63
     2b2:	fc e9       	ldi	r31, 0x9C	; 156

000002b4 <.L1^B4>:
     2b4:	31 97       	sbiw	r30, 0x01	; 1
     2b6:	f1 f7       	brne	.-4      	; 0x2b4 <.L1^B4>
     2b8:	00 c0       	rjmp	.+0      	; 0x2ba <L0^A>

000002ba <L0^A>:
	...

000002bc <.LBE20>:
            pressed_before = 0;
     2bc:	10 92 77 02 	sts	0x0277, r1	; 0x800277 <pressed_before.1+0x1>
     2c0:	10 92 76 02 	sts	0x0276, r1	; 0x800276 <pressed_before.1>
     2c4:	08 95       	ret

000002c6 <enter_pressed_once>:

char enter_pressed_once(void) {
    static int pressed_before = 0;
    // Only return 1 when not pressed before
    if (enter_pressed()) {
     2c6:	0e 94 05 01 	call	0x20a	; 0x20a <enter_pressed>

000002ca <.LVL11>:
     2ca:	88 23       	and	r24, r24
     2cc:	a9 f0       	breq	.+42     	; 0x2f8 <.L22>

000002ce <.Loc.139>:
        if (!pressed_before) {
     2ce:	80 91 74 02 	lds	r24, 0x0274	; 0x800274 <pressed_before.0>
     2d2:	90 91 75 02 	lds	r25, 0x0275	; 0x800275 <pressed_before.0+0x1>
     2d6:	89 2b       	or	r24, r25
     2d8:	11 f0       	breq	.+4      	; 0x2de <.L25>

000002da <.Loc.141>:
        if (pressed_before) {
            _delay_ms(DEBOUNCE_TIME);
            pressed_before = 0;
        }
    }
    return 0;
     2da:	80 e0       	ldi	r24, 0x00	; 0

000002dc <.L21>:
}
     2dc:	08 95       	ret

000002de <.L25>:
     2de:	8f e3       	ldi	r24, 0x3F	; 63
     2e0:	9c e9       	ldi	r25, 0x9C	; 156

000002e2 <.L1^B5>:
     2e2:	01 97       	sbiw	r24, 0x01	; 1
     2e4:	f1 f7       	brne	.-4      	; 0x2e2 <.L1^B5>
     2e6:	00 c0       	rjmp	.+0      	; 0x2e8 <L0^A>

000002e8 <L0^A>:
	...

000002ea <.LBE22>:
            pressed_before = 1;
     2ea:	81 e0       	ldi	r24, 0x01	; 1
     2ec:	90 e0       	ldi	r25, 0x00	; 0
     2ee:	90 93 75 02 	sts	0x0275, r25	; 0x800275 <pressed_before.0+0x1>
     2f2:	80 93 74 02 	sts	0x0274, r24	; 0x800274 <pressed_before.0>

000002f6 <.Loc.154>:
            return 1;
     2f6:	08 95       	ret

000002f8 <.L22>:
        if (pressed_before) {
     2f8:	20 91 74 02 	lds	r18, 0x0274	; 0x800274 <pressed_before.0>
     2fc:	30 91 75 02 	lds	r19, 0x0275	; 0x800275 <pressed_before.0+0x1>
     300:	23 2b       	or	r18, r19
     302:	61 f3       	breq	.-40     	; 0x2dc <.L21>

00000304 <.LBB24>:
     304:	ef e3       	ldi	r30, 0x3F	; 63
     306:	fc e9       	ldi	r31, 0x9C	; 156

00000308 <.L1^B6>:
     308:	31 97       	sbiw	r30, 0x01	; 1
     30a:	f1 f7       	brne	.-4      	; 0x308 <.L1^B6>
     30c:	00 c0       	rjmp	.+0      	; 0x30e <L0^A>

0000030e <L0^A>:
	...

00000310 <.LBE24>:
            pressed_before = 0;
     310:	10 92 75 02 	sts	0x0275, r1	; 0x800275 <pressed_before.0+0x1>
     314:	10 92 74 02 	sts	0x0274, r1	; 0x800274 <pressed_before.0>
     318:	08 95       	ret

0000031a <__vector_1>:
ISR(INT0_vect){
     31a:	1f 92       	push	r1
     31c:	0f 92       	push	r0
     31e:	0f b6       	in	r0, 0x3f	; 63
     320:	0f 92       	push	r0
     322:	11 24       	eor	r1, r1
     324:	0b b6       	in	r0, 0x3b	; 59
     326:	0f 92       	push	r0
     328:	2f 93       	push	r18
     32a:	3f 93       	push	r19
     32c:	4f 93       	push	r20
     32e:	5f 93       	push	r21
     330:	6f 93       	push	r22
     332:	7f 93       	push	r23
     334:	8f 93       	push	r24
     336:	9f 93       	push	r25
     338:	af 93       	push	r26
     33a:	bf 93       	push	r27
     33c:	cf 93       	push	r28
     33e:	df 93       	push	r29
     340:	ef 93       	push	r30
     342:	ff 93       	push	r31

00000344 <.LBB34>:
            DDR_ST2_STEP &= ~(1<<PIN_ST2_STEP);
     344:	c1 e0       	ldi	r28, 0x01	; 1
     346:	d1 e0       	ldi	r29, 0x01	; 1

00000348 <.Loc.174>:
    if(stop_pressed()){
     348:	48 99       	sbic	0x09, 0	; 9
     34a:	20 c0       	rjmp	.+64     	; 0x38c <.L27>

0000034c <.L26>:
}
     34c:	ff 91       	pop	r31
     34e:	ef 91       	pop	r30
     350:	df 91       	pop	r29
     352:	cf 91       	pop	r28
     354:	bf 91       	pop	r27
     356:	af 91       	pop	r26
     358:	9f 91       	pop	r25
     35a:	8f 91       	pop	r24
     35c:	7f 91       	pop	r23
     35e:	6f 91       	pop	r22
     360:	5f 91       	pop	r21
     362:	4f 91       	pop	r20
     364:	3f 91       	pop	r19
     366:	2f 91       	pop	r18
     368:	0f 90       	pop	r0
     36a:	0b be       	out	0x3b, r0	; 59
     36c:	0f 90       	pop	r0
     36e:	0f be       	out	0x3f, r0	; 63
     370:	0f 90       	pop	r0
     372:	1f 90       	pop	r1
     374:	18 95       	reti

00000376 <.L32>:
            DDR_ST1_STEP &= ~(1<<PIN_ST1_STEP);
     376:	9d 98       	cbi	0x13, 5	; 19

00000378 <.Loc.178>:
            DDR_ST2_STEP &= ~(1<<PIN_ST2_STEP);
     378:	88 81       	ld	r24, Y
     37a:	8f 7b       	andi	r24, 0xBF	; 191
     37c:	88 83       	st	Y, r24

0000037e <.Loc.180>:
            buzzer_enable(0);
     37e:	80 e0       	ldi	r24, 0x00	; 0
     380:	0e 94 6a 08 	call	0x10d4	; 0x10d4 <buzzer_enable>

00000384 <.LBB36>:
            if(stop_pressed()){
     384:	48 9b       	sbis	0x09, 0	; 9
     386:	0f c0       	rjmp	.+30     	; 0x3a6 <.L29>

00000388 <.Loc.185>:
                display_txt_stop();
     388:	0e 94 2a 11 	call	0x2254	; 0x2254 <display_txt_stop>

0000038c <.L27>:
        while(!plus_pressed_once() || stop_pressed()){
     38c:	0e 94 0f 01 	call	0x21e	; 0x21e <plus_pressed_once>

00000390 <.LVL18>:
     390:	88 23       	and	r24, r24
     392:	89 f3       	breq	.-30     	; 0x376 <.L32>

00000394 <.LBB38>:
     394:	48 99       	sbic	0x09, 0	; 9
     396:	ef cf       	rjmp	.-34     	; 0x376 <.L32>

00000398 <.Loc.192>:
        DDR_ST1_STEP |= (1<<PIN_ST1_STEP);
     398:	9d 9a       	sbi	0x13, 5	; 19

0000039a <.Loc.194>:
        DDR_ST2_STEP |= (1<<PIN_ST2_STEP);
     39a:	e1 e0       	ldi	r30, 0x01	; 1
     39c:	f1 e0       	ldi	r31, 0x01	; 1
     39e:	80 81       	ld	r24, Z

000003a0 <.Loc.195>:
     3a0:	80 64       	ori	r24, 0x40	; 64
     3a2:	80 83       	st	Z, r24

000003a4 <.Loc.196>:
}
     3a4:	d3 cf       	rjmp	.-90     	; 0x34c <.L26>

000003a6 <.L29>:
                if(enter_pressed_once() && !stop_pressed()){
     3a6:	0e 94 63 01 	call	0x2c6	; 0x2c6 <enter_pressed_once>

000003aa <.LVL19>:
     3aa:	88 23       	and	r24, r24
     3ac:	79 f3       	breq	.-34     	; 0x38c <.L27>

000003ae <.LBB40>:
     3ae:	48 99       	sbic	0x09, 0	; 9
     3b0:	ed cf       	rjmp	.-38     	; 0x38c <.L27>

000003b2 <.Loc.203>:
                    cli();
     3b2:	f8 94       	cli

000003b4 <.Loc.204>:
                    WDTCSR = (1 << WDE) | (1 << WDCE);
     3b4:	88 e1       	ldi	r24, 0x18	; 24
     3b6:	80 93 60 00 	sts	0x0060, r24	; 0x800060 <__TEXT_REGION_LENGTH__+0x700060>

000003ba <.L31>:
                    while (1) {}
     3ba:	ff cf       	rjmp	.-2      	; 0x3ba <.L31>

000003bc <led_control>:

void led_control(char power){
    if(power){
     3bc:	88 23       	and	r24, r24
     3be:	11 f0       	breq	.+4      	; 0x3c4 <.L35>

000003c0 <.Loc.212>:
        PORT_LED &= ~(1<<PIN_LED);
     3c0:	5f 98       	cbi	0x0b, 7	; 11
     3c2:	08 95       	ret

000003c4 <.L35>:
    }
    else{
        PORT_LED |= (1<<PIN_LED);
     3c4:	5f 9a       	sbi	0x0b, 7	; 11

000003c6 <.Loc.216>:
    }
}
     3c6:	08 95       	ret

000003c8 <led_init>:
    DDR_LED |= (1<<PIN_LED);
     3c8:	57 9a       	sbi	0x0a, 7	; 10

000003ca <.Loc.220>:
    led_control(0);
     3ca:	80 e0       	ldi	r24, 0x00	; 0
     3cc:	0e 94 de 01 	call	0x3bc	; 0x3bc <led_control>

000003d0 <.LVL21>:
}
     3d0:	08 95       	ret

000003d2 <USART0_init>:
#include "config.h"


// Init USART0 (USB naar PC - voor PuTTY)
void USART0_init(unsigned int baud) {
    unsigned int ubrr = F_CPU / 16 / baud - 1;
     3d2:	9c 01       	movw	r18, r24
     3d4:	40 e0       	ldi	r20, 0x00	; 0
     3d6:	50 e0       	ldi	r21, 0x00	; 0
     3d8:	60 e4       	ldi	r22, 0x40	; 64
     3da:	72 e4       	ldi	r23, 0x42	; 66
     3dc:	8f e0       	ldi	r24, 0x0F	; 15
     3de:	90 e0       	ldi	r25, 0x00	; 0
     3e0:	0e 94 53 11 	call	0x22a6	; 0x22a6 <__udivmodsi4>

000003e4 <.Loc.3>:
     3e4:	21 50       	subi	r18, 0x01	; 1
     3e6:	31 09       	sbc	r19, r1

000003e8 <.Loc.4>:
    UBRR0H = (unsigned char)(ubrr >> 8);
     3e8:	30 93 c5 00 	sts	0x00C5, r19	; 0x8000c5 <__TEXT_REGION_LENGTH__+0x7000c5>

000003ec <.Loc.6>:
    UBRR0L = (unsigned char)ubrr;
     3ec:	20 93 c4 00 	sts	0x00C4, r18	; 0x8000c4 <__TEXT_REGION_LENGTH__+0x7000c4>

000003f0 <.Loc.8>:
    UCSR0B = (1 << RXEN0) | (1 << TXEN0);
     3f0:	88 e1       	ldi	r24, 0x18	; 24

000003f2 <.Loc.10>:
     3f2:	80 93 c1 00 	sts	0x00C1, r24	; 0x8000c1 <__TEXT_REGION_LENGTH__+0x7000c1>

000003f6 <.Loc.11>:
    UCSR0C = (3 << UCSZ00); // 8-bit data
     3f6:	86 e0       	ldi	r24, 0x06	; 6
     3f8:	80 93 c2 00 	sts	0x00C2, r24	; 0x8000c2 <__TEXT_REGION_LENGTH__+0x7000c2>

000003fc <.Loc.13>:
}
     3fc:	08 95       	ret

000003fe <USART1_init>:

// Init USART1 (naar Slave)
void USART1_init(unsigned int baud) {
    unsigned int ubrr = F_CPU / 16 / baud - 1;
     3fe:	9c 01       	movw	r18, r24
     400:	40 e0       	ldi	r20, 0x00	; 0
     402:	50 e0       	ldi	r21, 0x00	; 0
     404:	60 e4       	ldi	r22, 0x40	; 64
     406:	72 e4       	ldi	r23, 0x42	; 66
     408:	8f e0       	ldi	r24, 0x0F	; 15
     40a:	90 e0       	ldi	r25, 0x00	; 0
     40c:	0e 94 53 11 	call	0x22a6	; 0x22a6 <__udivmodsi4>

00000410 <.Loc.17>:
     410:	21 50       	subi	r18, 0x01	; 1
     412:	31 09       	sbc	r19, r1

00000414 <.Loc.18>:
    UBRR1H = (unsigned char)(ubrr >> 8);
     414:	30 93 cd 00 	sts	0x00CD, r19	; 0x8000cd <__TEXT_REGION_LENGTH__+0x7000cd>

00000418 <.Loc.20>:
    UBRR1L = (unsigned char)ubrr;
     418:	20 93 cc 00 	sts	0x00CC, r18	; 0x8000cc <__TEXT_REGION_LENGTH__+0x7000cc>

0000041c <.Loc.22>:
    UCSR1B = (1 << RXEN1) | (1 << TXEN1);
     41c:	88 e1       	ldi	r24, 0x18	; 24

0000041e <.Loc.24>:
     41e:	80 93 c9 00 	sts	0x00C9, r24	; 0x8000c9 <__TEXT_REGION_LENGTH__+0x7000c9>

00000422 <.Loc.25>:
    UCSR1C = (3 << UCSZ10); // 8-bit data
     422:	86 e0       	ldi	r24, 0x06	; 6
     424:	80 93 ca 00 	sts	0x00CA, r24	; 0x8000ca <__TEXT_REGION_LENGTH__+0x7000ca>

00000428 <.Loc.27>:
}
     428:	08 95       	ret

0000042a <USART0_sendByte>:

// USART0: zend byte naar PC
void USART0_sendByte(uint8_t data) {
    while (!(UCSR0A & (1 << UDRE0)));
     42a:	e0 ec       	ldi	r30, 0xC0	; 192
     42c:	f0 e0       	ldi	r31, 0x00	; 0

0000042e <.L4>:
     42e:	90 81       	ld	r25, Z

00000430 <.Loc.33>:
     430:	95 ff       	sbrs	r25, 5
     432:	fd cf       	rjmp	.-6      	; 0x42e <.L4>

00000434 <.Loc.34>:
    UDR0 = data;
     434:	80 93 c6 00 	sts	0x00C6, r24	; 0x8000c6 <__TEXT_REGION_LENGTH__+0x7000c6>

00000438 <.Loc.36>:
}
     438:	08 95       	ret

0000043a <USART0_sendString>:

// USART0: zend string naar PC
void USART0_sendString(const char* str) {
     43a:	cf 93       	push	r28
     43c:	df 93       	push	r29
     43e:	c8 2f       	mov	r28, r24
     440:	d9 2f       	mov	r29, r25

00000442 <.Loc.39>:
    while (*str) {
     442:	88 81       	ld	r24, Y
     444:	88 23       	and	r24, r24
     446:	31 f0       	breq	.+12     	; 0x454 <.L6>
     448:	21 96       	adiw	r28, 0x01	; 1

0000044a <.L8>:
        USART0_sendByte(*str++);
     44a:	0e 94 15 02 	call	0x42a	; 0x42a <USART0_sendByte>

0000044e <.LVL10>:
    while (*str) {
     44e:	89 91       	ld	r24, Y+

00000450 <.Loc.44>:
     450:	81 11       	cpse	r24, r1
     452:	fb cf       	rjmp	.-10     	; 0x44a <.L8>

00000454 <.L6>:
    }
}
     454:	df 91       	pop	r29
     456:	cf 91       	pop	r28
     458:	08 95       	ret

0000045a <USART0_sendHexByte>:

// USART0: zend hexwaarde als ASCII naar PC
void USART0_sendHexByte(uint8_t byte) {
     45a:	1f 93       	push	r17
     45c:	cf 93       	push	r28
     45e:	df 93       	push	r29
     460:	cd b7       	in	r28, 0x3d	; 61
     462:	de b7       	in	r29, 0x3e	; 62
     464:	61 97       	sbiw	r28, 0x11	; 17
     466:	0f b6       	in	r0, 0x3f	; 63
     468:	f8 94       	cli
     46a:	de bf       	out	0x3e, r29	; 62
     46c:	0f be       	out	0x3f, r0	; 63
     46e:	cd bf       	out	0x3d, r28	; 61
     470:	18 2f       	mov	r17, r24

00000472 <.Loc.48>:
    char hex[] = "0123456789ABCDEF";
     472:	81 e1       	ldi	r24, 0x11	; 17

00000474 <.Loc.50>:
     474:	ef e2       	ldi	r30, 0x2F	; 47
     476:	f2 e0       	ldi	r31, 0x02	; 2
     478:	de 01       	movw	r26, r28
     47a:	11 96       	adiw	r26, 0x01	; 1

0000047c <.L^B1>:
     47c:	01 90       	ld	r0, Z+
     47e:	0d 92       	st	X+, r0
     480:	8a 95       	dec	r24
     482:	e1 f7       	brne	.-8      	; 0x47c <.L^B1>

00000484 <.Loc.51>:
    USART0_sendByte(hex[(byte >> 4) & 0x0F]);
     484:	81 2f       	mov	r24, r17
     486:	82 95       	swap	r24
     488:	8f 70       	andi	r24, 0x0F	; 15

0000048a <.Loc.53>:
     48a:	e1 e0       	ldi	r30, 0x01	; 1
     48c:	f0 e0       	ldi	r31, 0x00	; 0
     48e:	ec 0f       	add	r30, r28
     490:	fd 1f       	adc	r31, r29
     492:	e8 0f       	add	r30, r24
     494:	f1 1d       	adc	r31, r1

00000496 <.Loc.54>:
     496:	80 81       	ld	r24, Z
     498:	0e 94 15 02 	call	0x42a	; 0x42a <USART0_sendByte>

0000049c <.LVL15>:
    USART0_sendByte(hex[byte & 0x0F]);
     49c:	1f 70       	andi	r17, 0x0F	; 15

0000049e <.Loc.57>:
     49e:	e1 e0       	ldi	r30, 0x01	; 1
     4a0:	f0 e0       	ldi	r31, 0x00	; 0
     4a2:	ec 0f       	add	r30, r28
     4a4:	fd 1f       	adc	r31, r29
     4a6:	e1 0f       	add	r30, r17
     4a8:	f1 1d       	adc	r31, r1

000004aa <.Loc.58>:
     4aa:	80 81       	ld	r24, Z
     4ac:	0e 94 15 02 	call	0x42a	; 0x42a <USART0_sendByte>

000004b0 <.LVL17>:
}
     4b0:	61 96       	adiw	r28, 0x11	; 17
     4b2:	0f b6       	in	r0, 0x3f	; 63
     4b4:	f8 94       	cli
     4b6:	de bf       	out	0x3e, r29	; 62
     4b8:	0f be       	out	0x3f, r0	; 63
     4ba:	cd bf       	out	0x3d, r28	; 61
     4bc:	df 91       	pop	r29
     4be:	cf 91       	pop	r28
     4c0:	1f 91       	pop	r17
     4c2:	08 95       	ret

000004c4 <USART1_sendCommand>:

// USART1: zend 4-byte commando naar Slave
void USART1_sendCommand(uint8_t b1, uint8_t b2, uint8_t b3, uint8_t b4) {
     4c4:	0f 93       	push	r16
     4c6:	1f 93       	push	r17
     4c8:	cf 93       	push	r28
     4ca:	df 93       	push	r29
     4cc:	08 2f       	mov	r16, r24
     4ce:	16 2f       	mov	r17, r22
     4d0:	d4 2f       	mov	r29, r20
     4d2:	c2 2f       	mov	r28, r18

000004d4 <.Loc.62>:
    USART0_sendString("MASTER: Sending to Slave: ");
     4d4:	80 e4       	ldi	r24, 0x40	; 64
     4d6:	92 e0       	ldi	r25, 0x02	; 2

000004d8 <.Loc.63>:
     4d8:	0e 94 1d 02 	call	0x43a	; 0x43a <USART0_sendString>

000004dc <.LVL20>:
    USART0_sendHexByte(b1); USART0_sendByte(' ');
     4dc:	80 2f       	mov	r24, r16
     4de:	0e 94 2d 02 	call	0x45a	; 0x45a <USART0_sendHexByte>

000004e2 <.LVL21>:
     4e2:	80 e2       	ldi	r24, 0x20	; 32
     4e4:	0e 94 15 02 	call	0x42a	; 0x42a <USART0_sendByte>

000004e8 <.LVL22>:
    USART0_sendHexByte(b2); USART0_sendByte(' ');
     4e8:	81 2f       	mov	r24, r17
     4ea:	0e 94 2d 02 	call	0x45a	; 0x45a <USART0_sendHexByte>

000004ee <.LVL23>:
     4ee:	80 e2       	ldi	r24, 0x20	; 32
     4f0:	0e 94 15 02 	call	0x42a	; 0x42a <USART0_sendByte>

000004f4 <.LVL24>:
    USART0_sendHexByte(b3); USART0_sendByte(' ');
     4f4:	8d 2f       	mov	r24, r29
     4f6:	0e 94 2d 02 	call	0x45a	; 0x45a <USART0_sendHexByte>

000004fa <.LVL25>:
     4fa:	80 e2       	ldi	r24, 0x20	; 32
     4fc:	0e 94 15 02 	call	0x42a	; 0x42a <USART0_sendByte>

00000500 <.LVL26>:
    USART0_sendHexByte(b4); USART0_sendString("\r\n");
     500:	8c 2f       	mov	r24, r28
     502:	0e 94 2d 02 	call	0x45a	; 0x45a <USART0_sendHexByte>

00000506 <.LVL27>:
     506:	80 e7       	ldi	r24, 0x70	; 112
     508:	92 e0       	ldi	r25, 0x02	; 2
     50a:	0e 94 1d 02 	call	0x43a	; 0x43a <USART0_sendString>

0000050e <.LVL28>:

    while (!(UCSR1A & (1 << UDRE1))) {}
     50e:	e8 ec       	ldi	r30, 0xC8	; 200
     510:	f0 e0       	ldi	r31, 0x00	; 0

00000512 <.L12>:
     512:	90 81       	ld	r25, Z

00000514 <.Loc.77>:
     514:	95 ff       	sbrs	r25, 5
     516:	fd cf       	rjmp	.-6      	; 0x512 <.L12>

00000518 <.Loc.78>:
    UDR1 = b1;
     518:	00 93 ce 00 	sts	0x00CE, r16	; 0x8000ce <__TEXT_REGION_LENGTH__+0x7000ce>

0000051c <.Loc.80>:
    while (!(UCSR1A & (1 << UDRE1))) {}
     51c:	e8 ec       	ldi	r30, 0xC8	; 200
     51e:	f0 e0       	ldi	r31, 0x00	; 0

00000520 <.L13>:
     520:	90 81       	ld	r25, Z

00000522 <.Loc.85>:
     522:	95 ff       	sbrs	r25, 5
     524:	fd cf       	rjmp	.-6      	; 0x520 <.L13>

00000526 <.Loc.86>:
    UDR1 = b2;
     526:	10 93 ce 00 	sts	0x00CE, r17	; 0x8000ce <__TEXT_REGION_LENGTH__+0x7000ce>

0000052a <.Loc.88>:
    while (!(UCSR1A & (1 << UDRE1))) {}
     52a:	e8 ec       	ldi	r30, 0xC8	; 200
     52c:	f0 e0       	ldi	r31, 0x00	; 0

0000052e <.L14>:
     52e:	90 81       	ld	r25, Z

00000530 <.Loc.93>:
     530:	95 ff       	sbrs	r25, 5
     532:	fd cf       	rjmp	.-6      	; 0x52e <.L14>

00000534 <.Loc.94>:
    UDR1 = b3;
     534:	d0 93 ce 00 	sts	0x00CE, r29	; 0x8000ce <__TEXT_REGION_LENGTH__+0x7000ce>

00000538 <.Loc.96>:
    while (!(UCSR1A & (1 << UDRE1))) {}
     538:	e8 ec       	ldi	r30, 0xC8	; 200
     53a:	f0 e0       	ldi	r31, 0x00	; 0

0000053c <.L15>:
     53c:	90 81       	ld	r25, Z

0000053e <.Loc.101>:
     53e:	95 ff       	sbrs	r25, 5
     540:	fd cf       	rjmp	.-6      	; 0x53c <.L15>

00000542 <.Loc.102>:
    UDR1 = b4;
     542:	c0 93 ce 00 	sts	0x00CE, r28	; 0x8000ce <__TEXT_REGION_LENGTH__+0x7000ce>

00000546 <.Loc.104>:
    USART0_sendString("MASTER: Command sent.\r\n");
     546:	8b e5       	ldi	r24, 0x5B	; 91
     548:	92 e0       	ldi	r25, 0x02	; 2
     54a:	0e 94 1d 02 	call	0x43a	; 0x43a <USART0_sendString>

0000054e <.LVL29>:
}
     54e:	df 91       	pop	r29

00000550 <.Loc.106>:
     550:	cf 91       	pop	r28

00000552 <.Loc.107>:
     552:	1f 91       	pop	r17

00000554 <.Loc.108>:
     554:	0f 91       	pop	r16

00000556 <.Loc.109>:
     556:	08 95       	ret

00000558 <USART1_receiveByte>:

// USART1: ontvang byte van Slave
uint8_t USART1_receiveByte(void) {
    while (!(UCSR1A & (1 << RXC1)));
     558:	e8 ec       	ldi	r30, 0xC8	; 200
     55a:	f0 e0       	ldi	r31, 0x00	; 0

0000055c <.L21>:
     55c:	80 81       	ld	r24, Z

0000055e <.Loc.115>:
     55e:	88 23       	and	r24, r24
     560:	ec f7       	brge	.-6      	; 0x55c <.L21>

00000562 <.Loc.116>:
    return UDR1;
     562:	80 91 ce 00 	lds	r24, 0x00CE	; 0x8000ce <__TEXT_REGION_LENGTH__+0x7000ce>

00000566 <.Loc.118>:
}
     566:	08 95       	ret

00000568 <task_manager>:



void task_manager(tasks_bibo current_task, uint8_t speed, uint8_t acceleration) {
     568:	e8 2f       	mov	r30, r24
     56a:	f9 2f       	mov	r31, r25
     56c:	24 2f       	mov	r18, r20

0000056e <.Loc.121>:
    switch (current_task) {
     56e:	09 97       	sbiw	r24, 0x09	; 9
     570:	d8 f5       	brcc	.+118    	; 0x5e8 <.L23>
     572:	88 27       	eor	r24, r24
     574:	ee 50       	subi	r30, 0x0E	; 14
     576:	fd 4e       	sbci	r31, 0xED	; 237
     578:	8f 4f       	sbci	r24, 0xFF	; 255
     57a:	0c 94 94 11 	jmp	0x2328	; 0x2328 <__tablejump2__>

0000057e <.L34>:
        case forward_slow:  USART1_sendCommand(0x01, 0x80, speed, acceleration); break;
     57e:	46 2f       	mov	r20, r22

00000580 <.Loc.123>:
     580:	60 e8       	ldi	r22, 0x80	; 128

00000582 <.Loc.124>:
     582:	81 e0       	ldi	r24, 0x01	; 1
     584:	0e 94 62 02 	call	0x4c4	; 0x4c4 <USART1_sendCommand>

00000588 <.LVL38>:
     588:	08 95       	ret

0000058a <.L33>:
        case forward_fast:  USART1_sendCommand(0x01, 0xFF, speed, acceleration); break;
     58a:	46 2f       	mov	r20, r22
     58c:	6f ef       	ldi	r22, 0xFF	; 255

0000058e <.Loc.127>:
     58e:	81 e0       	ldi	r24, 0x01	; 1
     590:	0e 94 62 02 	call	0x4c4	; 0x4c4 <USART1_sendCommand>

00000594 <.LVL41>:
     594:	08 95       	ret

00000596 <.L32>:
        case backward_slow: USART1_sendCommand(0x01, 0x00, speed, acceleration); break;
     596:	46 2f       	mov	r20, r22
     598:	60 e0       	ldi	r22, 0x00	; 0

0000059a <.Loc.130>:
     59a:	81 e0       	ldi	r24, 0x01	; 1
     59c:	0e 94 62 02 	call	0x4c4	; 0x4c4 <USART1_sendCommand>

000005a0 <.LVL44>:
     5a0:	08 95       	ret

000005a2 <.L31>:
        case backward_fast: USART1_sendCommand(0x01, 0x7E, speed, acceleration); break;
     5a2:	46 2f       	mov	r20, r22
     5a4:	6e e7       	ldi	r22, 0x7E	; 126

000005a6 <.Loc.133>:
     5a6:	81 e0       	ldi	r24, 0x01	; 1
     5a8:	0e 94 62 02 	call	0x4c4	; 0x4c4 <USART1_sendCommand>

000005ac <.LVL47>:
     5ac:	08 95       	ret

000005ae <.L30>:
        case stop:          USART1_sendCommand(0x01, 0x7F, speed, acceleration); break;
     5ae:	46 2f       	mov	r20, r22
     5b0:	6f e7       	ldi	r22, 0x7F	; 127

000005b2 <.Loc.136>:
     5b2:	81 e0       	ldi	r24, 0x01	; 1
     5b4:	0e 94 62 02 	call	0x4c4	; 0x4c4 <USART1_sendCommand>

000005b8 <.LVL50>:
     5b8:	08 95       	ret

000005ba <.L29>:
        case turn_left:     USART1_sendCommand(0x02, 0x01, speed, acceleration); break;
     5ba:	46 2f       	mov	r20, r22
     5bc:	61 e0       	ldi	r22, 0x01	; 1

000005be <.Loc.139>:
     5be:	82 e0       	ldi	r24, 0x02	; 2
     5c0:	0e 94 62 02 	call	0x4c4	; 0x4c4 <USART1_sendCommand>

000005c4 <.LVL53>:
     5c4:	08 95       	ret

000005c6 <.L28>:
        case turn_right:    USART1_sendCommand(0x02, 0x02, speed, acceleration); break;
     5c6:	46 2f       	mov	r20, r22
     5c8:	62 e0       	ldi	r22, 0x02	; 2

000005ca <.Loc.142>:
     5ca:	82 e0       	ldi	r24, 0x02	; 2
     5cc:	0e 94 62 02 	call	0x4c4	; 0x4c4 <USART1_sendCommand>

000005d0 <.LVL56>:
     5d0:	08 95       	ret

000005d2 <.L27>:
        case turn_left_H:   USART1_sendCommand(0x03, 0x01, speed, acceleration); break;
     5d2:	46 2f       	mov	r20, r22
     5d4:	61 e0       	ldi	r22, 0x01	; 1

000005d6 <.Loc.145>:
     5d6:	83 e0       	ldi	r24, 0x03	; 3
     5d8:	0e 94 62 02 	call	0x4c4	; 0x4c4 <USART1_sendCommand>

000005dc <.LVL59>:
     5dc:	08 95       	ret

000005de <.L25>:
        case turn_right_H:  USART1_sendCommand(0x03, 0x02, speed, acceleration); break;
     5de:	46 2f       	mov	r20, r22
     5e0:	62 e0       	ldi	r22, 0x02	; 2

000005e2 <.Loc.148>:
     5e2:	83 e0       	ldi	r24, 0x03	; 3
     5e4:	0e 94 62 02 	call	0x4c4	; 0x4c4 <USART1_sendCommand>

000005e8 <.L23>:
    }
}
     5e8:	08 95       	ret

000005ea <__vector_41>:
#include <util/atomic.h>
// Distances in centimeters get updated with approx 30Hz
volatile unsigned int left_distance = 0;
volatile unsigned int right_distance = 0;

ISR(TIMER4_CAPT_vect){
     5ea:	0f 92       	push	r0
     5ec:	0f b6       	in	r0, 0x3f	; 63
     5ee:	0f 92       	push	r0
     5f0:	1f 92       	push	r1
     5f2:	11 24       	eor	r1, r1
     5f4:	2f 93       	push	r18
     5f6:	2b b7       	in	r18, 0x3b	; 59
     5f8:	2f 93       	push	r18
     5fa:	3f 93       	push	r19
     5fc:	6f 93       	push	r22
     5fe:	7f 93       	push	r23
     600:	8f 93       	push	r24
     602:	9f 93       	push	r25
     604:	af 93       	push	r26
     606:	bf 93       	push	r27
     608:	ef 93       	push	r30
     60a:	ff 93       	push	r31

0000060c <.Loc.1>:
    static volatile unsigned int start_time = 0;
    // If interrupt is set to rising edge
    if (TCCR4B & (1 << ICES4)) {
     60c:	80 91 a1 00 	lds	r24, 0x00A1	; 0x8000a1 <__TEXT_REGION_LENGTH__+0x7000a1>

00000610 <.Loc.4>:
     610:	86 ff       	sbrs	r24, 6
     612:	1e c0       	rjmp	.+60     	; 0x650 <.L2>

00000614 <.Loc.5>:
        // Store echo start value
        start_time = ICR4;
     614:	80 91 a6 00 	lds	r24, 0x00A6	; 0x8000a6 <__TEXT_REGION_LENGTH__+0x7000a6>
     618:	90 91 a7 00 	lds	r25, 0x00A7	; 0x8000a7 <__TEXT_REGION_LENGTH__+0x7000a7>

0000061c <.Loc.7>:
     61c:	90 93 81 02 	sts	0x0281, r25	; 0x800281 <start_time.1+0x1>
     620:	80 93 80 02 	sts	0x0280, r24	; 0x800280 <start_time.1>

00000624 <.Loc.8>:
        // Switch to falling edge
        TCCR4B &= ~(1 << ICES4);
     624:	e1 ea       	ldi	r30, 0xA1	; 161
     626:	f0 e0       	ldi	r31, 0x00	; 0
     628:	80 81       	ld	r24, Z
     62a:	8f 7b       	andi	r24, 0xBF	; 191
     62c:	80 83       	st	Z, r24

0000062e <.L1>:
        // Switch back to rising edge
        TCCR4B |= (1 << ICES4);
        // distance in centimeters = (total_time/2)*0.01715 - to simplify this: distance = total_time/117
        left_distance = (ICR4 - start_time)/117;
    }
}
     62e:	ff 91       	pop	r31
     630:	ef 91       	pop	r30
     632:	bf 91       	pop	r27
     634:	af 91       	pop	r26
     636:	9f 91       	pop	r25
     638:	8f 91       	pop	r24
     63a:	7f 91       	pop	r23
     63c:	6f 91       	pop	r22
     63e:	3f 91       	pop	r19
     640:	2f 91       	pop	r18
     642:	2b bf       	out	0x3b, r18	; 59
     644:	2f 91       	pop	r18
     646:	1f 90       	pop	r1
     648:	0f 90       	pop	r0
     64a:	0f be       	out	0x3f, r0	; 63
     64c:	0f 90       	pop	r0
     64e:	18 95       	reti

00000650 <.L2>:
        TCCR4B |= (1 << ICES4);
     650:	e1 ea       	ldi	r30, 0xA1	; 161
     652:	f0 e0       	ldi	r31, 0x00	; 0
     654:	80 81       	ld	r24, Z

00000656 <.Loc.12>:
     656:	80 64       	ori	r24, 0x40	; 64
     658:	80 83       	st	Z, r24

0000065a <.Loc.13>:
        left_distance = (ICR4 - start_time)/117;
     65a:	20 91 a6 00 	lds	r18, 0x00A6	; 0x8000a6 <__TEXT_REGION_LENGTH__+0x7000a6>
     65e:	30 91 a7 00 	lds	r19, 0x00A7	; 0x8000a7 <__TEXT_REGION_LENGTH__+0x7000a7>

00000662 <.Loc.15>:
     662:	80 91 80 02 	lds	r24, 0x0280	; 0x800280 <start_time.1>
     666:	90 91 81 02 	lds	r25, 0x0281	; 0x800281 <start_time.1+0x1>
     66a:	28 1b       	sub	r18, r24
     66c:	39 0b       	sbc	r19, r25

0000066e <.Loc.16>:
     66e:	a9 e0       	ldi	r26, 0x09	; 9
     670:	bc e8       	ldi	r27, 0x8C	; 140
     672:	0e 94 9c 11 	call	0x2338	; 0x2338 <__umulhisi3>
     676:	00 24       	eor	r0, r0
     678:	88 0f       	add	r24, r24
     67a:	99 1f       	adc	r25, r25
     67c:	00 1c       	adc	r0, r0
     67e:	88 0f       	add	r24, r24
     680:	99 1f       	adc	r25, r25
     682:	00 1c       	adc	r0, r0
     684:	89 2f       	mov	r24, r25
     686:	90 2d       	mov	r25, r0

00000688 <.Loc.17>:
     688:	90 93 7d 02 	sts	0x027D, r25	; 0x80027d <left_distance+0x1>
     68c:	80 93 7c 02 	sts	0x027C, r24	; 0x80027c <left_distance>

00000690 <.Loc.18>:
}
     690:	ce cf       	rjmp	.-100    	; 0x62e <.L1>

00000692 <__vector_46>:

ISR(TIMER5_CAPT_vect){
     692:	0f 92       	push	r0
     694:	0f b6       	in	r0, 0x3f	; 63
     696:	0f 92       	push	r0
     698:	1f 92       	push	r1
     69a:	11 24       	eor	r1, r1
     69c:	2f 93       	push	r18
     69e:	2b b7       	in	r18, 0x3b	; 59
     6a0:	2f 93       	push	r18
     6a2:	3f 93       	push	r19
     6a4:	6f 93       	push	r22
     6a6:	7f 93       	push	r23
     6a8:	8f 93       	push	r24
     6aa:	9f 93       	push	r25
     6ac:	af 93       	push	r26
     6ae:	bf 93       	push	r27
     6b0:	ef 93       	push	r30
     6b2:	ff 93       	push	r31

000006b4 <.Loc.20>:
    static volatile unsigned int start_time = 0;
    // If interrupt is set to rising edge
    if (TCCR5B & (1 << ICES5)) {
     6b4:	80 91 21 01 	lds	r24, 0x0121	; 0x800121 <__TEXT_REGION_LENGTH__+0x700121>

000006b8 <.Loc.23>:
     6b8:	86 ff       	sbrs	r24, 6
     6ba:	1e c0       	rjmp	.+60     	; 0x6f8 <.L5>

000006bc <.Loc.24>:
        // Store echo start value
        start_time = ICR5;
     6bc:	80 91 26 01 	lds	r24, 0x0126	; 0x800126 <__TEXT_REGION_LENGTH__+0x700126>
     6c0:	90 91 27 01 	lds	r25, 0x0127	; 0x800127 <__TEXT_REGION_LENGTH__+0x700127>

000006c4 <.Loc.26>:
     6c4:	90 93 7f 02 	sts	0x027F, r25	; 0x80027f <start_time.0+0x1>
     6c8:	80 93 7e 02 	sts	0x027E, r24	; 0x80027e <start_time.0>

000006cc <.Loc.27>:
        // Switch to falling edge
        TCCR5B &= ~(1 << ICES5);
     6cc:	e1 e2       	ldi	r30, 0x21	; 33
     6ce:	f1 e0       	ldi	r31, 0x01	; 1
     6d0:	80 81       	ld	r24, Z
     6d2:	8f 7b       	andi	r24, 0xBF	; 191
     6d4:	80 83       	st	Z, r24

000006d6 <.L4>:
        // Switch back to rising edge
        TCCR5B |= (1 << ICES5);
        // distance in centimeters = (total_time/2)*0.01715 - to simplify this: distance = total_time/117
        right_distance = (ICR5 - start_time)/117;
    }
}
     6d6:	ff 91       	pop	r31
     6d8:	ef 91       	pop	r30
     6da:	bf 91       	pop	r27
     6dc:	af 91       	pop	r26
     6de:	9f 91       	pop	r25
     6e0:	8f 91       	pop	r24
     6e2:	7f 91       	pop	r23
     6e4:	6f 91       	pop	r22
     6e6:	3f 91       	pop	r19
     6e8:	2f 91       	pop	r18
     6ea:	2b bf       	out	0x3b, r18	; 59
     6ec:	2f 91       	pop	r18
     6ee:	1f 90       	pop	r1
     6f0:	0f 90       	pop	r0
     6f2:	0f be       	out	0x3f, r0	; 63
     6f4:	0f 90       	pop	r0
     6f6:	18 95       	reti

000006f8 <.L5>:
        TCCR5B |= (1 << ICES5);
     6f8:	e1 e2       	ldi	r30, 0x21	; 33
     6fa:	f1 e0       	ldi	r31, 0x01	; 1
     6fc:	80 81       	ld	r24, Z

000006fe <.Loc.31>:
     6fe:	80 64       	ori	r24, 0x40	; 64
     700:	80 83       	st	Z, r24

00000702 <.Loc.32>:
        right_distance = (ICR5 - start_time)/117;
     702:	20 91 26 01 	lds	r18, 0x0126	; 0x800126 <__TEXT_REGION_LENGTH__+0x700126>
     706:	30 91 27 01 	lds	r19, 0x0127	; 0x800127 <__TEXT_REGION_LENGTH__+0x700127>

0000070a <.Loc.34>:
     70a:	80 91 7e 02 	lds	r24, 0x027E	; 0x80027e <start_time.0>
     70e:	90 91 7f 02 	lds	r25, 0x027F	; 0x80027f <start_time.0+0x1>
     712:	28 1b       	sub	r18, r24
     714:	39 0b       	sbc	r19, r25

00000716 <.Loc.35>:
     716:	a9 e0       	ldi	r26, 0x09	; 9
     718:	bc e8       	ldi	r27, 0x8C	; 140
     71a:	0e 94 9c 11 	call	0x2338	; 0x2338 <__umulhisi3>
     71e:	00 24       	eor	r0, r0
     720:	88 0f       	add	r24, r24
     722:	99 1f       	adc	r25, r25
     724:	00 1c       	adc	r0, r0
     726:	88 0f       	add	r24, r24
     728:	99 1f       	adc	r25, r25
     72a:	00 1c       	adc	r0, r0
     72c:	89 2f       	mov	r24, r25
     72e:	90 2d       	mov	r25, r0

00000730 <.Loc.36>:
     730:	90 93 7b 02 	sts	0x027B, r25	; 0x80027b <right_distance+0x1>
     734:	80 93 7a 02 	sts	0x027A, r24	; 0x80027a <right_distance>

00000738 <.Loc.37>:
}
     738:	ce cf       	rjmp	.-100    	; 0x6d6 <.L4>

0000073a <ultrasonic_sync>:
    // Set trigger for primary sensor set
    ultrasonic_select(0);
}
// Sync timers for precise timing
void ultrasonic_sync(void){
    TCNT4 = 0;
     73a:	10 92 a5 00 	sts	0x00A5, r1	; 0x8000a5 <__TEXT_REGION_LENGTH__+0x7000a5>
     73e:	10 92 a4 00 	sts	0x00A4, r1	; 0x8000a4 <__TEXT_REGION_LENGTH__+0x7000a4>

00000742 <.Loc.41>:
    TCNT5 = 0;
     742:	10 92 25 01 	sts	0x0125, r1	; 0x800125 <__TEXT_REGION_LENGTH__+0x700125>
     746:	10 92 24 01 	sts	0x0124, r1	; 0x800124 <__TEXT_REGION_LENGTH__+0x700124>

0000074a <.Loc.43>:
}
     74a:	08 95       	ret

0000074c <ultrasonic_select>:
// Select sensor set
void ultrasonic_select(char selection){
    // Trigger timer 5 enabled
    if(selection == 0){
     74c:	81 11       	cpse	r24, r1
     74e:	10 c0       	rjmp	.+32     	; 0x770 <.L9>

00000750 <.Loc.47>:
        TCCR4A &= ~(1<< COM4B1);
     750:	e0 ea       	ldi	r30, 0xA0	; 160
     752:	f0 e0       	ldi	r31, 0x00	; 0
     754:	80 81       	ld	r24, Z

00000756 <.Loc.48>:
     756:	80 62       	ori	r24, 0x20	; 32
     758:	80 83       	st	Z, r24

0000075a <.Loc.49>:
        PORT_TRIG4 &= ~(1<<PIN_TRIG4);
     75a:	e0 e2       	ldi	r30, 0x20	; 32
     75c:	f1 e0       	ldi	r31, 0x01	; 1
     75e:	80 81       	ld	r24, Z
     760:	8f 7d       	andi	r24, 0xDF	; 223
     762:	80 83       	st	Z, r24

00000764 <.Loc.51>:
        TCCR5A |= (1<< COM5B1);
     764:	eb e0       	ldi	r30, 0x0B	; 11
     766:	f1 e0       	ldi	r31, 0x01	; 1
     768:	80 81       	ld	r24, Z
     76a:	8f 7e       	andi	r24, 0xEF	; 239
     76c:	80 83       	st	Z, r24
     76e:	08 95       	ret

00000770 <.L9>:
    }
    // Trigger timer 4 enabled
    else{
        TCCR4A |= (1<< COM4B1);
     770:	e0 ea       	ldi	r30, 0xA0	; 160
     772:	f0 e0       	ldi	r31, 0x00	; 0
     774:	80 81       	ld	r24, Z

00000776 <.Loc.55>:
     776:	8f 7d       	andi	r24, 0xDF	; 223
     778:	80 83       	st	Z, r24

0000077a <.Loc.56>:
        TCCR5A &= ~(1<< COM5B1);
     77a:	e2 e0       	ldi	r30, 0x02	; 2
     77c:	f1 e0       	ldi	r31, 0x01	; 1
     77e:	80 81       	ld	r24, Z
     780:	8f 7e       	andi	r24, 0xEF	; 239
     782:	80 83       	st	Z, r24

00000784 <.Loc.58>:
        PORT_TRIG5 &= ~(1<<PIN_TRIG5);
     784:	e0 e2       	ldi	r30, 0x20	; 32
     786:	f1 e0       	ldi	r31, 0x01	; 1
     788:	80 81       	ld	r24, Z

0000078a <.Loc.59>:
     78a:	80 62       	ori	r24, 0x20	; 32
     78c:	80 83       	st	Z, r24

0000078e <.Loc.60>:
    }
}
// Get distance functions to prevent interrupt during distance read
     78e:	08 95       	ret

00000790 <ultrasonic_init>:
    DDR_TRIG4 |= (1 << PIN_TRIG4);
     790:	e1 e0       	ldi	r30, 0x01	; 1
     792:	f1 e0       	ldi	r31, 0x01	; 1
     794:	80 81       	ld	r24, Z

00000796 <.Loc.63>:
     796:	80 61       	ori	r24, 0x10	; 16
     798:	80 83       	st	Z, r24

0000079a <.Loc.64>:
    PORT_TRIG4 &= ~(1 << PIN_TRIG4);
     79a:	e2 e0       	ldi	r30, 0x02	; 2
     79c:	f1 e0       	ldi	r31, 0x01	; 1
     79e:	80 81       	ld	r24, Z
     7a0:	8f 7e       	andi	r24, 0xEF	; 239
     7a2:	80 83       	st	Z, r24

000007a4 <.Loc.66>:
    DDR_TRIG5 |= (1 << PIN_TRIG5);
     7a4:	ea e0       	ldi	r30, 0x0A	; 10
     7a6:	f1 e0       	ldi	r31, 0x01	; 1
     7a8:	80 81       	ld	r24, Z

000007aa <.Loc.67>:
     7aa:	80 61       	ori	r24, 0x10	; 16
     7ac:	80 83       	st	Z, r24

000007ae <.Loc.68>:
    PORT_TRIG5 &= ~(1 << PIN_TRIG5);
     7ae:	ab e0       	ldi	r26, 0x0B	; 11
     7b0:	b1 e0       	ldi	r27, 0x01	; 1
     7b2:	8c 91       	ld	r24, X
     7b4:	8f 7e       	andi	r24, 0xEF	; 239
     7b6:	8c 93       	st	X, r24

000007b8 <.Loc.70>:
    DDR_ECHO4 &= ~(1 << PIN_ECHO4);
     7b8:	80 81       	ld	r24, Z
     7ba:	8e 7f       	andi	r24, 0xFE	; 254
     7bc:	80 83       	st	Z, r24

000007be <.Loc.72>:
    DDR_ECHO5 &= ~(1 << PIN_ECHO5);
     7be:	80 81       	ld	r24, Z
     7c0:	8d 7f       	andi	r24, 0xFD	; 253
     7c2:	80 83       	st	Z, r24

000007c4 <.Loc.74>:
    TCCR4A = (1<< COM4B1) | (1 << WGM41) | (1 << WGM40);
     7c4:	93 e2       	ldi	r25, 0x23	; 35
     7c6:	90 93 a0 00 	sts	0x00A0, r25	; 0x8000a0 <__TEXT_REGION_LENGTH__+0x7000a0>

000007ca <.Loc.76>:
    TCCR4B = (1 << ICES4) | (1<< WGM43) | (1<< WGM42) | (1 << CS41);
     7ca:	8a e5       	ldi	r24, 0x5A	; 90
     7cc:	80 93 a1 00 	sts	0x00A1, r24	; 0x8000a1 <__TEXT_REGION_LENGTH__+0x7000a1>

000007d0 <.Loc.78>:
    TIMSK4 = (1 << ICIE4);
     7d0:	20 e2       	ldi	r18, 0x20	; 32
     7d2:	20 93 72 00 	sts	0x0072, r18	; 0x800072 <__TEXT_REGION_LENGTH__+0x700072>

000007d6 <.Loc.80>:
    TCCR5A = (1<< COM5B1) | (1 << WGM51) | (1 << WGM50);
     7d6:	90 93 20 01 	sts	0x0120, r25	; 0x800120 <__TEXT_REGION_LENGTH__+0x700120>

000007da <.Loc.82>:
    TCCR5B = (1 << ICES5) | (1<< WGM53) | (1<< WGM52) | (1 << CS51);
     7da:	80 93 21 01 	sts	0x0121, r24	; 0x800121 <__TEXT_REGION_LENGTH__+0x700121>

000007de <.Loc.84>:
    TIMSK5 = (1 << ICIE5) | (1 << TOV5);
     7de:	81 e2       	ldi	r24, 0x21	; 33
     7e0:	80 93 73 00 	sts	0x0073, r24	; 0x800073 <__TEXT_REGION_LENGTH__+0x700073>

000007e4 <.Loc.86>:
    OCR4A = 0xFFFF;
     7e4:	8f ef       	ldi	r24, 0xFF	; 255
     7e6:	9f ef       	ldi	r25, 0xFF	; 255
     7e8:	90 93 a9 00 	sts	0x00A9, r25	; 0x8000a9 <__TEXT_REGION_LENGTH__+0x7000a9>
     7ec:	80 93 a8 00 	sts	0x00A8, r24	; 0x8000a8 <__TEXT_REGION_LENGTH__+0x7000a8>

000007f0 <.Loc.88>:
    OCR5A = 0xFFFF;
     7f0:	90 93 29 01 	sts	0x0129, r25	; 0x800129 <__TEXT_REGION_LENGTH__+0x700129>
     7f4:	80 93 28 01 	sts	0x0128, r24	; 0x800128 <__TEXT_REGION_LENGTH__+0x700128>

000007f8 <.Loc.90>:
    OCR4B = 20;
     7f8:	84 e1       	ldi	r24, 0x14	; 20
     7fa:	90 e0       	ldi	r25, 0x00	; 0
     7fc:	90 93 ab 00 	sts	0x00AB, r25	; 0x8000ab <__TEXT_REGION_LENGTH__+0x7000ab>
     800:	80 93 aa 00 	sts	0x00AA, r24	; 0x8000aa <__TEXT_REGION_LENGTH__+0x7000aa>

00000804 <.Loc.92>:
    OCR5B = 20;
     804:	90 93 2b 01 	sts	0x012B, r25	; 0x80012b <__TEXT_REGION_LENGTH__+0x70012b>
     808:	80 93 2a 01 	sts	0x012A, r24	; 0x80012a <__TEXT_REGION_LENGTH__+0x70012a>

0000080c <.Loc.94>:
    ultrasonic_sync();
     80c:	0e 94 9d 03 	call	0x73a	; 0x73a <ultrasonic_sync>

00000810 <.LVL4>:
    ultrasonic_select(0);
     810:	80 e0       	ldi	r24, 0x00	; 0
     812:	0e 94 a6 03 	call	0x74c	; 0x74c <ultrasonic_select>

00000816 <.LVL5>:
}
     816:	08 95       	ret

00000818 <get_left_distance>:
int get_left_distance(void){
        unsigned int value;
    ATOMIC_BLOCK(ATOMIC_RESTORESTATE) {  // Disables interrupts temporarily
        value = left_distance;
     818:	2f b7       	in	r18, 0x3f	; 63

0000081a <.LBB13>:
    return 1;
}

static __inline__ uint8_t __iCliRetVal(void)
{
    cli();
     81a:	f8 94       	cli

0000081c <.LBE13>:
    }
     81c:	80 91 7c 02 	lds	r24, 0x027C	; 0x80027c <left_distance>
     820:	90 91 7d 02 	lds	r25, 0x027D	; 0x80027d <left_distance+0x1>

00000824 <.LBB15>:
    (void)__s;
}

static __inline__ void __iRestore(const  uint8_t *__s)
{
    SREG = *__s;
     824:	2f bf       	out	0x3f, r18	; 63

00000826 <.LBE12>:
    return value;
}

     826:	08 95       	ret

00000828 <get_right_distance>:
int get_right_distance(void){
        unsigned int value;
    ATOMIC_BLOCK(ATOMIC_RESTORESTATE) {  // Disables interrupts temporarily
        value = right_distance;
     828:	2f b7       	in	r18, 0x3f	; 63

0000082a <.LBB18>:
    cli();
     82a:	f8 94       	cli

0000082c <.LBE18>:
    }
     82c:	80 91 7a 02 	lds	r24, 0x027A	; 0x80027a <right_distance>
     830:	90 91 7b 02 	lds	r25, 0x027B	; 0x80027b <right_distance+0x1>

00000834 <.LBB20>:
    SREG = *__s;
     834:	2f bf       	out	0x3f, r18	; 63

00000836 <.LBE17>:
    return value;
}
     836:	08 95       	ret

00000838 <init_gp_timer>:
    init_gp_timer();
}
// --- Init general purpose timer --- //
void init_gp_timer(void){
    // Mode 4 CTC, prescaler 64
    TCCR1A = 0;
     838:	10 92 80 00 	sts	0x0080, r1	; 0x800080 <__TEXT_REGION_LENGTH__+0x700080>

0000083c <.Loc.3>:
    TCCR1B = (1<<WGM12) | (1<<CS11) | (1<<CS10);
     83c:	8b e0       	ldi	r24, 0x0B	; 11
     83e:	80 93 81 00 	sts	0x0081, r24	; 0x800081 <__TEXT_REGION_LENGTH__+0x700081>

00000842 <.Loc.5>:
    // OCR1A is top in mode 4
    OCR1A = GP_TIMER_TOP;
     842:	88 ea       	ldi	r24, 0xA8	; 168
     844:	91 e6       	ldi	r25, 0x61	; 97
     846:	90 93 89 00 	sts	0x0089, r25	; 0x800089 <__TEXT_REGION_LENGTH__+0x700089>
     84a:	80 93 88 00 	sts	0x0088, r24	; 0x800088 <__TEXT_REGION_LENGTH__+0x700088>

0000084e <.Loc.7>:
}
     84e:	08 95       	ret

00000850 <itermediate_control_init>:
    init_gp_timer();
     850:	0e 94 1c 04 	call	0x838	; 0x838 <init_gp_timer>

00000854 <.LVL0>:
}
     854:	08 95       	ret

00000856 <init>:
    basic_io_init();
     856:	0e 94 d6 00 	call	0x1ac	; 0x1ac <basic_io_init>

0000085a <.LVL1>:
    display_init();
     85a:	0e 94 f6 0f 	call	0x1fec	; 0x1fec <display_init>

0000085e <.LBB4>:
    init_gp_timer();
     85e:	0e 94 1c 04 	call	0x838	; 0x838 <init_gp_timer>

00000862 <.LBE4>:
    music_init();
     862:	0e 94 5b 08 	call	0x10b6	; 0x10b6 <music_init>

00000866 <.LVL4>:
    sei();
     866:	78 94       	sei

00000868 <.Loc.19>:
}
     868:	08 95       	ret

0000086a <gp_timer>:
// --- Genral purpose timer --- //
// Timers only returns 1 after it initially reaches 0. Then it can be set again
char gp_timer(int set_value){
     86a:	28 2f       	mov	r18, r24
     86c:	39 2f       	mov	r19, r25

0000086e <.Loc.22>:
    static int count = -1;
    // Reset timer
    if(set_value == -1){
     86e:	2f 3f       	cpi	r18, 0xFF	; 255
     870:	32 07       	cpc	r19, r18
     872:	c9 f0       	breq	.+50     	; 0x8a6 <.L5>

00000874 <.Loc.25>:
        count = -1;
    }
    // Set value if not running
    if(count == -1){
     874:	80 91 00 02 	lds	r24, 0x0200	; 0x800200 <count.14>
     878:	90 91 01 02 	lds	r25, 0x0201	; 0x800201 <count.14+0x1>

0000087c <.Loc.27>:
     87c:	8f 3f       	cpi	r24, 0xFF	; 255
     87e:	98 07       	cpc	r25, r24
     880:	91 f0       	breq	.+36     	; 0x8a6 <.L5>

00000882 <.Loc.28>:
        count = set_value;
        TIFR1 = (1<<OCF1A);
        TCNT1 = 0;
    }
    // If running, count down on flag
    else if(count > 0){
     882:	18 16       	cp	r1, r24
     884:	19 06       	cpc	r1, r25
     886:	dc f4       	brge	.+54     	; 0x8be <.L8>

00000888 <.Loc.30>:
        if(TIFR1 & (1<<OCF1A)){
     888:	b1 9b       	sbis	0x16, 1	; 22
     88a:	25 c0       	rjmp	.+74     	; 0x8d6 <.L9>

0000088c <.Loc.32>:
            TIFR1 = (1<<OCF1A);
     88c:	82 e0       	ldi	r24, 0x02	; 2
     88e:	86 bb       	out	0x16, r24	; 22

00000890 <.Loc.34>:
            count--;
     890:	80 91 00 02 	lds	r24, 0x0200	; 0x800200 <count.14>
     894:	90 91 01 02 	lds	r25, 0x0201	; 0x800201 <count.14+0x1>
     898:	01 97       	sbiw	r24, 0x01	; 1
     89a:	90 93 01 02 	sts	0x0201, r25	; 0x800201 <count.14+0x1>
     89e:	80 93 00 02 	sts	0x0200, r24	; 0x800200 <count.14>

000008a2 <.Loc.36>:
    // If 0 is reached, return 1
    else if(count == 0){
        count = -1;
        return 1;
    }
    return 0;
     8a2:	80 e0       	ldi	r24, 0x00	; 0
     8a4:	08 95       	ret

000008a6 <.L5>:
        count = set_value;
     8a6:	30 93 01 02 	sts	0x0201, r19	; 0x800201 <count.14+0x1>
     8aa:	20 93 00 02 	sts	0x0200, r18	; 0x800200 <count.14>

000008ae <.Loc.39>:
        TIFR1 = (1<<OCF1A);
     8ae:	82 e0       	ldi	r24, 0x02	; 2
     8b0:	86 bb       	out	0x16, r24	; 22

000008b2 <.Loc.41>:
        TCNT1 = 0;
     8b2:	10 92 85 00 	sts	0x0085, r1	; 0x800085 <__TEXT_REGION_LENGTH__+0x700085>
     8b6:	10 92 84 00 	sts	0x0084, r1	; 0x800084 <__TEXT_REGION_LENGTH__+0x700084>

000008ba <.Loc.43>:
    return 0;
     8ba:	80 e0       	ldi	r24, 0x00	; 0
     8bc:	08 95       	ret

000008be <.L8>:
    else if(count == 0){
     8be:	89 2b       	or	r24, r25
     8c0:	11 f0       	breq	.+4      	; 0x8c6 <.L11>

000008c2 <.Loc.46>:
    return 0;
     8c2:	80 e0       	ldi	r24, 0x00	; 0

000008c4 <.Loc.47>:
}
     8c4:	08 95       	ret

000008c6 <.L11>:
        count = -1;
     8c6:	8f ef       	ldi	r24, 0xFF	; 255
     8c8:	9f ef       	ldi	r25, 0xFF	; 255
     8ca:	90 93 01 02 	sts	0x0201, r25	; 0x800201 <count.14+0x1>
     8ce:	80 93 00 02 	sts	0x0200, r24	; 0x800200 <count.14>

000008d2 <.Loc.50>:
        return 1;
     8d2:	81 e0       	ldi	r24, 0x01	; 1
     8d4:	08 95       	ret

000008d6 <.L9>:
    return 0;
     8d6:	80 e0       	ldi	r24, 0x00	; 0
     8d8:	08 95       	ret

000008da <wall_detected>:
// --- detect path walls --- //
char wall_detected(void){
     8da:	0f 93       	push	r16
     8dc:	1f 93       	push	r17
     8de:	cf 93       	push	r28
     8e0:	df 93       	push	r29

000008e2 <.Loc.54>:
    static int last_detection = 0;
    int left;
    int right;
    left = get_left_distance();
     8e2:	0e 94 0c 04 	call	0x818	; 0x818 <get_left_distance>

000008e6 <.LVL7>:
     8e6:	c8 2f       	mov	r28, r24
     8e8:	d9 2f       	mov	r29, r25

000008ea <.Loc.59>:
    right = get_right_distance();
     8ea:	0e 94 14 04 	call	0x828	; 0x828 <get_right_distance>

000008ee <.LVL9>:
     8ee:	08 2f       	mov	r16, r24
     8f0:	19 2f       	mov	r17, r25

000008f2 <.Loc.61>:
    if(gp_timer(SENSOR_TIMING)){
     8f2:	81 e0       	ldi	r24, 0x01	; 1
     8f4:	90 e0       	ldi	r25, 0x00	; 0
     8f6:	0e 94 35 04 	call	0x86a	; 0x86a <gp_timer>

000008fa <.LVL11>:
     8fa:	88 23       	and	r24, r24
     8fc:	29 f1       	breq	.+74     	; 0x948 <.L12>

000008fe <.Loc.64>:
        // Check for detections within set range
        if(left >= WALL_MIN_RANGE && left <= WALL_MAX_RANGE && right >= WALL_MIN_RANGE && right <= WALL_MAX_RANGE){
     8fe:	21 97       	sbiw	r28, 0x01	; 1

00000900 <.Loc.66>:
     900:	69 97       	sbiw	r28, 0x19	; 25
     902:	e8 f4       	brcc	.+58     	; 0x93e <.L14>

00000904 <.Loc.67>:
     904:	01 50       	subi	r16, 0x01	; 1
     906:	11 09       	sbc	r17, r1

00000908 <.Loc.68>:
     908:	09 31       	cpi	r16, 0x19	; 25
     90a:	11 05       	cpc	r17, r1
     90c:	c0 f4       	brcc	.+48     	; 0x93e <.L14>

0000090e <.Loc.69>:
            if(last_detection >= PATH_SENSITIVITY){
     90e:	80 91 97 02 	lds	r24, 0x0297	; 0x800297 <last_detection.13>
     912:	90 91 98 02 	lds	r25, 0x0298	; 0x800298 <last_detection.13+0x1>

00000916 <.Loc.71>:
     916:	84 30       	cpi	r24, 0x04	; 4
     918:	91 05       	cpc	r25, r1
     91a:	3c f4       	brge	.+14     	; 0x92a <.L16>

0000091c <.Loc.72>:
                last_detection = 0;
                // Reset timer
                gp_timer(-1);
                return 1;
            }
            last_detection++;
     91c:	01 96       	adiw	r24, 0x01	; 1
     91e:	90 93 98 02 	sts	0x0298, r25	; 0x800298 <last_detection.13+0x1>
     922:	80 93 97 02 	sts	0x0297, r24	; 0x800297 <last_detection.13>

00000926 <.Loc.74>:
        }
        else{
            last_detection = 0;
        }
    }
    return 0;
     926:	80 e0       	ldi	r24, 0x00	; 0

00000928 <.Loc.75>:
            last_detection++;
     928:	0f c0       	rjmp	.+30     	; 0x948 <.L12>

0000092a <.L16>:
                last_detection = 0;
     92a:	10 92 98 02 	sts	0x0298, r1	; 0x800298 <last_detection.13+0x1>
     92e:	10 92 97 02 	sts	0x0297, r1	; 0x800297 <last_detection.13>

00000932 <.Loc.78>:
                gp_timer(-1);
     932:	8f ef       	ldi	r24, 0xFF	; 255
     934:	9f ef       	ldi	r25, 0xFF	; 255
     936:	0e 94 35 04 	call	0x86a	; 0x86a <gp_timer>

0000093a <.LVL14>:
                return 1;
     93a:	81 e0       	ldi	r24, 0x01	; 1
     93c:	05 c0       	rjmp	.+10     	; 0x948 <.L12>

0000093e <.L14>:
            last_detection = 0;
     93e:	10 92 98 02 	sts	0x0298, r1	; 0x800298 <last_detection.13+0x1>
     942:	10 92 97 02 	sts	0x0297, r1	; 0x800297 <last_detection.13>

00000946 <.Loc.83>:
    return 0;
     946:	80 e0       	ldi	r24, 0x00	; 0

00000948 <.L12>:
}
     948:	df 91       	pop	r29
     94a:	cf 91       	pop	r28
     94c:	1f 91       	pop	r17
     94e:	0f 91       	pop	r16
     950:	08 95       	ret

00000952 <check_path_end>:
// Check if AGV is still in path
char check_path_end(void){
    static int last_detection = 0;
    if(gp_timer(SENSOR_TIMING)){
     952:	81 e0       	ldi	r24, 0x01	; 1
     954:	90 e0       	ldi	r25, 0x00	; 0
     956:	0e 94 35 04 	call	0x86a	; 0x86a <gp_timer>

0000095a <.LVL17>:
     95a:	81 11       	cpse	r24, r1
     95c:	01 c0       	rjmp	.+2      	; 0x960 <.L21>

0000095e <.L17>:
        else{
            last_detection = 0;
        }
    }
    return 0;
}
     95e:	08 95       	ret

00000960 <.L21>:
        if(get_left_distance() > WALL_MAX_RANGE && get_right_distance() > WALL_MAX_RANGE){
     960:	0e 94 0c 04 	call	0x818	; 0x818 <get_left_distance>

00000964 <.LVL18>:
     964:	4a 97       	sbiw	r24, 0x1a	; 26
     966:	34 f4       	brge	.+12     	; 0x974 <.L22>

00000968 <.L19>:
            last_detection = 0;
     968:	10 92 96 02 	sts	0x0296, r1	; 0x800296 <last_detection.12+0x1>
     96c:	10 92 95 02 	sts	0x0295, r1	; 0x800295 <last_detection.12>

00000970 <.Loc.96>:
    return 0;
     970:	80 e0       	ldi	r24, 0x00	; 0
     972:	f5 cf       	rjmp	.-22     	; 0x95e <.L17>

00000974 <.L22>:
        if(get_left_distance() > WALL_MAX_RANGE && get_right_distance() > WALL_MAX_RANGE){
     974:	0e 94 14 04 	call	0x828	; 0x828 <get_right_distance>

00000978 <.LVL19>:
     978:	4a 97       	sbiw	r24, 0x1a	; 26
     97a:	b4 f3       	brlt	.-20     	; 0x968 <.L19>

0000097c <.Loc.100>:
            if(last_detection >= PATH_SENSITIVITY){
     97c:	80 91 95 02 	lds	r24, 0x0295	; 0x800295 <last_detection.12>
     980:	90 91 96 02 	lds	r25, 0x0296	; 0x800296 <last_detection.12+0x1>

00000984 <.Loc.101>:
     984:	84 30       	cpi	r24, 0x04	; 4
     986:	91 05       	cpc	r25, r1
     988:	3c f4       	brge	.+14     	; 0x998 <.L23>

0000098a <.Loc.102>:
            last_detection++;
     98a:	01 96       	adiw	r24, 0x01	; 1
     98c:	90 93 96 02 	sts	0x0296, r25	; 0x800296 <last_detection.12+0x1>
     990:	80 93 95 02 	sts	0x0295, r24	; 0x800295 <last_detection.12>

00000994 <.Loc.104>:
    return 0;
     994:	80 e0       	ldi	r24, 0x00	; 0

00000996 <.Loc.105>:
            last_detection++;
     996:	08 95       	ret

00000998 <.L23>:
                last_detection = 0;
     998:	10 92 96 02 	sts	0x0296, r1	; 0x800296 <last_detection.12+0x1>
     99c:	10 92 95 02 	sts	0x0295, r1	; 0x800295 <last_detection.12>

000009a0 <.Loc.108>:
                gp_timer(-1);
     9a0:	8f ef       	ldi	r24, 0xFF	; 255
     9a2:	9f ef       	ldi	r25, 0xFF	; 255
     9a4:	0e 94 35 04 	call	0x86a	; 0x86a <gp_timer>

000009a8 <.LVL20>:
                return 1;
     9a8:	81 e0       	ldi	r24, 0x01	; 1
     9aa:	08 95       	ret

000009ac <donk_detection>:
// --- detect packages --- //
char donk_detection(char *mem_left, char *mem_right){
     9ac:	0f 93       	push	r16
     9ae:	1f 93       	push	r17
     9b0:	cf 93       	push	r28
     9b2:	df 93       	push	r29
     9b4:	c8 2f       	mov	r28, r24
     9b6:	d9 2f       	mov	r29, r25
     9b8:	06 2f       	mov	r16, r22
     9ba:	17 2f       	mov	r17, r23

000009bc <.Loc.113>:
    // Mem can only be reset, not set
    if(!donk_left()){
     9bc:	0e 94 e8 00 	call	0x1d0	; 0x1d0 <donk_left>

000009c0 <.LVL22>:
     9c0:	81 11       	cpse	r24, r1
     9c2:	01 c0       	rjmp	.+2      	; 0x9c6 <.L25>

000009c4 <.Loc.116>:
        *mem_left = 0;
     9c4:	18 82       	st	Y, r1

000009c6 <.L25>:
    }
    if(!donk_right()){
     9c6:	0e 94 f0 00 	call	0x1e0	; 0x1e0 <donk_right>

000009ca <.LVL23>:
     9ca:	81 11       	cpse	r24, r1
     9cc:	02 c0       	rjmp	.+4      	; 0x9d2 <.L26>

000009ce <.Loc.121>:
        *mem_right = 0;
     9ce:	f8 01       	movw	r30, r16
     9d0:	10 82       	st	Z, r1

000009d2 <.L26>:
    }
    // Return 1 if detected and not detected before in previous cycle
     if((donk_left() && !*mem_left) ||(donk_right() && !*mem_right)){
     9d2:	0e 94 e8 00 	call	0x1d0	; 0x1d0 <donk_left>

000009d6 <.LVL24>:
     9d6:	88 23       	and	r24, r24
     9d8:	19 f0       	breq	.+6      	; 0x9e0 <.L27>

000009da <.Loc.126>:
     9da:	88 81       	ld	r24, Y
     9dc:	88 23       	and	r24, r24
     9de:	51 f0       	breq	.+20     	; 0x9f4 <.L28>

000009e0 <.L27>:
     9e0:	0e 94 f0 00 	call	0x1e0	; 0x1e0 <donk_right>

000009e4 <.LVL25>:
     9e4:	88 23       	and	r24, r24
     9e6:	71 f0       	breq	.+28     	; 0xa04 <.L24>

000009e8 <.Loc.129>:
     9e8:	f8 01       	movw	r30, r16
     9ea:	80 81       	ld	r24, Z
     9ec:	88 23       	and	r24, r24
     9ee:	11 f0       	breq	.+4      	; 0x9f4 <.L28>

000009f0 <.Loc.130>:
        *mem_left = donk_left();
        *mem_right = donk_right();
        return 1;
     }
    return 0;
     9f0:	80 e0       	ldi	r24, 0x00	; 0
     9f2:	08 c0       	rjmp	.+16     	; 0xa04 <.L24>

000009f4 <.L28>:
        *mem_left = donk_left();
     9f4:	0e 94 e8 00 	call	0x1d0	; 0x1d0 <donk_left>

000009f8 <.LVL26>:
     9f8:	88 83       	st	Y, r24

000009fa <.Loc.134>:
        *mem_right = donk_right();
     9fa:	0e 94 f0 00 	call	0x1e0	; 0x1e0 <donk_right>

000009fe <.LVL27>:
     9fe:	f8 01       	movw	r30, r16
     a00:	80 83       	st	Z, r24

00000a02 <.Loc.137>:
        return 1;
     a02:	81 e0       	ldi	r24, 0x01	; 1

00000a04 <.L24>:
}
     a04:	df 91       	pop	r29
     a06:	cf 91       	pop	r28
     a08:	1f 91       	pop	r17
     a0a:	0f 91       	pop	r16
     a0c:	08 95       	ret

00000a0e <path_steering>:
// --- Steering and speed control inside path --- //
void path_steering(void){
     a0e:	cf 93       	push	r28
     a10:	df 93       	push	r29

00000a12 <.Loc.141>:
    static int steering_error = 0;
    int left;
    int right;
    left = get_left_distance();
     a12:	0e 94 0c 04 	call	0x818	; 0x818 <get_left_distance>

00000a16 <.LVL28>:
     a16:	c8 2f       	mov	r28, r24
     a18:	d9 2f       	mov	r29, r25

00000a1a <.Loc.146>:
    right = get_right_distance();
     a1a:	0e 94 14 04 	call	0x828	; 0x828 <get_right_distance>

00000a1e <.LVL30>:
     a1e:	28 2f       	mov	r18, r24
     a20:	39 2f       	mov	r19, r25

00000a22 <.Loc.148>:
    // - Error calculation - //
    // Calculate error, if both are readings are within range, use both for error calc
    if(left <= ERROR_MAX_DISTANCE && right <= ERROR_MAX_DISTANCE){
     a22:	cf 30       	cpi	r28, 0x0F	; 15
     a24:	d1 05       	cpc	r29, r1
     a26:	3c f5       	brge	.+78     	; 0xa76 <.L32>

00000a28 <.Loc.150>:
     a28:	2f 30       	cpi	r18, 0x0F	; 15
     a2a:	31 05       	cpc	r19, r1
     a2c:	cc f4       	brge	.+50     	; 0xa60 <.L33>

00000a2e <.Loc.151>:
        steering_error = (right - left);
     a2e:	2c 1b       	sub	r18, r28
     a30:	3d 0b       	sbc	r19, r29

00000a32 <.Loc.153>:
     a32:	30 93 94 02 	sts	0x0294, r19	; 0x800294 <steering_error.11+0x1>
     a36:	20 93 93 02 	sts	0x0293, r18	; 0x800293 <steering_error.11>

00000a3a <.L34>:
    else if(right <= ERROR_MAX_DISTANCE){
        steering_error = 2*(right - ERROR_CENTER_DISTANCE);
    }
    // - Steering - //
    // Go straight if error is within allowed range
    if((steering_error >= -ALLOWED_STEERING_ERROR) && (steering_error <= ALLOWED_STEERING_ERROR)){
     a3a:	80 91 93 02 	lds	r24, 0x0293	; 0x800293 <steering_error.11>
     a3e:	90 91 94 02 	lds	r25, 0x0294	; 0x800294 <steering_error.11+0x1>
     a42:	9c 01       	movw	r18, r24
     a44:	2f 5f       	subi	r18, 0xFF	; 255
     a46:	3f 4f       	sbci	r19, 0xFF	; 255

00000a48 <.Loc.156>:
     a48:	23 30       	cpi	r18, 0x03	; 3
     a4a:	31 05       	cpc	r19, r1
     a4c:	00 f5       	brcc	.+64     	; 0xa8e <.L35>

00000a4e <.Loc.157>:
        stepper_control(CRUISE_SPEED, 0);
     a4e:	60 e0       	ldi	r22, 0x00	; 0
     a50:	70 e0       	ldi	r23, 0x00	; 0
     a52:	8a e0       	ldi	r24, 0x0A	; 10
     a54:	90 e0       	ldi	r25, 0x00	; 0
     a56:	0e 94 39 0e 	call	0x1c72	; 0x1c72 <stepper_control>

00000a5a <.L31>:
    }
    // Make steering corrections proportional to error
    else{
        stepper_control(CRUISE_SPEED, steering_error*STEERING_MULTIPLIER);
    }
}
     a5a:	df 91       	pop	r29
     a5c:	cf 91       	pop	r28
     a5e:	08 95       	ret

00000a60 <.L33>:
        steering_error = -2*(left - ERROR_CENTER_DISTANCE);
     a60:	2a 97       	sbiw	r28, 0x0a	; 10

00000a62 <.Loc.162>:
     a62:	d1 95       	neg	r29
     a64:	c1 95       	neg	r28
     a66:	d1 09       	sbc	r29, r1

00000a68 <.Loc.163>:
     a68:	cc 0f       	add	r28, r28
     a6a:	dd 1f       	adc	r29, r29

00000a6c <.Loc.164>:
     a6c:	d0 93 94 02 	sts	0x0294, r29	; 0x800294 <steering_error.11+0x1>
     a70:	c0 93 93 02 	sts	0x0293, r28	; 0x800293 <steering_error.11>
     a74:	e2 cf       	rjmp	.-60     	; 0xa3a <.L34>

00000a76 <.L32>:
    else if(right <= ERROR_MAX_DISTANCE){
     a76:	2f 30       	cpi	r18, 0x0F	; 15
     a78:	31 05       	cpc	r19, r1
     a7a:	fc f6       	brge	.-66     	; 0xa3a <.L34>

00000a7c <.Loc.167>:
        steering_error = 2*(right - ERROR_CENTER_DISTANCE);
     a7c:	2a 50       	subi	r18, 0x0A	; 10
     a7e:	31 09       	sbc	r19, r1

00000a80 <.Loc.169>:
     a80:	22 0f       	add	r18, r18
     a82:	33 1f       	adc	r19, r19

00000a84 <.Loc.170>:
     a84:	30 93 94 02 	sts	0x0294, r19	; 0x800294 <steering_error.11+0x1>
     a88:	20 93 93 02 	sts	0x0293, r18	; 0x800293 <steering_error.11>
     a8c:	d6 cf       	rjmp	.-84     	; 0xa3a <.L34>

00000a8e <.L35>:
        stepper_control(CRUISE_SPEED, steering_error*STEERING_MULTIPLIER);
     a8e:	bc 01       	movw	r22, r24
     a90:	66 0f       	add	r22, r22
     a92:	77 1f       	adc	r23, r23
     a94:	66 0f       	add	r22, r22
     a96:	77 1f       	adc	r23, r23
     a98:	66 0f       	add	r22, r22
     a9a:	77 1f       	adc	r23, r23
     a9c:	68 1b       	sub	r22, r24
     a9e:	79 0b       	sbc	r23, r25
     aa0:	8a e0       	ldi	r24, 0x0A	; 10
     aa2:	90 e0       	ldi	r25, 0x00	; 0
     aa4:	0e 94 39 0e 	call	0x1c72	; 0x1c72 <stepper_control>

00000aa8 <.LVL43>:
}
     aa8:	d8 cf       	rjmp	.-80     	; 0xa5a <.L31>

00000aaa <person_steering>:
// --- Steering and speed control when following person --- //
char person_steering(int fol_dist){
     aaa:	cf 93       	push	r28
     aac:	df 93       	push	r29
     aae:	c8 2f       	mov	r28, r24
     ab0:	d9 2f       	mov	r29, r25

00000ab2 <.Loc.175>:
    static int right;
    static int distance;
    static char previous_limit_reached;
    static int error;
    static int speed;
    left = get_left_distance();
     ab2:	0e 94 0c 04 	call	0x818	; 0x818 <get_left_distance>

00000ab6 <.LVL45>:
     ab6:	90 93 92 02 	sts	0x0292, r25	; 0x800292 <left.10+0x1>
     aba:	80 93 91 02 	sts	0x0291, r24	; 0x800291 <left.10>

00000abe <.Loc.184>:
    right = get_right_distance();
     abe:	0e 94 14 04 	call	0x828	; 0x828 <get_right_distance>

00000ac2 <.LVL46>:
     ac2:	28 2f       	mov	r18, r24
     ac4:	39 2f       	mov	r19, r25

00000ac6 <.Loc.186>:
     ac6:	30 93 90 02 	sts	0x0290, r19	; 0x800290 <right.9+0x1>
     aca:	20 93 8f 02 	sts	0x028F, r18	; 0x80028f <right.9>

00000ace <.Loc.187>:
    error = left - right;
     ace:	40 91 91 02 	lds	r20, 0x0291	; 0x800291 <left.10>
     ad2:	50 91 92 02 	lds	r21, 0x0292	; 0x800292 <left.10+0x1>
     ad6:	ca 01       	movw	r24, r20
     ad8:	82 1b       	sub	r24, r18
     ada:	93 0b       	sbc	r25, r19

00000adc <.Loc.189>:
    // Go straight when person is in the middle
    if(error < FOLLOW_DISTANCE_MARGIN && error > -FOLLOW_DISTANCE_MARGIN){
     adc:	bc 01       	movw	r22, r24
     ade:	62 5f       	subi	r22, 0xF2	; 242
     ae0:	7f 4f       	sbci	r23, 0xFF	; 255

00000ae2 <.Loc.191>:
     ae2:	6d 31       	cpi	r22, 0x1D	; 29
     ae4:	71 05       	cpc	r23, r1
     ae6:	08 f4       	brcc	.+2      	; 0xaea <.Loc.192>

00000ae8 <L0^A>:
     ae8:	4e c0       	rjmp	.+156    	; 0xb86 <.L51>

00000aea <.Loc.192>:
        // Drive straight
        stepper_control(speed, 0);
        display_number(distance);
    }
    // Go to the right when person is on the right
    else if(error >= FOLLOW_DISTANCE_MARGIN){
     aea:	0f 97       	sbiw	r24, 0x0f	; 15
     aec:	0c f4       	brge	.+2      	; 0xaf0 <.Loc.194>

00000aee <L0^A>:
     aee:	6c c0       	rjmp	.+216    	; 0xbc8 <.L41>

00000af0 <.Loc.194>:
        // Slower steering when stationary
        if(speed == 0){
     af0:	80 91 8b 02 	lds	r24, 0x028B	; 0x80028b <speed.6>
     af4:	90 91 8c 02 	lds	r25, 0x028C	; 0x80028c <speed.6+0x1>

00000af8 <.Loc.196>:
     af8:	00 97       	sbiw	r24, 0x00	; 0
     afa:	09 f0       	breq	.+2      	; 0xafe <.Loc.197>

00000afc <L0^A>:
     afc:	60 c0       	rjmp	.+192    	; 0xbbe <.L42>

00000afe <.Loc.197>:
            stepper_control(0, 6);
     afe:	66 e0       	ldi	r22, 0x06	; 6
     b00:	70 e0       	ldi	r23, 0x00	; 0
     b02:	80 e0       	ldi	r24, 0x00	; 0
     b04:	90 e0       	ldi	r25, 0x00	; 0
     b06:	0e 94 39 0e 	call	0x1c72	; 0x1c72 <stepper_control>

00000b0a <.L43>:
        }
        else{
            stepper_control(speed, FOLLOW_STEERING);
        }
        distance = right;
     b0a:	80 91 8f 02 	lds	r24, 0x028F	; 0x80028f <right.9>
     b0e:	90 91 90 02 	lds	r25, 0x0290	; 0x800290 <right.9+0x1>
     b12:	90 93 8e 02 	sts	0x028E, r25	; 0x80028e <distance.7+0x1>
     b16:	80 93 8d 02 	sts	0x028D, r24	; 0x80028d <distance.7>

00000b1a <.Loc.200>:
        display_rght();
     b1a:	0e 94 ce 10 	call	0x219c	; 0x219c <display_rght>

00000b1e <.L40>:
        }
        distance = left;
        display_left();
    }
    // Calculate speed
    speed = CLAMP((distance - fol_dist)*FOLLOW_SPEED_MULTIPLIER, 0, 100);
     b1e:	80 91 8d 02 	lds	r24, 0x028D	; 0x80028d <distance.7>
     b22:	90 91 8e 02 	lds	r25, 0x028E	; 0x80028e <distance.7+0x1>
     b26:	8c 1b       	sub	r24, r28
     b28:	9d 0b       	sbc	r25, r29
     b2a:	85 36       	cpi	r24, 0x65	; 101
     b2c:	91 05       	cpc	r25, r1
     b2e:	14 f0       	brlt	.+4      	; 0xb34 <.L46>
     b30:	84 e6       	ldi	r24, 0x64	; 100
     b32:	90 e0       	ldi	r25, 0x00	; 0

00000b34 <.L46>:
     b34:	99 23       	and	r25, r25
     b36:	0c f4       	brge	.+2      	; 0xb3a <.L47>

00000b38 <L0^A>:
     b38:	63 c0       	rjmp	.+198    	; 0xc00 <.L52>

00000b3a <.L47>:
     b3a:	90 93 8c 02 	sts	0x028C, r25	; 0x80028c <speed.6+0x1>
     b3e:	80 93 8b 02 	sts	0x028B, r24	; 0x80028b <speed.6>

00000b42 <.Loc.204>:
    // Check if person is still within range
    if(gp_timer(SENSOR_TIMING)){
     b42:	81 e0       	ldi	r24, 0x01	; 1
     b44:	90 e0       	ldi	r25, 0x00	; 0
     b46:	0e 94 35 04 	call	0x86a	; 0x86a <gp_timer>

00000b4a <.LVL49>:
     b4a:	88 23       	and	r24, r24
     b4c:	09 f4       	brne	.+2      	; 0xb50 <.Loc.207>

00000b4e <L0^A>:
     b4e:	66 c0       	rjmp	.+204    	; 0xc1c <.L37>

00000b50 <.Loc.207>:
        // Person needs to be out of range for set time
        if(left > fol_dist + FOLLOW_DISTANCE_LIMIT && right > fol_dist + FOLLOW_DISTANCE_LIMIT){
     b50:	e2 96       	adiw	r28, 0x32	; 50

00000b52 <.Loc.209>:
     b52:	80 91 91 02 	lds	r24, 0x0291	; 0x800291 <left.10>
     b56:	90 91 92 02 	lds	r25, 0x0292	; 0x800292 <left.10+0x1>
     b5a:	c8 17       	cp	r28, r24
     b5c:	d9 07       	cpc	r29, r25
     b5e:	0c f0       	brlt	.+2      	; 0xb62 <.Loc.210>

00000b60 <L0^A>:
     b60:	5a c0       	rjmp	.+180    	; 0xc16 <.L49>

00000b62 <.Loc.210>:
     b62:	80 91 8f 02 	lds	r24, 0x028F	; 0x80028f <right.9>
     b66:	90 91 90 02 	lds	r25, 0x0290	; 0x800290 <right.9+0x1>
     b6a:	c8 17       	cp	r28, r24
     b6c:	d9 07       	cpc	r29, r25
     b6e:	0c f0       	brlt	.+2      	; 0xb72 <.Loc.211>

00000b70 <L0^A>:
     b70:	52 c0       	rjmp	.+164    	; 0xc16 <.L49>

00000b72 <.Loc.211>:
            if(previous_limit_reached >= PERSON_SENSITIVITY){
     b72:	80 91 8a 02 	lds	r24, 0x028A	; 0x80028a <previous_limit_reached.5>

00000b76 <.Loc.213>:
     b76:	82 30       	cpi	r24, 0x02	; 2
     b78:	0c f0       	brlt	.+2      	; 0xb7c <.Loc.214>

00000b7a <L0^A>:
     b7a:	45 c0       	rjmp	.+138    	; 0xc06 <.L53>

00000b7c <.Loc.214>:
                previous_limit_reached = 0;
                // reset timer
                gp_timer(-1);
                return 1;
            }
            previous_limit_reached++;
     b7c:	8f 5f       	subi	r24, 0xFF	; 255
     b7e:	80 93 8a 02 	sts	0x028A, r24	; 0x80028a <previous_limit_reached.5>

00000b82 <.Loc.216>:
        }
        else{
            previous_limit_reached = 0;
        }
    }
    return 0;
     b82:	80 e0       	ldi	r24, 0x00	; 0

00000b84 <.Loc.217>:
            previous_limit_reached++;
     b84:	4b c0       	rjmp	.+150    	; 0xc1c <.L37>

00000b86 <.L51>:
        distance = (left + right) / 2;
     b86:	24 0f       	add	r18, r20
     b88:	35 1f       	adc	r19, r21

00000b8a <.Loc.220>:
     b8a:	33 23       	and	r19, r19
     b8c:	ac f0       	brlt	.+42     	; 0xbb8 <.L54>

00000b8e <.L39>:
     b8e:	35 95       	asr	r19
     b90:	27 95       	ror	r18

00000b92 <.Loc.221>:
     b92:	30 93 8e 02 	sts	0x028E, r19	; 0x80028e <distance.7+0x1>
     b96:	20 93 8d 02 	sts	0x028D, r18	; 0x80028d <distance.7>

00000b9a <.Loc.222>:
        stepper_control(speed, 0);
     b9a:	60 e0       	ldi	r22, 0x00	; 0
     b9c:	70 e0       	ldi	r23, 0x00	; 0
     b9e:	80 91 8b 02 	lds	r24, 0x028B	; 0x80028b <speed.6>
     ba2:	90 91 8c 02 	lds	r25, 0x028C	; 0x80028c <speed.6+0x1>
     ba6:	0e 94 39 0e 	call	0x1c72	; 0x1c72 <stepper_control>

00000baa <.LVL50>:
        display_number(distance);
     baa:	80 91 8d 02 	lds	r24, 0x028D	; 0x80028d <distance.7>
     bae:	90 91 8e 02 	lds	r25, 0x028E	; 0x80028e <distance.7+0x1>
     bb2:	0e 94 47 0f 	call	0x1e8e	; 0x1e8e <display_number>

00000bb6 <.LVL51>:
     bb6:	b3 cf       	rjmp	.-154    	; 0xb1e <.L40>

00000bb8 <.L54>:
        distance = (left + right) / 2;
     bb8:	2f 5f       	subi	r18, 0xFF	; 255
     bba:	3f 4f       	sbci	r19, 0xFF	; 255
     bbc:	e8 cf       	rjmp	.-48     	; 0xb8e <.L39>

00000bbe <.L42>:
            stepper_control(speed, FOLLOW_STEERING);
     bbe:	6c e3       	ldi	r22, 0x3C	; 60
     bc0:	70 e0       	ldi	r23, 0x00	; 0
     bc2:	0e 94 39 0e 	call	0x1c72	; 0x1c72 <stepper_control>

00000bc6 <.LVL52>:
     bc6:	a1 cf       	rjmp	.-190    	; 0xb0a <.L43>

00000bc8 <.L41>:
        if(speed == 0){
     bc8:	80 91 8b 02 	lds	r24, 0x028B	; 0x80028b <speed.6>
     bcc:	90 91 8c 02 	lds	r25, 0x028C	; 0x80028c <speed.6+0x1>

00000bd0 <.Loc.228>:
     bd0:	00 97       	sbiw	r24, 0x00	; 0
     bd2:	89 f4       	brne	.+34     	; 0xbf6 <.L44>

00000bd4 <.Loc.229>:
            stepper_control(0, -6);
     bd4:	6a ef       	ldi	r22, 0xFA	; 250
     bd6:	7f ef       	ldi	r23, 0xFF	; 255
     bd8:	80 e0       	ldi	r24, 0x00	; 0
     bda:	90 e0       	ldi	r25, 0x00	; 0
     bdc:	0e 94 39 0e 	call	0x1c72	; 0x1c72 <stepper_control>

00000be0 <.L45>:
        distance = left;
     be0:	80 91 91 02 	lds	r24, 0x0291	; 0x800291 <left.10>
     be4:	90 91 92 02 	lds	r25, 0x0292	; 0x800292 <left.10+0x1>
     be8:	90 93 8e 02 	sts	0x028E, r25	; 0x80028e <distance.7+0x1>
     bec:	80 93 8d 02 	sts	0x028D, r24	; 0x80028d <distance.7>

00000bf0 <.Loc.232>:
        display_left();
     bf0:	0e 94 b9 10 	call	0x2172	; 0x2172 <display_left>

00000bf4 <.LVL54>:
     bf4:	94 cf       	rjmp	.-216    	; 0xb1e <.L40>

00000bf6 <.L44>:
           stepper_control(speed, -FOLLOW_STEERING);
     bf6:	64 ec       	ldi	r22, 0xC4	; 196
     bf8:	7f ef       	ldi	r23, 0xFF	; 255
     bfa:	0e 94 39 0e 	call	0x1c72	; 0x1c72 <stepper_control>

00000bfe <.LVL55>:
     bfe:	f0 cf       	rjmp	.-32     	; 0xbe0 <.L45>

00000c00 <.L52>:
    speed = CLAMP((distance - fol_dist)*FOLLOW_SPEED_MULTIPLIER, 0, 100);
     c00:	80 e0       	ldi	r24, 0x00	; 0
     c02:	90 e0       	ldi	r25, 0x00	; 0
     c04:	9a cf       	rjmp	.-204    	; 0xb3a <.L47>

00000c06 <.L53>:
                previous_limit_reached = 0;
     c06:	10 92 8a 02 	sts	0x028A, r1	; 0x80028a <previous_limit_reached.5>

00000c0a <.Loc.237>:
                gp_timer(-1);
     c0a:	8f ef       	ldi	r24, 0xFF	; 255
     c0c:	9f ef       	ldi	r25, 0xFF	; 255
     c0e:	0e 94 35 04 	call	0x86a	; 0x86a <gp_timer>

00000c12 <.LVL56>:
                return 1;
     c12:	81 e0       	ldi	r24, 0x01	; 1
     c14:	03 c0       	rjmp	.+6      	; 0xc1c <.L37>

00000c16 <.L49>:
            previous_limit_reached = 0;
     c16:	10 92 8a 02 	sts	0x028A, r1	; 0x80028a <previous_limit_reached.5>

00000c1a <.Loc.242>:
    return 0;
     c1a:	80 e0       	ldi	r24, 0x00	; 0

00000c1c <.L37>:
}
     c1c:	df 91       	pop	r29
     c1e:	cf 91       	pop	r28
     c20:	08 95       	ret

00000c22 <set_first_turn>:

// First turn user entry
void set_first_turn(char *turn){
     c22:	cf 93       	push	r28
     c24:	df 93       	push	r29
     c26:	c8 2f       	mov	r28, r24
     c28:	d9 2f       	mov	r29, r25

00000c2a <.Loc.246>:
    if(plus_pressed_once() || minus_pressed_once()){
     c2a:	0e 94 0f 01 	call	0x21e	; 0x21e <plus_pressed_once>

00000c2e <.LVL58>:
     c2e:	88 23       	and	r24, r24
     c30:	51 f0       	breq	.+20     	; 0xc46 <.L59>

00000c32 <.L56>:
                    (*turn)++;
     c32:	88 81       	ld	r24, Y
     c34:	8f 5f       	subi	r24, 0xFF	; 255
     c36:	88 83       	st	Y, r24

00000c38 <.L57>:
                }
                if(*turn > 1){
     c38:	88 81       	ld	r24, Y
     c3a:	82 30       	cpi	r24, 0x02	; 2
     c3c:	0c f0       	brlt	.+2      	; 0xc40 <.L55>

00000c3e <.Loc.253>:
                    *turn = 0;
     c3e:	18 82       	st	Y, r1

00000c40 <.L55>:
                }
}
     c40:	df 91       	pop	r29
     c42:	cf 91       	pop	r28
     c44:	08 95       	ret

00000c46 <.L59>:
    if(plus_pressed_once() || minus_pressed_once()){
     c46:	0e 94 39 01 	call	0x272	; 0x272 <minus_pressed_once>

00000c4a <.LVL59>:
     c4a:	88 23       	and	r24, r24
     c4c:	a9 f3       	breq	.-22     	; 0xc38 <.L57>
     c4e:	f1 cf       	rjmp	.-30     	; 0xc32 <.L56>

00000c50 <set_package_count>:
// Package count limit user entry
void set_package_count(int *pac_lim){
     c50:	cf 93       	push	r28
     c52:	df 93       	push	r29
     c54:	c8 2f       	mov	r28, r24
     c56:	d9 2f       	mov	r29, r25

00000c58 <.Loc.260>:
    if(plus_pressed_once() && *pac_lim < PACKAGE_COUNT_MAX){
     c58:	0e 94 0f 01 	call	0x21e	; 0x21e <plus_pressed_once>

00000c5c <.LVL61>:
     c5c:	88 23       	and	r24, r24
     c5e:	41 f0       	breq	.+16     	; 0xc70 <.L61>

00000c60 <.Loc.263>:
     c60:	88 81       	ld	r24, Y
     c62:	99 81       	ldd	r25, Y+1	; 0x01

00000c64 <.Loc.264>:
     c64:	83 36       	cpi	r24, 0x63	; 99
     c66:	91 05       	cpc	r25, r1
     c68:	1c f4       	brge	.+6      	; 0xc70 <.L61>

00000c6a <.Loc.265>:
        (*pac_lim)++;
     c6a:	01 96       	adiw	r24, 0x01	; 1
     c6c:	99 83       	std	Y+1, r25	; 0x01
     c6e:	88 83       	st	Y, r24

00000c70 <.L61>:
    }
    if(minus_pressed_once() && *pac_lim > PACKAGE_COUNT_MIN){
     c70:	0e 94 39 01 	call	0x272	; 0x272 <minus_pressed_once>

00000c74 <.LVL62>:
     c74:	88 23       	and	r24, r24
     c76:	41 f0       	breq	.+16     	; 0xc88 <.L60>

00000c78 <.Loc.270>:
     c78:	88 81       	ld	r24, Y
     c7a:	99 81       	ldd	r25, Y+1	; 0x01

00000c7c <.Loc.271>:
     c7c:	82 30       	cpi	r24, 0x02	; 2
     c7e:	91 05       	cpc	r25, r1
     c80:	1c f0       	brlt	.+6      	; 0xc88 <.L60>

00000c82 <.Loc.272>:
        (*pac_lim)--;
     c82:	01 97       	sbiw	r24, 0x01	; 1
     c84:	99 83       	std	Y+1, r25	; 0x01
     c86:	88 83       	st	Y, r24

00000c88 <.L60>:
    }
}
     c88:	df 91       	pop	r29
     c8a:	cf 91       	pop	r28
     c8c:	08 95       	ret

00000c8e <set_follow_distance>:
// Following distance user entry
void set_follow_distance(int *dist){
     c8e:	cf 93       	push	r28
     c90:	df 93       	push	r29
     c92:	c8 2f       	mov	r28, r24
     c94:	d9 2f       	mov	r29, r25

00000c96 <.Loc.277>:
    if(plus_pressed_once() && *dist < FOLLOW_DISTANCE_MAX){
     c96:	0e 94 0f 01 	call	0x21e	; 0x21e <plus_pressed_once>

00000c9a <.LVL64>:
     c9a:	88 23       	and	r24, r24
     c9c:	41 f0       	breq	.+16     	; 0xcae <.L64>

00000c9e <.Loc.280>:
     c9e:	88 81       	ld	r24, Y
     ca0:	99 81       	ldd	r25, Y+1	; 0x01

00000ca2 <.Loc.281>:
     ca2:	84 36       	cpi	r24, 0x64	; 100
     ca4:	91 05       	cpc	r25, r1
     ca6:	1c f4       	brge	.+6      	; 0xcae <.L64>

00000ca8 <.Loc.282>:
        (*dist)+= FOLLOW_DISTANCE_STEP;
     ca8:	0a 96       	adiw	r24, 0x0a	; 10
     caa:	99 83       	std	Y+1, r25	; 0x01
     cac:	88 83       	st	Y, r24

00000cae <.L64>:
    }
    if(minus_pressed_once() && *dist > FOLLOW_DISTANCE_MIN){
     cae:	0e 94 39 01 	call	0x272	; 0x272 <minus_pressed_once>

00000cb2 <.LVL65>:
     cb2:	88 23       	and	r24, r24
     cb4:	41 f0       	breq	.+16     	; 0xcc6 <.L63>

00000cb6 <.Loc.287>:
     cb6:	88 81       	ld	r24, Y
     cb8:	99 81       	ldd	r25, Y+1	; 0x01

00000cba <.Loc.288>:
     cba:	8b 30       	cpi	r24, 0x0B	; 11
     cbc:	91 05       	cpc	r25, r1
     cbe:	1c f0       	brlt	.+6      	; 0xcc6 <.L63>

00000cc0 <.Loc.289>:
        (*dist)-= FOLLOW_DISTANCE_STEP;
     cc0:	0a 97       	sbiw	r24, 0x0a	; 10
     cc2:	99 83       	std	Y+1, r25	; 0x01
     cc4:	88 83       	st	Y, r24

00000cc6 <.L63>:
    }
}
     cc6:	df 91       	pop	r29
     cc8:	cf 91       	pop	r28
     cca:	08 95       	ret

00000ccc <person_detected>:

// Detect person based on front distances
char person_detected(int fol_dist){
     ccc:	0f 93       	push	r16
     cce:	1f 93       	push	r17
     cd0:	cf 93       	push	r28
     cd2:	df 93       	push	r29
     cd4:	c8 2f       	mov	r28, r24
     cd6:	d9 2f       	mov	r29, r25

00000cd8 <.Loc.294>:
    static int left;
    static int right;
    static int last_detection = 0;
    left = get_left_distance();
     cd8:	0e 94 0c 04 	call	0x818	; 0x818 <get_left_distance>

00000cdc <.LVL67>:
     cdc:	90 93 89 02 	sts	0x0289, r25	; 0x800289 <left.4+0x1>
     ce0:	80 93 88 02 	sts	0x0288, r24	; 0x800288 <left.4>

00000ce4 <.Loc.300>:
    right = get_right_distance();
     ce4:	0e 94 14 04 	call	0x828	; 0x828 <get_right_distance>

00000ce8 <.LVL68>:
     ce8:	08 2f       	mov	r16, r24
     cea:	19 2f       	mov	r17, r25

00000cec <.Loc.302>:
     cec:	10 93 87 02 	sts	0x0287, r17	; 0x800287 <right.3+0x1>
     cf0:	00 93 86 02 	sts	0x0286, r16	; 0x800286 <right.3>

00000cf4 <.Loc.303>:
    // Person needs to be in range for set time
    if(gp_timer(SENSOR_TIMING)){
     cf4:	81 e0       	ldi	r24, 0x01	; 1
     cf6:	90 e0       	ldi	r25, 0x00	; 0
     cf8:	0e 94 35 04 	call	0x86a	; 0x86a <gp_timer>

00000cfc <.LVL69>:
     cfc:	88 23       	and	r24, r24
     cfe:	41 f1       	breq	.+80     	; 0xd50 <.L66>

00000d00 <.Loc.306>:
        if(left < fol_dist + FOLLOW_DETECTION_MARGIN && right < fol_dist + FOLLOW_DETECTION_MARGIN){
     d00:	6d 96       	adiw	r28, 0x1d	; 29

00000d02 <.Loc.308>:
     d02:	80 91 88 02 	lds	r24, 0x0288	; 0x800288 <left.4>
     d06:	90 91 89 02 	lds	r25, 0x0289	; 0x800289 <left.4+0x1>
     d0a:	c8 17       	cp	r28, r24
     d0c:	d9 07       	cpc	r29, r25
     d0e:	dc f0       	brlt	.+54     	; 0xd46 <.L68>

00000d10 <.Loc.309>:
     d10:	c0 17       	cp	r28, r16
     d12:	d1 07       	cpc	r29, r17
     d14:	c4 f0       	brlt	.+48     	; 0xd46 <.L68>

00000d16 <.Loc.310>:
            if(last_detection >= PERSON_SENSITIVITY){
     d16:	80 91 84 02 	lds	r24, 0x0284	; 0x800284 <last_detection.2>
     d1a:	90 91 85 02 	lds	r25, 0x0285	; 0x800285 <last_detection.2+0x1>

00000d1e <.Loc.312>:
     d1e:	82 30       	cpi	r24, 0x02	; 2
     d20:	91 05       	cpc	r25, r1
     d22:	3c f4       	brge	.+14     	; 0xd32 <.L70>

00000d24 <.Loc.313>:
                last_detection = 0;
                // Reset timer
                gp_timer(-1);
                return 1;
            }
            last_detection++;
     d24:	01 96       	adiw	r24, 0x01	; 1
     d26:	90 93 85 02 	sts	0x0285, r25	; 0x800285 <last_detection.2+0x1>
     d2a:	80 93 84 02 	sts	0x0284, r24	; 0x800284 <last_detection.2>

00000d2e <.Loc.315>:
        }
        else{
            last_detection = 0;
        }
    }
    return 0;
     d2e:	80 e0       	ldi	r24, 0x00	; 0

00000d30 <.Loc.316>:
            last_detection++;
     d30:	0f c0       	rjmp	.+30     	; 0xd50 <.L66>

00000d32 <.L70>:
                last_detection = 0;
     d32:	10 92 85 02 	sts	0x0285, r1	; 0x800285 <last_detection.2+0x1>
     d36:	10 92 84 02 	sts	0x0284, r1	; 0x800284 <last_detection.2>

00000d3a <.Loc.319>:
                gp_timer(-1);
     d3a:	8f ef       	ldi	r24, 0xFF	; 255
     d3c:	9f ef       	ldi	r25, 0xFF	; 255
     d3e:	0e 94 35 04 	call	0x86a	; 0x86a <gp_timer>

00000d42 <.LVL70>:
                return 1;
     d42:	81 e0       	ldi	r24, 0x01	; 1
     d44:	05 c0       	rjmp	.+10     	; 0xd50 <.L66>

00000d46 <.L68>:
            last_detection = 0;
     d46:	10 92 85 02 	sts	0x0285, r1	; 0x800285 <last_detection.2+0x1>
     d4a:	10 92 84 02 	sts	0x0284, r1	; 0x800284 <last_detection.2>

00000d4e <.Loc.324>:
    return 0;
     d4e:	80 e0       	ldi	r24, 0x00	; 0

00000d50 <.L66>:
}
     d50:	df 91       	pop	r29
     d52:	cf 91       	pop	r28
     d54:	1f 91       	pop	r17
     d56:	0f 91       	pop	r16
     d58:	08 95       	ret

00000d5a <step_count_end>:
// Check if step count has ended before new command
char step_count_end(void){
    if(step_count_left == -1 && step_count_right == -1){
     d5a:	80 91 a3 02 	lds	r24, 0x02A3	; 0x8002a3 <step_count_left>
     d5e:	90 91 a4 02 	lds	r25, 0x02A4	; 0x8002a4 <step_count_left+0x1>

00000d62 <.Loc.329>:
     d62:	01 96       	adiw	r24, 0x01	; 1
     d64:	11 f0       	breq	.+4      	; 0xd6a <.L75>

00000d66 <.Loc.330>:
        return 1;
    }
    return 0;
     d66:	80 e0       	ldi	r24, 0x00	; 0

00000d68 <.L71>:
}
     d68:	08 95       	ret

00000d6a <.L75>:
    if(step_count_left == -1 && step_count_right == -1){
     d6a:	20 91 a1 02 	lds	r18, 0x02A1	; 0x8002a1 <step_count_right>
     d6e:	30 91 a2 02 	lds	r19, 0x02A2	; 0x8002a2 <step_count_right+0x1>

00000d72 <.Loc.333>:
     d72:	81 e0       	ldi	r24, 0x01	; 1
     d74:	2f 3f       	cpi	r18, 0xFF	; 255
     d76:	3f 4f       	sbci	r19, 0xFF	; 255
     d78:	b9 f3       	breq	.-18     	; 0xd68 <.L71>
     d7a:	80 e0       	ldi	r24, 0x00	; 0
     d7c:	08 95       	ret

00000d7e <sensor_turn>:

void sensor_turn(char direction){
     d7e:	cf 93       	push	r28
     d80:	df 93       	push	r29
     d82:	00 d0       	rcall	.+0      	; 0xd84 <L0^A>

00000d84 <L0^A>:
     d84:	0f 92       	push	r0
     d86:	cd b7       	in	r28, 0x3d	; 61
     d88:	de b7       	in	r29, 0x3e	; 62

00000d8a <.Loc.336>:
    static int distance;
    static int turn_ratio;
    if(direction){
     d8a:	88 23       	and	r24, r24
     d8c:	09 f4       	brne	.+2      	; 0xd90 <.Loc.340>

00000d8e <L0^A>:
     d8e:	4a c0       	rjmp	.+148    	; 0xe24 <.L77>

00000d90 <.Loc.340>:
        distance = get_right_distance();
     d90:	0e 94 14 04 	call	0x828	; 0x828 <get_right_distance>

00000d94 <.LVL72>:
     d94:	28 2f       	mov	r18, r24
     d96:	39 2f       	mov	r19, r25

00000d98 <.Loc.343>:
        turn_ratio = 1.2*CLAMP(distance - TURN_WALL_DISTANCE, -TURNING_RATIO, TURNING_RATIO);
     d98:	2b 3b       	cpi	r18, 0xBB	; 187
     d9a:	8f ef       	ldi	r24, 0xFF	; 255
     d9c:	38 07       	cpc	r19, r24
     d9e:	94 f0       	brlt	.+36     	; 0xdc4 <.L81>

00000da0 <.Loc.345>:
     da0:	2e 35       	cpi	r18, 0x5E	; 94
     da2:	31 05       	cpc	r19, r1
     da4:	d4 f5       	brge	.+116    	; 0xe1a <.L82>

00000da6 <.Loc.346>:
     da6:	2c 50       	subi	r18, 0x0C	; 12
     da8:	31 09       	sbc	r19, r1

00000daa <.Loc.347>:
     daa:	c9 01       	movw	r24, r18
     dac:	33 0f       	add	r19, r19
     dae:	aa 0b       	sbc	r26, r26
     db0:	bb 0b       	sbc	r27, r27
     db2:	89 83       	std	Y+1, r24	; 0x01
     db4:	9a 83       	std	Y+2, r25	; 0x02
     db6:	ab 83       	std	Y+3, r26	; 0x03
     db8:	bc 83       	std	Y+4, r27	; 0x04
     dba:	bc 01       	movw	r22, r24
     dbc:	cd 01       	movw	r24, r26
     dbe:	0e 94 f7 11 	call	0x23ee	; 0x23ee <__floatsisf>

00000dc2 <.LVL73>:
     dc2:	04 c0       	rjmp	.+8      	; 0xdcc <.L78>

00000dc4 <.L81>:
     dc4:	60 e0       	ldi	r22, 0x00	; 0
     dc6:	70 e0       	ldi	r23, 0x00	; 0
     dc8:	82 ea       	ldi	r24, 0xA2	; 162
     dca:	92 ec       	ldi	r25, 0xC2	; 194

00000dcc <.L78>:
     dcc:	2a e9       	ldi	r18, 0x9A	; 154
     dce:	39 e9       	ldi	r19, 0x99	; 153
     dd0:	49 e9       	ldi	r20, 0x99	; 153
     dd2:	5f e3       	ldi	r21, 0x3F	; 63
     dd4:	69 83       	std	Y+1, r22	; 0x01
     dd6:	7a 83       	std	Y+2, r23	; 0x02
     dd8:	8b 83       	std	Y+3, r24	; 0x03
     dda:	9c 83       	std	Y+4, r25	; 0x04
     ddc:	69 81       	ldd	r22, Y+1	; 0x01
     dde:	7a 81       	ldd	r23, Y+2	; 0x02
     de0:	8b 81       	ldd	r24, Y+3	; 0x03
     de2:	9c 81       	ldd	r25, Y+4	; 0x04
     de4:	0e 94 5b 12 	call	0x24b6	; 0x24b6 <__mulsf3>

00000de8 <.LVL74>:
     de8:	69 83       	std	Y+1, r22	; 0x01
     dea:	7a 83       	std	Y+2, r23	; 0x02
     dec:	8b 83       	std	Y+3, r24	; 0x03
     dee:	9c 83       	std	Y+4, r25	; 0x04
     df0:	69 81       	ldd	r22, Y+1	; 0x01
     df2:	7a 81       	ldd	r23, Y+2	; 0x02
     df4:	8b 81       	ldd	r24, Y+3	; 0x03
     df6:	9c 81       	ldd	r25, Y+4	; 0x04
     df8:	0e 94 bf 11 	call	0x237e	; 0x237e <__fixsfsi>

00000dfc <.L79>:
     dfc:	70 93 83 02 	sts	0x0283, r23	; 0x800283 <turn_ratio.0+0x1>
     e00:	60 93 82 02 	sts	0x0282, r22	; 0x800282 <turn_ratio.0>

00000e04 <.Loc.352>:
    }
    else{
        distance = get_left_distance();
        turn_ratio = -1.2*CLAMP(distance - TURN_WALL_DISTANCE, -TURNING_RATIO, TURNING_RATIO);
    }
    stepper_control(TURNING_SPEED, turn_ratio);
     e04:	88 e0       	ldi	r24, 0x08	; 8
     e06:	90 e0       	ldi	r25, 0x00	; 0
     e08:	0e 94 39 0e 	call	0x1c72	; 0x1c72 <stepper_control>

00000e0c <.LVL76>:
}
     e0c:	0f 90       	pop	r0
     e0e:	0f 90       	pop	r0
     e10:	0f 90       	pop	r0
     e12:	0f 90       	pop	r0
     e14:	df 91       	pop	r29
     e16:	cf 91       	pop	r28
     e18:	08 95       	ret

00000e1a <.L82>:
        turn_ratio = 1.2*CLAMP(distance - TURN_WALL_DISTANCE, -TURNING_RATIO, TURNING_RATIO);
     e1a:	60 e0       	ldi	r22, 0x00	; 0
     e1c:	70 e0       	ldi	r23, 0x00	; 0
     e1e:	82 ea       	ldi	r24, 0xA2	; 162
     e20:	92 e4       	ldi	r25, 0x42	; 66
     e22:	d4 cf       	rjmp	.-88     	; 0xdcc <.L78>

00000e24 <.L77>:
        distance = get_left_distance();
     e24:	0e 94 0c 04 	call	0x818	; 0x818 <get_left_distance>

00000e28 <.LVL78>:
     e28:	28 2f       	mov	r18, r24
     e2a:	39 2f       	mov	r19, r25

00000e2c <.Loc.358>:
        turn_ratio = -1.2*CLAMP(distance - TURN_WALL_DISTANCE, -TURNING_RATIO, TURNING_RATIO);
     e2c:	2b 3b       	cpi	r18, 0xBB	; 187
     e2e:	9f ef       	ldi	r25, 0xFF	; 255
     e30:	39 07       	cpc	r19, r25
     e32:	94 f0       	brlt	.+36     	; 0xe58 <.L83>

00000e34 <.Loc.360>:
     e34:	2e 35       	cpi	r18, 0x5E	; 94
     e36:	31 05       	cpc	r19, r1
     e38:	64 f5       	brge	.+88     	; 0xe92 <.L84>

00000e3a <.Loc.361>:
     e3a:	2c 50       	subi	r18, 0x0C	; 12
     e3c:	31 09       	sbc	r19, r1

00000e3e <.Loc.362>:
     e3e:	c9 01       	movw	r24, r18
     e40:	33 0f       	add	r19, r19
     e42:	aa 0b       	sbc	r26, r26
     e44:	bb 0b       	sbc	r27, r27
     e46:	89 83       	std	Y+1, r24	; 0x01
     e48:	9a 83       	std	Y+2, r25	; 0x02
     e4a:	ab 83       	std	Y+3, r26	; 0x03
     e4c:	bc 83       	std	Y+4, r27	; 0x04
     e4e:	bc 01       	movw	r22, r24
     e50:	cd 01       	movw	r24, r26
     e52:	0e 94 f7 11 	call	0x23ee	; 0x23ee <__floatsisf>

00000e56 <.LVL79>:
     e56:	04 c0       	rjmp	.+8      	; 0xe60 <.L80>

00000e58 <.L83>:
     e58:	60 e0       	ldi	r22, 0x00	; 0
     e5a:	70 e0       	ldi	r23, 0x00	; 0
     e5c:	82 ea       	ldi	r24, 0xA2	; 162
     e5e:	92 ec       	ldi	r25, 0xC2	; 194

00000e60 <.L80>:
     e60:	2a e9       	ldi	r18, 0x9A	; 154
     e62:	39 e9       	ldi	r19, 0x99	; 153
     e64:	49 e9       	ldi	r20, 0x99	; 153
     e66:	5f eb       	ldi	r21, 0xBF	; 191
     e68:	69 83       	std	Y+1, r22	; 0x01
     e6a:	7a 83       	std	Y+2, r23	; 0x02
     e6c:	8b 83       	std	Y+3, r24	; 0x03
     e6e:	9c 83       	std	Y+4, r25	; 0x04
     e70:	69 81       	ldd	r22, Y+1	; 0x01
     e72:	7a 81       	ldd	r23, Y+2	; 0x02
     e74:	8b 81       	ldd	r24, Y+3	; 0x03
     e76:	9c 81       	ldd	r25, Y+4	; 0x04
     e78:	0e 94 5b 12 	call	0x24b6	; 0x24b6 <__mulsf3>

00000e7c <.LVL80>:
     e7c:	69 83       	std	Y+1, r22	; 0x01
     e7e:	7a 83       	std	Y+2, r23	; 0x02
     e80:	8b 83       	std	Y+3, r24	; 0x03
     e82:	9c 83       	std	Y+4, r25	; 0x04
     e84:	69 81       	ldd	r22, Y+1	; 0x01
     e86:	7a 81       	ldd	r23, Y+2	; 0x02
     e88:	8b 81       	ldd	r24, Y+3	; 0x03
     e8a:	9c 81       	ldd	r25, Y+4	; 0x04
     e8c:	0e 94 bf 11 	call	0x237e	; 0x237e <__fixsfsi>

00000e90 <.LVL81>:
     e90:	b5 cf       	rjmp	.-150    	; 0xdfc <.L79>

00000e92 <.L84>:
     e92:	60 e0       	ldi	r22, 0x00	; 0
     e94:	70 e0       	ldi	r23, 0x00	; 0
     e96:	82 ea       	ldi	r24, 0xA2	; 162
     e98:	92 e4       	ldi	r25, 0x42	; 66
     e9a:	e2 cf       	rjmp	.-60     	; 0xe60 <.L80>

00000e9c <start_button_init>:


//OPERATOR (MASTER)
void start_button_init(void){
    // Set PD1 startbutton
    DDRD &= ~((1 << PD1));
     e9c:	51 98       	cbi	0x0a, 1	; 10

00000e9e <.Loc.3>:

    // Optional: Enable pull-up resistors startbutton
    PORTD |= (1 << PD1);
     e9e:	59 9a       	sbi	0x0b, 1	; 11

00000ea0 <.Loc.5>:
}
     ea0:	08 95       	ret

00000ea2 <starting_button>:
//starting button
uint8_t starting_button() {
    return !(PIND & (1 << PD1));
     ea2:	89 b1       	in	r24, 0x09	; 9

00000ea4 <.Loc.9>:
     ea4:	86 95       	lsr	r24
     ea6:	81 70       	andi	r24, 0x01	; 1

00000ea8 <.Loc.10>:
}
     ea8:	91 e0       	ldi	r25, 0x01	; 1
     eaa:	89 27       	eor	r24, r25
     eac:	08 95       	ret

00000eae <main>:


int main(void)
{
     eae:	00 d0       	rcall	.+0      	; 0xeb0 <L0^A>

00000eb0 <L0^A>:
     eb0:	00 d0       	rcall	.+0      	; 0xeb2 <L0^A>

00000eb2 <L0^A>:
     eb2:	00 d0       	rcall	.+0      	; 0xeb4 <L0^A>

00000eb4 <L0^A>:
     eb4:	0f 92       	push	r0
     eb6:	cd b7       	in	r28, 0x3d	; 61
     eb8:	de b7       	in	r29, 0x3e	; 62

00000eba <.Loc.12>:
    char donk_mem_left = 0;
    char donk_mem_right = 0;

    /// --- Init --- ///
    // Deze twee moet je in de main (of op de plek waar je de functie roept als dat niet in main is)
    start_button_init();
     eba:	0e 94 4e 07 	call	0xe9c	; 0xe9c <start_button_init>

00000ebe <.LVL1>:
    spi_device rfid_left = {&PORTB, PB0, &DDRB};
     ebe:	85 e0       	ldi	r24, 0x05	; 5
     ec0:	e6 e0       	ldi	r30, 0x06	; 6
     ec2:	f2 e0       	ldi	r31, 0x02	; 2
     ec4:	de 01       	movw	r26, r28
     ec6:	11 96       	adiw	r26, 0x01	; 1

00000ec8 <.L^B1>:
     ec8:	01 90       	ld	r0, Z+
     eca:	0d 92       	st	X+, r0
     ecc:	8a 95       	dec	r24
     ece:	e1 f7       	brne	.-8      	; 0xec8 <.L^B1>

00000ed0 <.Loc.22>:
    spi_device rfid_right = {&PORTL, PL0, &DDRL};
     ed0:	85 e0       	ldi	r24, 0x05	; 5
     ed2:	eb e0       	ldi	r30, 0x0B	; 11
     ed4:	f2 e0       	ldi	r31, 0x02	; 2
     ed6:	de 01       	movw	r26, r28
     ed8:	16 96       	adiw	r26, 0x06	; 6

00000eda <.L^B2>:
     eda:	01 90       	ld	r0, Z+
     edc:	0d 92       	st	X+, r0
     ede:	8a 95       	dec	r24
     ee0:	e1 f7       	brne	.-8      	; 0xeda <.L^B2>

00000ee2 <.Loc.24>:
    init();
     ee2:	0e 94 2b 04 	call	0x856	; 0x856 <init>

00000ee6 <.LVL2>:
    USART1_init(9600);
     ee6:	80 e8       	ldi	r24, 0x80	; 128
     ee8:	95 e2       	ldi	r25, 0x25	; 37
     eea:	0e 94 ff 01 	call	0x3fe	; 0x3fe <USART1_init>

00000eee <.LVL3>:
    USART0_init(9600);
     eee:	80 e8       	ldi	r24, 0x80	; 128
     ef0:	95 e2       	ldi	r25, 0x25	; 37
     ef2:	0e 94 e9 01 	call	0x3d2	; 0x3d2 <USART0_init>

00000ef6 <.LVL4>:
    rfid_init(rfid_left);
     ef6:	49 81       	ldd	r20, Y+1	; 0x01
     ef8:	5a 81       	ldd	r21, Y+2	; 0x02
     efa:	6b 81       	ldd	r22, Y+3	; 0x03
     efc:	7c 81       	ldd	r23, Y+4	; 0x04
     efe:	8d 81       	ldd	r24, Y+5	; 0x05
     f00:	0e 94 dd 0a 	call	0x15ba	; 0x15ba <rfid_init>

00000f04 <.LVL5>:
    rfid_init(rfid_right);
     f04:	4e 81       	ldd	r20, Y+6	; 0x06
     f06:	5f 81       	ldd	r21, Y+7	; 0x07
     f08:	68 85       	ldd	r22, Y+8	; 0x08
     f0a:	79 85       	ldd	r23, Y+9	; 0x09
     f0c:	8a 85       	ldd	r24, Y+10	; 0x0a
     f0e:	0e 94 dd 0a 	call	0x15ba	; 0x15ba <rfid_init>

00000f12 <.LVL6>:
    int package_non_metal=      0;
     f12:	c1 2c       	mov	r12, r1
     f14:	d1 2c       	mov	r13, r1

00000f16 <.Loc.30>:
    int package_metal=          0;
     f16:	e1 2c       	mov	r14, r1
     f18:	f1 2c       	mov	r15, r1

00000f1a <.Loc.31>:
    enum available_states current_state = wait;
     f1a:	00 e0       	ldi	r16, 0x00	; 0
     f1c:	10 e0       	ldi	r17, 0x00	; 0

00000f1e <.Loc.32>:
            break;
        case u_turn:
            display_turn();
            if(USART1_receiveByte()==0x01){
                task_manager(forward_fast, standard_speed, standard_acceleration);
                current_state = forward;
     f1e:	68 94       	set
     f20:	aa 24       	eor	r10, r10
     f22:	a1 f8       	bld	r10, 1
     f24:	b1 2c       	mov	r11, r1
     f26:	88 c0       	rjmp	.+272    	; 0x1038 <.L29>

00000f28 <.L31>:
        switch(current_state){
     f28:	01 15       	cp	r16, r1
     f2a:	11 05       	cpc	r17, r1
     f2c:	09 f0       	breq	.+2      	; 0xf30 <.Loc.34>

00000f2e <L0^A>:
     f2e:	84 c0       	rjmp	.+264    	; 0x1038 <.L29>

00000f30 <.Loc.34>:
            if(donk_left() || donk_right()){
     f30:	0e 94 e8 00 	call	0x1d0	; 0x1d0 <donk_left>

00000f34 <.LVL9>:
     f34:	81 11       	cpse	r24, r1
     f36:	04 c0       	rjmp	.+8      	; 0xf40 <.L13>

00000f38 <.Loc.37>:
     f38:	0e 94 f0 00 	call	0x1e0	; 0x1e0 <donk_right>

00000f3c <.LVL10>:
     f3c:	88 23       	and	r24, r24
     f3e:	19 f1       	breq	.+70     	; 0xf86 <.L14>

00000f40 <.L13>:
                display_fol();
     f40:	0e 94 48 10 	call	0x2090	; 0x2090 <display_fol>

00000f44 <.L15>:
            if(starting_button()){
     f44:	0e 94 51 07 	call	0xea2	; 0xea2 <starting_button>

00000f48 <.LVL12>:
     f48:	88 23       	and	r24, r24
     f4a:	09 f4       	brne	.+2      	; 0xf4e <.Loc.43>

00000f4c <L0^A>:
     f4c:	75 c0       	rjmp	.+234    	; 0x1038 <.L29>

00000f4e <.Loc.43>:
            task_manager(forward_fast, standard_speed, standard_acceleration);
     f4e:	4f ef       	ldi	r20, 0xFF	; 255
     f50:	6f ef       	ldi	r22, 0xFF	; 255
     f52:	81 e0       	ldi	r24, 0x01	; 1
     f54:	90 e0       	ldi	r25, 0x00	; 0
     f56:	0e 94 b4 02 	call	0x568	; 0x568 <task_manager>

00000f5a <.LVL13>:
            display_end();
     f5a:	0e 94 00 11 	call	0x2200	; 0x2200 <display_end>

00000f5e <.LVL14>:
            current_state = forward;
     f5e:	0a 2d       	mov	r16, r10
     f60:	1b 2d       	mov	r17, r11
     f62:	6a c0       	rjmp	.+212    	; 0x1038 <.L29>

00000f64 <.L6>:
        switch(current_state){
     f64:	04 30       	cpi	r16, 0x04	; 4
     f66:	11 05       	cpc	r17, r1
     f68:	09 f4       	brne	.+2      	; 0xf6c <.Loc.48>

00000f6a <L0^A>:
     f6a:	96 c0       	rjmp	.+300    	; 0x1098 <.L11>

00000f6c <.Loc.48>:
     f6c:	05 30       	cpi	r16, 0x05	; 5
     f6e:	11 05       	cpc	r17, r1
     f70:	09 f0       	breq	.+2      	; 0xf74 <.Loc.49>

00000f72 <L0^A>:
     f72:	62 c0       	rjmp	.+196    	; 0x1038 <.L29>

00000f74 <.Loc.49>:
            task_manager(backward_fast, standard_speed, standard_acceleration);
     f74:	4f ef       	ldi	r20, 0xFF	; 255
     f76:	6f ef       	ldi	r22, 0xFF	; 255
     f78:	83 e0       	ldi	r24, 0x03	; 3
     f7a:	90 e0       	ldi	r25, 0x00	; 0
     f7c:	0e 94 b4 02 	call	0x568	; 0x568 <task_manager>

00000f80 <.LVL16>:
            current_state = einde_opdracht;
     f80:	03 e0       	ldi	r16, 0x03	; 3
     f82:	10 e0       	ldi	r17, 0x00	; 0

00000f84 <.Loc.53>:
            break;
     f84:	59 c0       	rjmp	.+178    	; 0x1038 <.L29>

00000f86 <.L14>:
                display_pac();
     f86:	0e 94 9c 10 	call	0x2138	; 0x2138 <display_pac>

00000f8a <.LVL18>:
     f8a:	dc cf       	rjmp	.-72     	; 0xf44 <.L15>

00000f8c <.L7>:
            gp_timer(-1);
     f8c:	8f ef       	ldi	r24, 0xFF	; 255
     f8e:	9f ef       	ldi	r25, 0xFF	; 255
     f90:	0e 94 35 04 	call	0x86a	; 0x86a <gp_timer>

00000f94 <.LVL20>:
            if(rfid_tag_detected(rfid_right)){
     f94:	4e 81       	ldd	r20, Y+6	; 0x06
     f96:	5f 81       	ldd	r21, Y+7	; 0x07
     f98:	68 85       	ldd	r22, Y+8	; 0x08
     f9a:	79 85       	ldd	r23, Y+9	; 0x09
     f9c:	8a 85       	ldd	r24, Y+10	; 0x0a
     f9e:	0e 94 02 0c 	call	0x1804	; 0x1804 <rfid_tag_detected>

00000fa2 <.LVL21>:
     fa2:	88 23       	and	r24, r24
     fa4:	39 f0       	breq	.+14     	; 0xfb4 <.L17>

00000fa6 <.Loc.59>:
                package_metal++;
     fa6:	8f ef       	ldi	r24, 0xFF	; 255
     fa8:	e8 1a       	sub	r14, r24
     faa:	f8 0a       	sbc	r15, r24

00000fac <.L18>:
            display_brightness(MAX_BRIGHTNESS);
     fac:	87 e0       	ldi	r24, 0x07	; 7
     fae:	0e 94 3a 0f 	call	0x1e74	; 0x1e74 <display_brightness>

00000fb2 <.LVL23>:
            while(play_beep()){
     fb2:	15 c0       	rjmp	.+42     	; 0xfde <.L20>

00000fb4 <.L17>:
                if(rfid_tag_detected(rfid_left)){
     fb4:	49 81       	ldd	r20, Y+1	; 0x01
     fb6:	5a 81       	ldd	r21, Y+2	; 0x02
     fb8:	6b 81       	ldd	r22, Y+3	; 0x03
     fba:	7c 81       	ldd	r23, Y+4	; 0x04
     fbc:	8d 81       	ldd	r24, Y+5	; 0x05
     fbe:	0e 94 02 0c 	call	0x1804	; 0x1804 <rfid_tag_detected>

00000fc2 <.LVL24>:
     fc2:	88 23       	and	r24, r24
     fc4:	21 f0       	breq	.+8      	; 0xfce <.L19>

00000fc6 <.Loc.67>:
                package_metal++;
     fc6:	8f ef       	ldi	r24, 0xFF	; 255
     fc8:	e8 1a       	sub	r14, r24
     fca:	f8 0a       	sbc	r15, r24

00000fcc <.Loc.69>:
     fcc:	ef cf       	rjmp	.-34     	; 0xfac <.L18>

00000fce <.L19>:
                package_non_metal++;
     fce:	8f ef       	ldi	r24, 0xFF	; 255
     fd0:	c8 1a       	sub	r12, r24
     fd2:	d8 0a       	sbc	r13, r24

00000fd4 <.Loc.72>:
     fd4:	eb cf       	rjmp	.-42     	; 0xfac <.L18>

00000fd6 <.L21>:
                display_metal_and_non_metal(package_metal, package_non_metal);
     fd6:	b6 01       	movw	r22, r12
     fd8:	c7 01       	movw	r24, r14
     fda:	0e 94 78 0f 	call	0x1ef0	; 0x1ef0 <display_metal_and_non_metal>

00000fde <.L20>:
            while(play_beep()){
     fde:	0e 94 c0 08 	call	0x1180	; 0x1180 <play_beep>

00000fe2 <.LVL28>:
     fe2:	81 11       	cpse	r24, r1
     fe4:	f8 cf       	rjmp	.-16     	; 0xfd6 <.L21>
     fe6:	04 c0       	rjmp	.+8      	; 0xff0 <.L22>

00000fe8 <.L23>:
                display_metal_and_non_metal(package_metal, package_non_metal);
     fe8:	b6 01       	movw	r22, r12
     fea:	c7 01       	movw	r24, r14
     fec:	0e 94 78 0f 	call	0x1ef0	; 0x1ef0 <display_metal_and_non_metal>

00000ff0 <.L22>:
            while(!gp_timer(DETECTION_STOP_TIME)){
     ff0:	8a e0       	ldi	r24, 0x0A	; 10
     ff2:	90 e0       	ldi	r25, 0x00	; 0
     ff4:	0e 94 35 04 	call	0x86a	; 0x86a <gp_timer>

00000ff8 <.LVL30>:
     ff8:	88 23       	and	r24, r24
     ffa:	b1 f3       	breq	.-20     	; 0xfe8 <.L23>

00000ffc <.Loc.79>:
            if (package_non_metal==change_demo_package)
     ffc:	84 e0       	ldi	r24, 0x04	; 4
     ffe:	c8 16       	cp	r12, r24
    1000:	d1 04       	cpc	r13, r1
    1002:	49 f0       	breq	.+18     	; 0x1016 <.L30>

00001004 <.Loc.81>:
                task_manager(forward_fast, standard_speed, standard_acceleration);
    1004:	4f ef       	ldi	r20, 0xFF	; 255
    1006:	6f ef       	ldi	r22, 0xFF	; 255
    1008:	81 e0       	ldi	r24, 0x01	; 1
    100a:	90 e0       	ldi	r25, 0x00	; 0
    100c:	0e 94 b4 02 	call	0x568	; 0x568 <task_manager>

00001010 <.LVL31>:
                current_state = forward;
    1010:	0a 2d       	mov	r16, r10
    1012:	1b 2d       	mov	r17, r11
    1014:	11 c0       	rjmp	.+34     	; 0x1038 <.L29>

00001016 <.L30>:
                task_manager(stop, standard_speed, standard_acceleration);
    1016:	4f ef       	ldi	r20, 0xFF	; 255
    1018:	6f ef       	ldi	r22, 0xFF	; 255
    101a:	84 e0       	ldi	r24, 0x04	; 4
    101c:	90 e0       	ldi	r25, 0x00	; 0
    101e:	0e 94 b4 02 	call	0x568	; 0x568 <task_manager>

00001022 <.LVL33>:
                display_end();
    1022:	0e 94 00 11 	call	0x2200	; 0x2200 <display_end>

00001026 <.L25>:
                while(play_beep());
    1026:	0e 94 c0 08 	call	0x1180	; 0x1180 <play_beep>

0000102a <.LVL35>:
    102a:	81 11       	cpse	r24, r1
    102c:	fc cf       	rjmp	.-8      	; 0x1026 <.L25>

0000102e <.Loc.88>:
                current_state = einde_opdracht;
    102e:	03 e0       	ldi	r16, 0x03	; 3
    1030:	10 e0       	ldi	r17, 0x00	; 0

00001032 <.Loc.89>:
    1032:	02 c0       	rjmp	.+4      	; 0x1038 <.L29>

00001034 <.L5>:
            display_end();
    1034:	0e 94 00 11 	call	0x2200	; 0x2200 <display_end>

00001038 <.L29>:
        switch(current_state){
    1038:	03 30       	cpi	r16, 0x03	; 3
    103a:	11 05       	cpc	r17, r1
    103c:	d9 f3       	breq	.-10     	; 0x1034 <.L5>
    103e:	08 f0       	brcs	.+2      	; 0x1042 <L0^A+0x2>

00001040 <L0^A>:
    1040:	91 cf       	rjmp	.-222    	; 0xf64 <.L6>
    1042:	01 30       	cpi	r16, 0x01	; 1
    1044:	11 05       	cpc	r17, r1
    1046:	09 f4       	brne	.+2      	; 0x104a <L0^A+0x2>

00001048 <L0^A>:
    1048:	a1 cf       	rjmp	.-190    	; 0xf8c <.L7>
    104a:	02 30       	cpi	r16, 0x02	; 2
    104c:	11 05       	cpc	r17, r1
    104e:	09 f0       	breq	.+2      	; 0x1052 <.Loc.94>

00001050 <L0^A>:
    1050:	6b cf       	rjmp	.-298    	; 0xf28 <.L31>

00001052 <.Loc.94>:
            display_metal_and_non_metal(package_metal, package_non_metal);
    1052:	b6 01       	movw	r22, r12
    1054:	c7 01       	movw	r24, r14
    1056:	0e 94 78 0f 	call	0x1ef0	; 0x1ef0 <display_metal_and_non_metal>

0000105a <.LVL39>:
            if (donk_left() || donk_right()){
    105a:	0e 94 e8 00 	call	0x1d0	; 0x1d0 <donk_left>

0000105e <.LVL40>:
    105e:	81 11       	cpse	r24, r1
    1060:	04 c0       	rjmp	.+8      	; 0x106a <.L26>

00001062 <.Loc.98>:
    1062:	0e 94 f0 00 	call	0x1e0	; 0x1e0 <donk_right>

00001066 <.LVL41>:
    1066:	88 23       	and	r24, r24
    1068:	51 f0       	breq	.+20     	; 0x107e <.L27>

0000106a <.L26>:
                task_manager(stop, standard_speed, standard_acceleration);
    106a:	4f ef       	ldi	r20, 0xFF	; 255
    106c:	6f ef       	ldi	r22, 0xFF	; 255
    106e:	84 e0       	ldi	r24, 0x04	; 4
    1070:	90 e0       	ldi	r25, 0x00	; 0
    1072:	0e 94 b4 02 	call	0x568	; 0x568 <task_manager>

00001076 <.LVL42>:
                display_cfg();
    1076:	0e 94 0a 10 	call	0x2014	; 0x2014 <display_cfg>

0000107a <.LVL43>:
                current_state = package_detected;
    107a:	01 e0       	ldi	r16, 0x01	; 1
    107c:	10 e0       	ldi	r17, 0x00	; 0

0000107e <.L27>:
            if(USART1_receiveByte()==0x01){
    107e:	0e 94 ac 02 	call	0x558	; 0x558 <USART1_receiveByte>

00001082 <.LVL45>:
    1082:	81 30       	cpi	r24, 0x01	; 1
    1084:	c9 f6       	brne	.-78     	; 0x1038 <.L29>

00001086 <.Loc.107>:
                task_manager(turn_right, standard_speed, standard_acceleration);
    1086:	4f ef       	ldi	r20, 0xFF	; 255
    1088:	6f ef       	ldi	r22, 0xFF	; 255
    108a:	86 e0       	ldi	r24, 0x06	; 6
    108c:	90 e0       	ldi	r25, 0x00	; 0
    108e:	0e 94 b4 02 	call	0x568	; 0x568 <task_manager>

00001092 <.LVL46>:
                current_state = u_turn;
    1092:	04 e0       	ldi	r16, 0x04	; 4
    1094:	10 e0       	ldi	r17, 0x00	; 0
    1096:	d0 cf       	rjmp	.-96     	; 0x1038 <.L29>

00001098 <.L11>:
            display_turn();
    1098:	0e 94 72 10 	call	0x20e4	; 0x20e4 <display_turn>

0000109c <.LVL48>:
            if(USART1_receiveByte()==0x01){
    109c:	0e 94 ac 02 	call	0x558	; 0x558 <USART1_receiveByte>

000010a0 <.LVL49>:
    10a0:	81 30       	cpi	r24, 0x01	; 1
    10a2:	51 f6       	brne	.-108    	; 0x1038 <.L29>

000010a4 <.Loc.114>:
                task_manager(forward_fast, standard_speed, standard_acceleration);
    10a4:	4f ef       	ldi	r20, 0xFF	; 255
    10a6:	6f ef       	ldi	r22, 0xFF	; 255
    10a8:	81 e0       	ldi	r24, 0x01	; 1
    10aa:	90 e0       	ldi	r25, 0x00	; 0
    10ac:	0e 94 b4 02 	call	0x568	; 0x568 <task_manager>

000010b0 <.LVL50>:
                current_state = forward;
    10b0:	0a 2d       	mov	r16, r10
    10b2:	1b 2d       	mov	r17, r11
    10b4:	c1 cf       	rjmp	.-126    	; 0x1038 <.L29>

000010b6 <music_init>:
#include "intermediate_control.h"

void music_init(void){
    // Start as high input to prevent noise from voltage fluctuations
    // Set to output in separate function
    DDR_BUZZ &= ~(1<<PIN_BUZZ);
    10b6:	6d 98       	cbi	0x0d, 5	; 13

000010b8 <.Loc.3>:
    PORT_BUZZ |= (1<<PIN_BUZZ);
    10b8:	75 9a       	sbi	0x0e, 5	; 14

000010ba <.Loc.5>:
    // OC3C Mode 14, Fast PWM, prescaler 1
    // COM bits are set in separate function
    TCCR3A = (1<<WGM31);
    10ba:	82 e0       	ldi	r24, 0x02	; 2
    10bc:	80 93 90 00 	sts	0x0090, r24	; 0x800090 <__TEXT_REGION_LENGTH__+0x700090>

000010c0 <.Loc.7>:
    TCCR3B = (1<<CS30) | (1<<WGM33) | (1<<WGM32);
    10c0:	89 e1       	ldi	r24, 0x19	; 25
    10c2:	80 93 91 00 	sts	0x0091, r24	; 0x800091 <__TEXT_REGION_LENGTH__+0x700091>

000010c6 <.Loc.10>:
    OCR3C = 65535*0.02;
    10c6:	8e e1       	ldi	r24, 0x1E	; 30
    10c8:	95 e0       	ldi	r25, 0x05	; 5
    10ca:	90 93 9d 00 	sts	0x009D, r25	; 0x80009d <__TEXT_REGION_LENGTH__+0x70009d>
    10ce:	80 93 9c 00 	sts	0x009C, r24	; 0x80009c <__TEXT_REGION_LENGTH__+0x70009c>

000010d2 <.Loc.11>:
}
    10d2:	08 95       	ret

000010d4 <buzzer_enable>:
// Set buzzer to output and enable COM bits for PWM
void buzzer_enable(char input){
    if(input){
    10d4:	88 23       	and	r24, r24
    10d6:	39 f0       	breq	.+14     	; 0x10e6 <.L3>

000010d8 <.Loc.15>:
        DDR_BUZZ |= (1<<PIN_BUZZ);
    10d8:	6d 9a       	sbi	0x0d, 5	; 13

000010da <.Loc.17>:
        TCCR3A |= (1<<COM3C1) | (1<<COM3C0);
    10da:	e0 e9       	ldi	r30, 0x90	; 144
    10dc:	f0 e0       	ldi	r31, 0x00	; 0
    10de:	80 81       	ld	r24, Z

000010e0 <.Loc.18>:
    10e0:	8c 60       	ori	r24, 0x0C	; 12
    10e2:	80 83       	st	Z, r24
    10e4:	08 95       	ret

000010e6 <.L3>:
    }
    else{
        DDR_BUZZ &= ~(1<<PIN_BUZZ);
    10e6:	6d 98       	cbi	0x0d, 5	; 13

000010e8 <.Loc.21>:
        TCCR3A &= ~((1<<COM3C1) | (1<<COM3C0));
    10e8:	e0 e9       	ldi	r30, 0x90	; 144
    10ea:	f0 e0       	ldi	r31, 0x00	; 0
    10ec:	80 81       	ld	r24, Z

000010ee <.Loc.23>:
    10ee:	83 7f       	andi	r24, 0xF3	; 243
    10f0:	80 83       	st	Z, r24

000010f2 <.Loc.24>:
    }
}
    10f2:	08 95       	ret

000010f4 <hz_to_icr_value>:

int hz_to_icr_value(int hz){
    return (16000000/hz);
    10f4:	9c 01       	movw	r18, r24
    10f6:	99 0f       	add	r25, r25
    10f8:	44 0b       	sbc	r20, r20
    10fa:	55 0b       	sbc	r21, r21
    10fc:	60 e0       	ldi	r22, 0x00	; 0
    10fe:	74 e2       	ldi	r23, 0x24	; 36
    1100:	84 ef       	ldi	r24, 0xF4	; 244
    1102:	90 e0       	ldi	r25, 0x00	; 0
    1104:	0e 94 75 11 	call	0x22ea	; 0x22ea <__divmodsi4>

00001108 <.Loc.28>:
}
    1108:	c9 01       	movw	r24, r18

0000110a <.Loc.29>:
    110a:	08 95       	ret

0000110c <play_note>:

void play_note(int note, int beats, int state, int *note_num){
    110c:	ef 92       	push	r14
    110e:	ff 92       	push	r15
    1110:	0f 93       	push	r16
    1112:	1f 93       	push	r17
    1114:	cf 93       	push	r28
    1116:	df 93       	push	r29
    1118:	c8 2f       	mov	r28, r24
    111a:	d9 2f       	mov	r29, r25
    111c:	cb 01       	movw	r24, r22

0000111e <.Loc.32>:
    111e:	e4 2e       	mov	r14, r20
    1120:	f5 2e       	mov	r15, r21
    1122:	02 2f       	mov	r16, r18
    1124:	13 2f       	mov	r17, r19

00001126 <.Loc.33>:
    // Use GP timer to time beats
    if(!gp_timer(beats)){
    1126:	0e 94 35 04 	call	0x86a	; 0x86a <gp_timer>

0000112a <.LVL8>:
    112a:	81 11       	cpse	r24, r1
    112c:	22 c0       	rjmp	.+68     	; 0x1172 <.L7>

0000112e <.LBB5>:
    return (16000000/hz);
    112e:	9e 01       	movw	r18, r28
    1130:	dd 0f       	add	r29, r29
    1132:	44 0b       	sbc	r20, r20
    1134:	55 0b       	sbc	r21, r21
    1136:	60 e0       	ldi	r22, 0x00	; 0
    1138:	74 e2       	ldi	r23, 0x24	; 36
    113a:	84 ef       	ldi	r24, 0xF4	; 244
    113c:	90 e0       	ldi	r25, 0x00	; 0
    113e:	0e 94 75 11 	call	0x22ea	; 0x22ea <__divmodsi4>

00001142 <.Loc.43>:
        // Set frequency and volume
        int ICR_value = (hz_to_icr_value(note));
        int OCR_value = 65535*0.01;
        ICR3 =  ICR_value;
    1142:	30 93 97 00 	sts	0x0097, r19	; 0x800097 <__TEXT_REGION_LENGTH__+0x700097>
    1146:	20 93 96 00 	sts	0x0096, r18	; 0x800096 <__TEXT_REGION_LENGTH__+0x700096>

0000114a <.Loc.44>:
        OCR3C = OCR_value*state;
    114a:	2f e8       	ldi	r18, 0x8F	; 143
    114c:	32 e0       	ldi	r19, 0x02	; 2
    114e:	e2 9e       	mul	r14, r18
    1150:	c0 01       	movw	r24, r0
    1152:	e3 9e       	mul	r14, r19
    1154:	90 0d       	add	r25, r0
    1156:	f2 9e       	mul	r15, r18
    1158:	90 0d       	add	r25, r0
    115a:	11 24       	eor	r1, r1

0000115c <.Loc.46>:
    115c:	90 93 9d 00 	sts	0x009D, r25	; 0x80009d <__TEXT_REGION_LENGTH__+0x70009d>
    1160:	80 93 9c 00 	sts	0x009C, r24	; 0x80009c <__TEXT_REGION_LENGTH__+0x70009c>

00001164 <.L6>:
    }
    // Next note
    else{
        (*note_num)++;
    }
}
    1164:	df 91       	pop	r29
    1166:	cf 91       	pop	r28
    1168:	1f 91       	pop	r17
    116a:	0f 91       	pop	r16
    116c:	ff 90       	pop	r15
    116e:	ef 90       	pop	r14
    1170:	08 95       	ret

00001172 <.L7>:
        (*note_num)++;
    1172:	f8 01       	movw	r30, r16
    1174:	80 81       	ld	r24, Z
    1176:	91 81       	ldd	r25, Z+1	; 0x01
    1178:	01 96       	adiw	r24, 0x01	; 1
    117a:	91 83       	std	Z+1, r25	; 0x01
    117c:	80 83       	st	Z, r24

0000117e <.Loc.51>:
}
    117e:	f2 cf       	rjmp	.-28     	; 0x1164 <.L6>

00001180 <play_beep>:
// Play multiple notes with switch
char play_beep(){
    static int note_number = 0;
    if(!note_number){
    1180:	80 91 9d 02 	lds	r24, 0x029D	; 0x80029d <note_number.2>
    1184:	90 91 9e 02 	lds	r25, 0x029E	; 0x80029e <note_number.2+0x1>
    1188:	89 2b       	or	r24, r25
    118a:	d9 f0       	breq	.+54     	; 0x11c2 <.L19>

0000118c <.L10>:
        buzzer_enable(1);
    }
    switch(note_number){
    118c:	80 91 9d 02 	lds	r24, 0x029D	; 0x80029d <note_number.2>
    1190:	90 91 9e 02 	lds	r25, 0x029E	; 0x80029e <note_number.2+0x1>
    1194:	83 30       	cpi	r24, 0x03	; 3
    1196:	91 05       	cpc	r25, r1
    1198:	09 f4       	brne	.+2      	; 0x119c <L0^A+0x2>

0000119a <L0^A>:
    119a:	43 c0       	rjmp	.+134    	; 0x1222 <.L11>
    119c:	34 f5       	brge	.+76     	; 0x11ea <.L12>
    119e:	81 30       	cpi	r24, 0x01	; 1
    11a0:	91 05       	cpc	r25, r1
    11a2:	99 f1       	breq	.+102    	; 0x120a <.L13>
    11a4:	82 30       	cpi	r24, 0x02	; 2
    11a6:	91 05       	cpc	r25, r1
    11a8:	81 f4       	brne	.+32     	; 0x11ca <.L20>

000011aa <.Loc.57>:
        break;
    case 1:
        play_note(NOTE_3, 1, 0, &note_number);
        break;
    case 2:
        play_note(NOTE_1, 1, 10, &note_number);
    11aa:	2d e9       	ldi	r18, 0x9D	; 157
    11ac:	32 e0       	ldi	r19, 0x02	; 2
    11ae:	4a e0       	ldi	r20, 0x0A	; 10
    11b0:	50 e0       	ldi	r21, 0x00	; 0
    11b2:	61 e0       	ldi	r22, 0x01	; 1
    11b4:	70 e0       	ldi	r23, 0x00	; 0
    11b6:	8a e6       	ldi	r24, 0x6A	; 106
    11b8:	91 e0       	ldi	r25, 0x01	; 1
    11ba:	0e 94 86 08 	call	0x110c	; 0x110c <play_note>

000011be <.LVL11>:
        buzzer_enable(0);
        note_number = 0;
        return 0;
        break;
    }
    return 1;
    11be:	81 e0       	ldi	r24, 0x01	; 1

000011c0 <.Loc.60>:
        break;
    11c0:	08 95       	ret

000011c2 <.L19>:
        buzzer_enable(1);
    11c2:	81 e0       	ldi	r24, 0x01	; 1
    11c4:	0e 94 6a 08 	call	0x10d4	; 0x10d4 <buzzer_enable>

000011c8 <.LVL12>:
    11c8:	e1 cf       	rjmp	.-62     	; 0x118c <.L10>

000011ca <.L20>:
    switch(note_number){
    11ca:	89 2b       	or	r24, r25
    11cc:	61 f4       	brne	.+24     	; 0x11e6 <.L21>

000011ce <.Loc.63>:
        play_note(NOTE_5, 1, 10, &note_number);
    11ce:	2d e9       	ldi	r18, 0x9D	; 157
    11d0:	32 e0       	ldi	r19, 0x02	; 2
    11d2:	4a e0       	ldi	r20, 0x0A	; 10
    11d4:	50 e0       	ldi	r21, 0x00	; 0
    11d6:	61 e0       	ldi	r22, 0x01	; 1
    11d8:	70 e0       	ldi	r23, 0x00	; 0
    11da:	8c ee       	ldi	r24, 0xEC	; 236
    11dc:	91 e0       	ldi	r25, 0x01	; 1
    11de:	0e 94 86 08 	call	0x110c	; 0x110c <play_note>

000011e2 <.LVL13>:
    return 1;
    11e2:	81 e0       	ldi	r24, 0x01	; 1

000011e4 <.Loc.66>:
        break;
    11e4:	08 95       	ret

000011e6 <.L21>:
    switch(note_number){
    11e6:	81 e0       	ldi	r24, 0x01	; 1
    11e8:	08 95       	ret

000011ea <.L12>:
    11ea:	84 30       	cpi	r24, 0x04	; 4
    11ec:	91 05       	cpc	r25, r1
    11ee:	29 f1       	breq	.+74     	; 0x123a <.L17>
    11f0:	05 97       	sbiw	r24, 0x05	; 5
    11f2:	49 f4       	brne	.+18     	; 0x1206 <.L22>

000011f4 <.Loc.68>:
        buzzer_enable(0);
    11f4:	80 e0       	ldi	r24, 0x00	; 0
    11f6:	0e 94 6a 08 	call	0x10d4	; 0x10d4 <buzzer_enable>

000011fa <.LVL14>:
        note_number = 0;
    11fa:	10 92 9e 02 	sts	0x029E, r1	; 0x80029e <note_number.2+0x1>
    11fe:	10 92 9d 02 	sts	0x029D, r1	; 0x80029d <note_number.2>

00001202 <.Loc.71>:
        return 0;
    1202:	80 e0       	ldi	r24, 0x00	; 0

00001204 <.Loc.73>:
}
    1204:	08 95       	ret

00001206 <.L22>:
    switch(note_number){
    1206:	81 e0       	ldi	r24, 0x01	; 1
    1208:	08 95       	ret

0000120a <.L13>:
        play_note(NOTE_3, 1, 0, &note_number);
    120a:	2d e9       	ldi	r18, 0x9D	; 157
    120c:	32 e0       	ldi	r19, 0x02	; 2
    120e:	40 e0       	ldi	r20, 0x00	; 0
    1210:	50 e0       	ldi	r21, 0x00	; 0
    1212:	61 e0       	ldi	r22, 0x01	; 1
    1214:	70 e0       	ldi	r23, 0x00	; 0
    1216:	8e ea       	ldi	r24, 0xAE	; 174
    1218:	91 e0       	ldi	r25, 0x01	; 1
    121a:	0e 94 86 08 	call	0x110c	; 0x110c <play_note>

0000121e <.LVL15>:
    return 1;
    121e:	81 e0       	ldi	r24, 0x01	; 1

00001220 <.Loc.78>:
        break;
    1220:	08 95       	ret

00001222 <.L11>:
        play_note(NOTE_8, 1, 10, &note_number);
    1222:	2d e9       	ldi	r18, 0x9D	; 157
    1224:	32 e0       	ldi	r19, 0x02	; 2
    1226:	4a e0       	ldi	r20, 0x0A	; 10
    1228:	50 e0       	ldi	r21, 0x00	; 0
    122a:	61 e0       	ldi	r22, 0x01	; 1
    122c:	70 e0       	ldi	r23, 0x00	; 0
    122e:	8f e6       	ldi	r24, 0x6F	; 111
    1230:	92 e0       	ldi	r25, 0x02	; 2
    1232:	0e 94 86 08 	call	0x110c	; 0x110c <play_note>

00001236 <.LVL16>:
    return 1;
    1236:	81 e0       	ldi	r24, 0x01	; 1

00001238 <.Loc.82>:
        break;
    1238:	08 95       	ret

0000123a <.L17>:
        play_note(NOTE_8, 1, 0, &note_number);
    123a:	2d e9       	ldi	r18, 0x9D	; 157
    123c:	32 e0       	ldi	r19, 0x02	; 2
    123e:	40 e0       	ldi	r20, 0x00	; 0
    1240:	50 e0       	ldi	r21, 0x00	; 0
    1242:	61 e0       	ldi	r22, 0x01	; 1
    1244:	70 e0       	ldi	r23, 0x00	; 0
    1246:	8f e6       	ldi	r24, 0x6F	; 111
    1248:	92 e0       	ldi	r25, 0x02	; 2
    124a:	0e 94 86 08 	call	0x110c	; 0x110c <play_note>

0000124e <.LVL17>:
    return 1;
    124e:	81 e0       	ldi	r24, 0x01	; 1

00001250 <.Loc.86>:
        break;
    1250:	08 95       	ret

00001252 <play_beep_sad>:
// Slight variation on beep
char play_beep_sad(){
    static int note_number = 0;
    if(!note_number){
    1252:	80 91 9b 02 	lds	r24, 0x029B	; 0x80029b <note_number.1>
    1256:	90 91 9c 02 	lds	r25, 0x029C	; 0x80029c <note_number.1+0x1>
    125a:	89 2b       	or	r24, r25
    125c:	d9 f0       	breq	.+54     	; 0x1294 <.L33>

0000125e <.L24>:
        buzzer_enable(1);
    }
    switch(note_number){
    125e:	80 91 9b 02 	lds	r24, 0x029B	; 0x80029b <note_number.1>
    1262:	90 91 9c 02 	lds	r25, 0x029C	; 0x80029c <note_number.1+0x1>
    1266:	83 30       	cpi	r24, 0x03	; 3
    1268:	91 05       	cpc	r25, r1
    126a:	09 f4       	brne	.+2      	; 0x126e <L0^A+0x2>

0000126c <L0^A>:
    126c:	43 c0       	rjmp	.+134    	; 0x12f4 <.L25>
    126e:	34 f5       	brge	.+76     	; 0x12bc <.L26>
    1270:	81 30       	cpi	r24, 0x01	; 1
    1272:	91 05       	cpc	r25, r1
    1274:	99 f1       	breq	.+102    	; 0x12dc <.L27>
    1276:	82 30       	cpi	r24, 0x02	; 2
    1278:	91 05       	cpc	r25, r1
    127a:	81 f4       	brne	.+32     	; 0x129c <.L34>

0000127c <.Loc.92>:
        break;
    case 1:
        play_note(NOTE_3, 2, 0, &note_number);
        break;
    case 2:
        play_note(NOTE_2, 3, 1, &note_number);
    127c:	2b e9       	ldi	r18, 0x9B	; 155
    127e:	32 e0       	ldi	r19, 0x02	; 2
    1280:	41 e0       	ldi	r20, 0x01	; 1
    1282:	50 e0       	ldi	r21, 0x00	; 0
    1284:	63 e0       	ldi	r22, 0x03	; 3
    1286:	70 e0       	ldi	r23, 0x00	; 0
    1288:	8a e8       	ldi	r24, 0x8A	; 138
    128a:	91 e0       	ldi	r25, 0x01	; 1
    128c:	0e 94 86 08 	call	0x110c	; 0x110c <play_note>

00001290 <.LVL18>:
        buzzer_enable(0);
        note_number = 0;
        return 0;
        break;
    }
    return 1;
    1290:	81 e0       	ldi	r24, 0x01	; 1

00001292 <.Loc.95>:
        break;
    1292:	08 95       	ret

00001294 <.L33>:
        buzzer_enable(1);
    1294:	81 e0       	ldi	r24, 0x01	; 1
    1296:	0e 94 6a 08 	call	0x10d4	; 0x10d4 <buzzer_enable>

0000129a <.LVL19>:
    129a:	e1 cf       	rjmp	.-62     	; 0x125e <.L24>

0000129c <.L34>:
    switch(note_number){
    129c:	89 2b       	or	r24, r25
    129e:	61 f4       	brne	.+24     	; 0x12b8 <.L35>

000012a0 <.Loc.98>:
        play_note(NOTE_3, 3, 1, &note_number);
    12a0:	2b e9       	ldi	r18, 0x9B	; 155
    12a2:	32 e0       	ldi	r19, 0x02	; 2
    12a4:	41 e0       	ldi	r20, 0x01	; 1
    12a6:	50 e0       	ldi	r21, 0x00	; 0
    12a8:	63 e0       	ldi	r22, 0x03	; 3
    12aa:	70 e0       	ldi	r23, 0x00	; 0
    12ac:	8e ea       	ldi	r24, 0xAE	; 174
    12ae:	91 e0       	ldi	r25, 0x01	; 1
    12b0:	0e 94 86 08 	call	0x110c	; 0x110c <play_note>

000012b4 <.LVL20>:
    return 1;
    12b4:	81 e0       	ldi	r24, 0x01	; 1

000012b6 <.Loc.101>:
        break;
    12b6:	08 95       	ret

000012b8 <.L35>:
    switch(note_number){
    12b8:	81 e0       	ldi	r24, 0x01	; 1
    12ba:	08 95       	ret

000012bc <.L26>:
    12bc:	84 30       	cpi	r24, 0x04	; 4
    12be:	91 05       	cpc	r25, r1
    12c0:	29 f1       	breq	.+74     	; 0x130c <.L31>
    12c2:	05 97       	sbiw	r24, 0x05	; 5
    12c4:	49 f4       	brne	.+18     	; 0x12d8 <.L36>

000012c6 <.Loc.103>:
        buzzer_enable(0);
    12c6:	80 e0       	ldi	r24, 0x00	; 0
    12c8:	0e 94 6a 08 	call	0x10d4	; 0x10d4 <buzzer_enable>

000012cc <.LVL21>:
        note_number = 0;
    12cc:	10 92 9c 02 	sts	0x029C, r1	; 0x80029c <note_number.1+0x1>
    12d0:	10 92 9b 02 	sts	0x029B, r1	; 0x80029b <note_number.1>

000012d4 <.Loc.106>:
        return 0;
    12d4:	80 e0       	ldi	r24, 0x00	; 0

000012d6 <.Loc.108>:
}
    12d6:	08 95       	ret

000012d8 <.L36>:
    switch(note_number){
    12d8:	81 e0       	ldi	r24, 0x01	; 1
    12da:	08 95       	ret

000012dc <.L27>:
        play_note(NOTE_3, 2, 0, &note_number);
    12dc:	2b e9       	ldi	r18, 0x9B	; 155
    12de:	32 e0       	ldi	r19, 0x02	; 2
    12e0:	40 e0       	ldi	r20, 0x00	; 0
    12e2:	50 e0       	ldi	r21, 0x00	; 0
    12e4:	62 e0       	ldi	r22, 0x02	; 2
    12e6:	70 e0       	ldi	r23, 0x00	; 0
    12e8:	8e ea       	ldi	r24, 0xAE	; 174
    12ea:	91 e0       	ldi	r25, 0x01	; 1
    12ec:	0e 94 86 08 	call	0x110c	; 0x110c <play_note>

000012f0 <.LVL22>:
    return 1;
    12f0:	81 e0       	ldi	r24, 0x01	; 1

000012f2 <.Loc.113>:
        break;
    12f2:	08 95       	ret

000012f4 <.L25>:
        play_note(NOTE_1, 7, 1, &note_number);
    12f4:	2b e9       	ldi	r18, 0x9B	; 155
    12f6:	32 e0       	ldi	r19, 0x02	; 2
    12f8:	41 e0       	ldi	r20, 0x01	; 1
    12fa:	50 e0       	ldi	r21, 0x00	; 0
    12fc:	67 e0       	ldi	r22, 0x07	; 7
    12fe:	70 e0       	ldi	r23, 0x00	; 0
    1300:	8a e6       	ldi	r24, 0x6A	; 106
    1302:	91 e0       	ldi	r25, 0x01	; 1
    1304:	0e 94 86 08 	call	0x110c	; 0x110c <play_note>

00001308 <.LVL23>:
    return 1;
    1308:	81 e0       	ldi	r24, 0x01	; 1

0000130a <.Loc.117>:
        break;
    130a:	08 95       	ret

0000130c <.L31>:
        play_note(NOTE_8, 30, 0, &note_number);
    130c:	2b e9       	ldi	r18, 0x9B	; 155
    130e:	32 e0       	ldi	r19, 0x02	; 2
    1310:	40 e0       	ldi	r20, 0x00	; 0
    1312:	50 e0       	ldi	r21, 0x00	; 0
    1314:	6e e1       	ldi	r22, 0x1E	; 30
    1316:	70 e0       	ldi	r23, 0x00	; 0
    1318:	8f e6       	ldi	r24, 0x6F	; 111
    131a:	92 e0       	ldi	r25, 0x02	; 2
    131c:	0e 94 86 08 	call	0x110c	; 0x110c <play_note>

00001320 <.LVL24>:
    return 1;
    1320:	81 e0       	ldi	r24, 0x01	; 1

00001322 <.Loc.121>:
        break;
    1322:	08 95       	ret

00001324 <play_song>:
// Sounds like old nokia
char play_song(){
    static int note_number = 0;
    if(!note_number){
    1324:	80 91 99 02 	lds	r24, 0x0299	; 0x800299 <note_number.0>
    1328:	90 91 9a 02 	lds	r25, 0x029A	; 0x80029a <note_number.0+0x1>
    132c:	89 2b       	or	r24, r25
    132e:	71 f0       	breq	.+28     	; 0x134c <.L57>

00001330 <.L38>:
        buzzer_enable(1);
    }
    switch(note_number){
    1330:	e0 91 99 02 	lds	r30, 0x0299	; 0x800299 <note_number.0>
    1334:	f0 91 9a 02 	lds	r31, 0x029A	; 0x80029a <note_number.0+0x1>
    1338:	ef 30       	cpi	r30, 0x0F	; 15
    133a:	f1 05       	cpc	r31, r1
    133c:	08 f0       	brcs	.+2      	; 0x1340 <L0^A+0x2>

0000133e <L0^A>:
    133e:	bb c0       	rjmp	.+374    	; 0x14b6 <.L56>
    1340:	88 27       	eor	r24, r24
    1342:	e5 50       	subi	r30, 0x05	; 5
    1344:	fd 4e       	sbci	r31, 0xED	; 237
    1346:	8f 4f       	sbci	r24, 0xFF	; 255
    1348:	0c 94 94 11 	jmp	0x2328	; 0x2328 <__tablejump2__>

0000134c <.L57>:
        buzzer_enable(1);
    134c:	81 e0       	ldi	r24, 0x01	; 1
    134e:	0e 94 6a 08 	call	0x10d4	; 0x10d4 <buzzer_enable>

00001352 <.LVL25>:
    1352:	ee cf       	rjmp	.-36     	; 0x1330 <.L38>

00001354 <.L55>:
    case 0:
        play_note(NOTE_8, 1, 1, &note_number);
    1354:	29 e9       	ldi	r18, 0x99	; 153
    1356:	32 e0       	ldi	r19, 0x02	; 2
    1358:	41 e0       	ldi	r20, 0x01	; 1
    135a:	50 e0       	ldi	r21, 0x00	; 0
    135c:	61 e0       	ldi	r22, 0x01	; 1
    135e:	70 e0       	ldi	r23, 0x00	; 0
    1360:	8f e6       	ldi	r24, 0x6F	; 111
    1362:	92 e0       	ldi	r25, 0x02	; 2
    1364:	0e 94 86 08 	call	0x110c	; 0x110c <play_note>

00001368 <.LVL26>:
        buzzer_enable(0);
        note_number = 0;
        return 0;
        break;
    }
    return 1;
    1368:	81 e0       	ldi	r24, 0x01	; 1

0000136a <.Loc.131>:
        break;
    136a:	08 95       	ret

0000136c <.L54>:
        play_note(NOTE_7, 1, 1, &note_number);
    136c:	29 e9       	ldi	r18, 0x99	; 153
    136e:	32 e0       	ldi	r19, 0x02	; 2
    1370:	41 e0       	ldi	r20, 0x01	; 1
    1372:	50 e0       	ldi	r21, 0x00	; 0
    1374:	61 e0       	ldi	r22, 0x01	; 1
    1376:	70 e0       	ldi	r23, 0x00	; 0
    1378:	82 e5       	ldi	r24, 0x52	; 82
    137a:	92 e0       	ldi	r25, 0x02	; 2
    137c:	0e 94 86 08 	call	0x110c	; 0x110c <play_note>

00001380 <.LVL27>:
    return 1;
    1380:	81 e0       	ldi	r24, 0x01	; 1

00001382 <.Loc.135>:
        break;
    1382:	08 95       	ret

00001384 <.L53>:
        play_note(NOTE_3, 2, 1, &note_number);
    1384:	29 e9       	ldi	r18, 0x99	; 153
    1386:	32 e0       	ldi	r19, 0x02	; 2
    1388:	41 e0       	ldi	r20, 0x01	; 1
    138a:	50 e0       	ldi	r21, 0x00	; 0
    138c:	62 e0       	ldi	r22, 0x02	; 2
    138e:	70 e0       	ldi	r23, 0x00	; 0
    1390:	8e ea       	ldi	r24, 0xAE	; 174
    1392:	91 e0       	ldi	r25, 0x01	; 1
    1394:	0e 94 86 08 	call	0x110c	; 0x110c <play_note>

00001398 <.LVL28>:
    return 1;
    1398:	81 e0       	ldi	r24, 0x01	; 1

0000139a <.Loc.139>:
        break;
    139a:	08 95       	ret

0000139c <.L52>:
        play_note(NOTE_4, 2, 1, &note_number);
    139c:	29 e9       	ldi	r18, 0x99	; 153
    139e:	32 e0       	ldi	r19, 0x02	; 2
    13a0:	41 e0       	ldi	r20, 0x01	; 1
    13a2:	50 e0       	ldi	r21, 0x00	; 0
    13a4:	62 e0       	ldi	r22, 0x02	; 2
    13a6:	70 e0       	ldi	r23, 0x00	; 0
    13a8:	81 ec       	ldi	r24, 0xC1	; 193
    13aa:	91 e0       	ldi	r25, 0x01	; 1
    13ac:	0e 94 86 08 	call	0x110c	; 0x110c <play_note>

000013b0 <.LVL29>:
    return 1;
    13b0:	81 e0       	ldi	r24, 0x01	; 1

000013b2 <.Loc.143>:
        break;
    13b2:	08 95       	ret

000013b4 <.L51>:
        play_note(NOTE_7, 1, 1, &note_number);
    13b4:	29 e9       	ldi	r18, 0x99	; 153
    13b6:	32 e0       	ldi	r19, 0x02	; 2
    13b8:	41 e0       	ldi	r20, 0x01	; 1
    13ba:	50 e0       	ldi	r21, 0x00	; 0
    13bc:	61 e0       	ldi	r22, 0x01	; 1
    13be:	70 e0       	ldi	r23, 0x00	; 0
    13c0:	82 e5       	ldi	r24, 0x52	; 82
    13c2:	92 e0       	ldi	r25, 0x02	; 2
    13c4:	0e 94 86 08 	call	0x110c	; 0x110c <play_note>

000013c8 <.LVL30>:
    return 1;
    13c8:	81 e0       	ldi	r24, 0x01	; 1

000013ca <.Loc.147>:
        break;
    13ca:	08 95       	ret

000013cc <.L50>:
        play_note(NOTE_6, 1, 1, &note_number);
    13cc:	29 e9       	ldi	r18, 0x99	; 153
    13ce:	32 e0       	ldi	r19, 0x02	; 2
    13d0:	41 e0       	ldi	r20, 0x01	; 1
    13d2:	50 e0       	ldi	r21, 0x00	; 0
    13d4:	61 e0       	ldi	r22, 0x01	; 1
    13d6:	70 e0       	ldi	r23, 0x00	; 0
    13d8:	8c e1       	ldi	r24, 0x1C	; 28
    13da:	92 e0       	ldi	r25, 0x02	; 2
    13dc:	0e 94 86 08 	call	0x110c	; 0x110c <play_note>

000013e0 <.LVL31>:
    return 1;
    13e0:	81 e0       	ldi	r24, 0x01	; 1

000013e2 <.Loc.151>:
        break;
    13e2:	08 95       	ret

000013e4 <.L49>:
        play_note(NOTE_1, 2, 1, &note_number);
    13e4:	29 e9       	ldi	r18, 0x99	; 153
    13e6:	32 e0       	ldi	r19, 0x02	; 2
    13e8:	41 e0       	ldi	r20, 0x01	; 1
    13ea:	50 e0       	ldi	r21, 0x00	; 0
    13ec:	62 e0       	ldi	r22, 0x02	; 2
    13ee:	70 e0       	ldi	r23, 0x00	; 0
    13f0:	8a e6       	ldi	r24, 0x6A	; 106
    13f2:	91 e0       	ldi	r25, 0x01	; 1
    13f4:	0e 94 86 08 	call	0x110c	; 0x110c <play_note>

000013f8 <.LVL32>:
    return 1;
    13f8:	81 e0       	ldi	r24, 0x01	; 1

000013fa <.Loc.155>:
        break;
    13fa:	08 95       	ret

000013fc <.L48>:
        play_note(NOTE_2, 2, 1, &note_number);
    13fc:	29 e9       	ldi	r18, 0x99	; 153
    13fe:	32 e0       	ldi	r19, 0x02	; 2
    1400:	41 e0       	ldi	r20, 0x01	; 1
    1402:	50 e0       	ldi	r21, 0x00	; 0
    1404:	62 e0       	ldi	r22, 0x02	; 2
    1406:	70 e0       	ldi	r23, 0x00	; 0
    1408:	8a e8       	ldi	r24, 0x8A	; 138
    140a:	91 e0       	ldi	r25, 0x01	; 1
    140c:	0e 94 86 08 	call	0x110c	; 0x110c <play_note>

00001410 <.LVL33>:
    return 1;
    1410:	81 e0       	ldi	r24, 0x01	; 1

00001412 <.Loc.159>:
        break;
    1412:	08 95       	ret

00001414 <.L47>:
        play_note(NOTE_6, 1, 1, &note_number);
    1414:	29 e9       	ldi	r18, 0x99	; 153
    1416:	32 e0       	ldi	r19, 0x02	; 2
    1418:	41 e0       	ldi	r20, 0x01	; 1
    141a:	50 e0       	ldi	r21, 0x00	; 0
    141c:	61 e0       	ldi	r22, 0x01	; 1
    141e:	70 e0       	ldi	r23, 0x00	; 0
    1420:	8c e1       	ldi	r24, 0x1C	; 28
    1422:	92 e0       	ldi	r25, 0x02	; 2
    1424:	0e 94 86 08 	call	0x110c	; 0x110c <play_note>

00001428 <.LVL34>:
    return 1;
    1428:	81 e0       	ldi	r24, 0x01	; 1

0000142a <.Loc.163>:
        break;
    142a:	08 95       	ret

0000142c <.L46>:
        play_note(NOTE_5, 1, 1, &note_number);
    142c:	29 e9       	ldi	r18, 0x99	; 153
    142e:	32 e0       	ldi	r19, 0x02	; 2
    1430:	41 e0       	ldi	r20, 0x01	; 1
    1432:	50 e0       	ldi	r21, 0x00	; 0
    1434:	61 e0       	ldi	r22, 0x01	; 1
    1436:	70 e0       	ldi	r23, 0x00	; 0
    1438:	8c ee       	ldi	r24, 0xEC	; 236
    143a:	91 e0       	ldi	r25, 0x01	; 1
    143c:	0e 94 86 08 	call	0x110c	; 0x110c <play_note>

00001440 <.LVL35>:
    return 1;
    1440:	81 e0       	ldi	r24, 0x01	; 1

00001442 <.Loc.167>:
        break;
    1442:	08 95       	ret

00001444 <.L45>:
        play_note(NOTE_1, 2, 1, &note_number);
    1444:	29 e9       	ldi	r18, 0x99	; 153
    1446:	32 e0       	ldi	r19, 0x02	; 2
    1448:	41 e0       	ldi	r20, 0x01	; 1
    144a:	50 e0       	ldi	r21, 0x00	; 0
    144c:	62 e0       	ldi	r22, 0x02	; 2
    144e:	70 e0       	ldi	r23, 0x00	; 0
    1450:	8a e6       	ldi	r24, 0x6A	; 106
    1452:	91 e0       	ldi	r25, 0x01	; 1
    1454:	0e 94 86 08 	call	0x110c	; 0x110c <play_note>

00001458 <.LVL36>:
    return 1;
    1458:	81 e0       	ldi	r24, 0x01	; 1

0000145a <.Loc.171>:
        break;
    145a:	08 95       	ret

0000145c <.L44>:
        play_note(NOTE_2, 2, 1, &note_number);
    145c:	29 e9       	ldi	r18, 0x99	; 153
    145e:	32 e0       	ldi	r19, 0x02	; 2
    1460:	41 e0       	ldi	r20, 0x01	; 1
    1462:	50 e0       	ldi	r21, 0x00	; 0
    1464:	62 e0       	ldi	r22, 0x02	; 2
    1466:	70 e0       	ldi	r23, 0x00	; 0
    1468:	8a e8       	ldi	r24, 0x8A	; 138
    146a:	91 e0       	ldi	r25, 0x01	; 1
    146c:	0e 94 86 08 	call	0x110c	; 0x110c <play_note>

00001470 <.LVL37>:
    return 1;
    1470:	81 e0       	ldi	r24, 0x01	; 1

00001472 <.Loc.175>:
        break;
    1472:	08 95       	ret

00001474 <.L43>:
        play_note(NOTE_3, 5, 1, &note_number);
    1474:	29 e9       	ldi	r18, 0x99	; 153
    1476:	32 e0       	ldi	r19, 0x02	; 2
    1478:	41 e0       	ldi	r20, 0x01	; 1
    147a:	50 e0       	ldi	r21, 0x00	; 0
    147c:	65 e0       	ldi	r22, 0x05	; 5
    147e:	70 e0       	ldi	r23, 0x00	; 0
    1480:	8e ea       	ldi	r24, 0xAE	; 174
    1482:	91 e0       	ldi	r25, 0x01	; 1
    1484:	0e 94 86 08 	call	0x110c	; 0x110c <play_note>

00001488 <.LVL38>:
    return 1;
    1488:	81 e0       	ldi	r24, 0x01	; 1

0000148a <.Loc.179>:
        break;
    148a:	08 95       	ret

0000148c <.L42>:
        play_note(NOTE_1, 5, 0, &note_number);
    148c:	29 e9       	ldi	r18, 0x99	; 153
    148e:	32 e0       	ldi	r19, 0x02	; 2
    1490:	40 e0       	ldi	r20, 0x00	; 0
    1492:	50 e0       	ldi	r21, 0x00	; 0
    1494:	65 e0       	ldi	r22, 0x05	; 5
    1496:	70 e0       	ldi	r23, 0x00	; 0
    1498:	8a e6       	ldi	r24, 0x6A	; 106
    149a:	91 e0       	ldi	r25, 0x01	; 1
    149c:	0e 94 86 08 	call	0x110c	; 0x110c <play_note>

000014a0 <.LVL39>:
    return 1;
    14a0:	81 e0       	ldi	r24, 0x01	; 1

000014a2 <.Loc.183>:
        break;
    14a2:	08 95       	ret

000014a4 <.L40>:
        buzzer_enable(0);
    14a4:	80 e0       	ldi	r24, 0x00	; 0
    14a6:	0e 94 6a 08 	call	0x10d4	; 0x10d4 <buzzer_enable>

000014aa <.LVL40>:
        note_number = 0;
    14aa:	10 92 9a 02 	sts	0x029A, r1	; 0x80029a <note_number.0+0x1>
    14ae:	10 92 99 02 	sts	0x0299, r1	; 0x800299 <note_number.0>

000014b2 <.Loc.187>:
        return 0;
    14b2:	80 e0       	ldi	r24, 0x00	; 0
    14b4:	08 95       	ret

000014b6 <.L56>:
    switch(note_number){
    14b6:	81 e0       	ldi	r24, 0x01	; 1

000014b8 <.Loc.190>:
}
    14b8:	08 95       	ret

000014ba <spi_init>:
    14ba:	84 b1       	in	r24, 0x04	; 4

000014bc <.Loc.2>:
    14bc:	87 60       	ori	r24, 0x07	; 7
    14be:	84 b9       	out	0x04, r24	; 4

000014c0 <.Loc.3>:
    14c0:	23 98       	cbi	0x04, 3	; 4

000014c2 <.Loc.5>:
    14c2:	81 e5       	ldi	r24, 0x51	; 81
    14c4:	8c bd       	out	0x2c, r24	; 44

000014c6 <.Loc.7>:
    14c6:	08 95       	ret

000014c8 <spi_transfer>:
    14c8:	8e bd       	out	0x2e, r24	; 46

000014ca <.L3>:
    14ca:	0d b4       	in	r0, 0x2d	; 45
    14cc:	07 fe       	sbrs	r0, 7
    14ce:	fd cf       	rjmp	.-6      	; 0x14ca <.L3>

000014d0 <.Loc.13>:
    14d0:	8e b5       	in	r24, 0x2e	; 46

000014d2 <.Loc.15>:
    14d2:	08 95       	ret

000014d4 <read_register>:
    14d4:	ef 92       	push	r14
    14d6:	ff 92       	push	r15
    14d8:	0f 93       	push	r16
    14da:	1f 93       	push	r17
    14dc:	cf 93       	push	r28
    14de:	df 93       	push	r29
    14e0:	00 d0       	rcall	.+0      	; 0x14e2 <L0^A>

000014e2 <L0^A>:
    14e2:	0f 92       	push	r0
    14e4:	0f 92       	push	r0
    14e6:	cd b7       	in	r28, 0x3d	; 61
    14e8:	de b7       	in	r29, 0x3e	; 62
    14ea:	49 83       	std	Y+1, r20	; 0x01
    14ec:	5a 83       	std	Y+2, r21	; 0x02
    14ee:	6b 83       	std	Y+3, r22	; 0x03
    14f0:	7c 83       	std	Y+4, r23	; 0x04
    14f2:	8d 83       	std	Y+5, r24	; 0x05
    14f4:	82 2f       	mov	r24, r18
    14f6:	09 81       	ldd	r16, Y+1	; 0x01
    14f8:	1a 81       	ldd	r17, Y+2	; 0x02

000014fa <.Loc.18>:
    14fa:	f8 01       	movw	r30, r16
    14fc:	40 81       	ld	r20, Z

000014fe <.Loc.20>:
    14fe:	21 e0       	ldi	r18, 0x01	; 1
    1500:	30 e0       	ldi	r19, 0x00	; 0

00001502 <.Loc.21>:
    1502:	79 01       	movw	r14, r18
    1504:	02 c0       	rjmp	.+4      	; 0x150a <.L2^B1>

00001506 <.L1^B1>:
    1506:	ee 0c       	add	r14, r14
    1508:	ff 1c       	adc	r15, r15

0000150a <.L2^B1>:
    150a:	6a 95       	dec	r22
    150c:	e2 f7       	brpl	.-8      	; 0x1506 <.L1^B1>

0000150e <.Loc.22>:
    150e:	9e 2d       	mov	r25, r14
    1510:	90 95       	com	r25
    1512:	94 23       	and	r25, r20
    1514:	90 83       	st	Z, r25

00001516 <.Loc.23>:
    1516:	88 0f       	add	r24, r24

00001518 <.Loc.25>:
    1518:	8e 77       	andi	r24, 0x7E	; 126

0000151a <.Loc.26>:
    151a:	80 68       	ori	r24, 0x80	; 128
    151c:	0e 94 64 0a 	call	0x14c8	; 0x14c8 <spi_transfer>

00001520 <.LVL6>:
    1520:	80 e0       	ldi	r24, 0x00	; 0
    1522:	0e 94 64 0a 	call	0x14c8	; 0x14c8 <spi_transfer>

00001526 <.LVL7>:
    1526:	f8 01       	movw	r30, r16
    1528:	90 81       	ld	r25, Z

0000152a <.Loc.30>:
    152a:	9e 29       	or	r25, r14
    152c:	90 83       	st	Z, r25

0000152e <.Loc.31>:
    152e:	0f 90       	pop	r0
    1530:	0f 90       	pop	r0
    1532:	0f 90       	pop	r0
    1534:	0f 90       	pop	r0
    1536:	0f 90       	pop	r0
    1538:	df 91       	pop	r29
    153a:	cf 91       	pop	r28
    153c:	1f 91       	pop	r17
    153e:	0f 91       	pop	r16

00001540 <.Loc.33>:
    1540:	ff 90       	pop	r15
    1542:	ef 90       	pop	r14
    1544:	08 95       	ret

00001546 <write_register>:
    1546:	cf 92       	push	r12
    1548:	df 92       	push	r13
    154a:	ef 92       	push	r14
    154c:	ff 92       	push	r15
    154e:	0f 93       	push	r16
    1550:	cf 93       	push	r28
    1552:	df 93       	push	r29
    1554:	00 d0       	rcall	.+0      	; 0x1556 <L0^A>

00001556 <L0^A>:
    1556:	0f 92       	push	r0
    1558:	0f 92       	push	r0
    155a:	cd b7       	in	r28, 0x3d	; 61
    155c:	de b7       	in	r29, 0x3e	; 62
    155e:	49 83       	std	Y+1, r20	; 0x01
    1560:	5a 83       	std	Y+2, r21	; 0x02
    1562:	6b 83       	std	Y+3, r22	; 0x03
    1564:	7c 83       	std	Y+4, r23	; 0x04
    1566:	8d 83       	std	Y+5, r24	; 0x05
    1568:	e9 80       	ldd	r14, Y+1	; 0x01
    156a:	fa 80       	ldd	r15, Y+2	; 0x02

0000156c <.Loc.36>:
    156c:	f7 01       	movw	r30, r14
    156e:	90 81       	ld	r25, Z

00001570 <.Loc.37>:
    1570:	41 e0       	ldi	r20, 0x01	; 1
    1572:	50 e0       	ldi	r21, 0x00	; 0
    1574:	6a 01       	movw	r12, r20
    1576:	02 c0       	rjmp	.+4      	; 0x157c <.L2^B2>

00001578 <.L1^B2>:
    1578:	cc 0c       	add	r12, r12
    157a:	dd 1c       	adc	r13, r13

0000157c <.L2^B2>:
    157c:	6a 95       	dec	r22
    157e:	e2 f7       	brpl	.-8      	; 0x1578 <.L1^B2>

00001580 <.Loc.38>:
    1580:	8c 2d       	mov	r24, r12
    1582:	80 95       	com	r24
    1584:	89 23       	and	r24, r25
    1586:	80 83       	st	Z, r24

00001588 <.Loc.39>:
    1588:	82 2f       	mov	r24, r18
    158a:	88 0f       	add	r24, r24

0000158c <.Loc.41>:
    158c:	8e 77       	andi	r24, 0x7E	; 126
    158e:	0e 94 64 0a 	call	0x14c8	; 0x14c8 <spi_transfer>

00001592 <.LVL11>:
    1592:	80 2f       	mov	r24, r16
    1594:	0e 94 64 0a 	call	0x14c8	; 0x14c8 <spi_transfer>

00001598 <.LVL12>:
    1598:	f7 01       	movw	r30, r14
    159a:	80 81       	ld	r24, Z

0000159c <.Loc.44>:
    159c:	8c 29       	or	r24, r12
    159e:	80 83       	st	Z, r24

000015a0 <.Loc.45>:
    15a0:	0f 90       	pop	r0
    15a2:	0f 90       	pop	r0
    15a4:	0f 90       	pop	r0
    15a6:	0f 90       	pop	r0
    15a8:	0f 90       	pop	r0
    15aa:	df 91       	pop	r29
    15ac:	cf 91       	pop	r28
    15ae:	0f 91       	pop	r16

000015b0 <.Loc.46>:
    15b0:	ff 90       	pop	r15
    15b2:	ef 90       	pop	r14

000015b4 <.Loc.47>:
    15b4:	df 90       	pop	r13
    15b6:	cf 90       	pop	r12
    15b8:	08 95       	ret

000015ba <rfid_init>:
    15ba:	af 92       	push	r10
    15bc:	bf 92       	push	r11
    15be:	df 92       	push	r13
    15c0:	ef 92       	push	r14
    15c2:	ff 92       	push	r15
    15c4:	0f 93       	push	r16
    15c6:	1f 93       	push	r17
    15c8:	cf 93       	push	r28
    15ca:	df 93       	push	r29
    15cc:	00 d0       	rcall	.+0      	; 0x15ce <L0^A>

000015ce <L0^A>:
    15ce:	0f 92       	push	r0
    15d0:	0f 92       	push	r0
    15d2:	cd b7       	in	r28, 0x3d	; 61
    15d4:	de b7       	in	r29, 0x3e	; 62
    15d6:	49 83       	std	Y+1, r20	; 0x01
    15d8:	5a 83       	std	Y+2, r21	; 0x02
    15da:	d6 2e       	mov	r13, r22
    15dc:	6b 83       	std	Y+3, r22	; 0x03
    15de:	7c 83       	std	Y+4, r23	; 0x04
    15e0:	8d 83       	std	Y+5, r24	; 0x05
    15e2:	09 81       	ldd	r16, Y+1	; 0x01
    15e4:	1a 81       	ldd	r17, Y+2	; 0x02

000015e6 <.Loc.49>:
    15e6:	ec 80       	ldd	r14, Y+4	; 0x04
    15e8:	fd 80       	ldd	r15, Y+5	; 0x05

000015ea <.Loc.50>:
    15ea:	f7 01       	movw	r30, r14
    15ec:	20 81       	ld	r18, Z

000015ee <.Loc.51>:
    15ee:	81 e0       	ldi	r24, 0x01	; 1
    15f0:	90 e0       	ldi	r25, 0x00	; 0
    15f2:	02 c0       	rjmp	.+4      	; 0x15f8 <.L2^B3>

000015f4 <.L1^B3>:
    15f4:	88 0f       	add	r24, r24
    15f6:	99 1f       	adc	r25, r25

000015f8 <.L2^B3>:
    15f8:	6a 95       	dec	r22
    15fa:	e2 f7       	brpl	.-8      	; 0x15f4 <.L1^B3>

000015fc <.Loc.52>:
    15fc:	92 2f       	mov	r25, r18
    15fe:	98 2b       	or	r25, r24
    1600:	90 83       	st	Z, r25

00001602 <.Loc.53>:
    1602:	e1 e0       	ldi	r30, 0x01	; 1
    1604:	f1 e0       	ldi	r31, 0x01	; 1
    1606:	90 81       	ld	r25, Z

00001608 <.Loc.54>:
    1608:	90 64       	ori	r25, 0x40	; 64
    160a:	90 83       	st	Z, r25

0000160c <.Loc.55>:
    160c:	f8 01       	movw	r30, r16
    160e:	90 81       	ld	r25, Z

00001610 <.Loc.56>:
    1610:	89 2b       	or	r24, r25
    1612:	80 83       	st	Z, r24

00001614 <.Loc.57>:
    1614:	68 94       	set
    1616:	aa 24       	eor	r10, r10
    1618:	a1 f8       	bld	r10, 1
    161a:	bb 24       	eor	r11, r11
    161c:	b3 94       	inc	r11
    161e:	f5 01       	movw	r30, r10
    1620:	80 81       	ld	r24, Z

00001622 <.Loc.58>:
    1622:	80 64       	ori	r24, 0x40	; 64
    1624:	80 83       	st	Z, r24

00001626 <.Loc.59>:
    1626:	0e 94 5d 0a 	call	0x14ba	; 0x14ba <spi_init>

0000162a <.LVL17>:
    162a:	f5 01       	movw	r30, r10
    162c:	80 81       	ld	r24, Z
    162e:	8f 7b       	andi	r24, 0xBF	; 191
    1630:	80 83       	st	Z, r24

00001632 <.Loc.62>:
    1632:	80 81       	ld	r24, Z

00001634 <.Loc.63>:
    1634:	80 64       	ori	r24, 0x40	; 64
    1636:	80 83       	st	Z, r24

00001638 <.L8>:
    1638:	40 2f       	mov	r20, r16
    163a:	51 2f       	mov	r21, r17
    163c:	1a 83       	std	Y+2, r17	; 0x02
    163e:	09 83       	std	Y+1, r16	; 0x01
    1640:	db 82       	std	Y+3, r13	; 0x03
    1642:	7e 2d       	mov	r23, r14
    1644:	fd 82       	std	Y+5, r15	; 0x05
    1646:	ec 82       	std	Y+4, r14	; 0x04
    1648:	27 e3       	ldi	r18, 0x37	; 55
    164a:	6d 2d       	mov	r22, r13
    164c:	8f 2d       	mov	r24, r15
    164e:	0e 94 6a 0a 	call	0x14d4	; 0x14d4 <read_register>

00001652 <.LVL18>:
    1652:	82 39       	cpi	r24, 0x92	; 146
    1654:	89 f7       	brne	.-30     	; 0x1638 <.L8>

00001656 <.Loc.68>:
    1656:	00 e7       	ldi	r16, 0x70	; 112

00001658 <.Loc.69>:
    1658:	26 e2       	ldi	r18, 0x26	; 38
    165a:	49 81       	ldd	r20, Y+1	; 0x01
    165c:	5a 81       	ldd	r21, Y+2	; 0x02
    165e:	6b 81       	ldd	r22, Y+3	; 0x03
    1660:	7c 81       	ldd	r23, Y+4	; 0x04
    1662:	8d 81       	ldd	r24, Y+5	; 0x05
    1664:	0e 94 a3 0a 	call	0x1546	; 0x1546 <write_register>

00001668 <.LVL20>:
    1668:	00 e8       	ldi	r16, 0x80	; 128
    166a:	2a e2       	ldi	r18, 0x2A	; 42
    166c:	49 81       	ldd	r20, Y+1	; 0x01
    166e:	5a 81       	ldd	r21, Y+2	; 0x02
    1670:	6b 81       	ldd	r22, Y+3	; 0x03
    1672:	7c 81       	ldd	r23, Y+4	; 0x04
    1674:	8d 81       	ldd	r24, Y+5	; 0x05
    1676:	0e 94 a3 0a 	call	0x1546	; 0x1546 <write_register>

0000167a <.LVL21>:
    167a:	09 ea       	ldi	r16, 0xA9	; 169
    167c:	2b e2       	ldi	r18, 0x2B	; 43
    167e:	49 81       	ldd	r20, Y+1	; 0x01
    1680:	5a 81       	ldd	r21, Y+2	; 0x02
    1682:	6b 81       	ldd	r22, Y+3	; 0x03
    1684:	7c 81       	ldd	r23, Y+4	; 0x04
    1686:	8d 81       	ldd	r24, Y+5	; 0x05
    1688:	0e 94 a3 0a 	call	0x1546	; 0x1546 <write_register>

0000168c <.LVL22>:
    168c:	08 ee       	ldi	r16, 0xE8	; 232
    168e:	2d e2       	ldi	r18, 0x2D	; 45
    1690:	49 81       	ldd	r20, Y+1	; 0x01
    1692:	5a 81       	ldd	r21, Y+2	; 0x02
    1694:	6b 81       	ldd	r22, Y+3	; 0x03
    1696:	7c 81       	ldd	r23, Y+4	; 0x04
    1698:	8d 81       	ldd	r24, Y+5	; 0x05
    169a:	0e 94 a3 0a 	call	0x1546	; 0x1546 <write_register>

0000169e <.LVL23>:
    169e:	03 e0       	ldi	r16, 0x03	; 3
    16a0:	2c e2       	ldi	r18, 0x2C	; 44
    16a2:	49 81       	ldd	r20, Y+1	; 0x01
    16a4:	5a 81       	ldd	r21, Y+2	; 0x02
    16a6:	6b 81       	ldd	r22, Y+3	; 0x03
    16a8:	7c 81       	ldd	r23, Y+4	; 0x04
    16aa:	8d 81       	ldd	r24, Y+5	; 0x05
    16ac:	0e 94 a3 0a 	call	0x1546	; 0x1546 <write_register>

000016b0 <.LVL24>:
    16b0:	00 e4       	ldi	r16, 0x40	; 64
    16b2:	25 e1       	ldi	r18, 0x15	; 21
    16b4:	49 81       	ldd	r20, Y+1	; 0x01
    16b6:	5a 81       	ldd	r21, Y+2	; 0x02
    16b8:	6b 81       	ldd	r22, Y+3	; 0x03
    16ba:	7c 81       	ldd	r23, Y+4	; 0x04
    16bc:	8d 81       	ldd	r24, Y+5	; 0x05
    16be:	0e 94 a3 0a 	call	0x1546	; 0x1546 <write_register>

000016c2 <.LVL25>:
    16c2:	0d e3       	ldi	r16, 0x3D	; 61
    16c4:	21 e1       	ldi	r18, 0x11	; 17
    16c6:	49 81       	ldd	r20, Y+1	; 0x01
    16c8:	5a 81       	ldd	r21, Y+2	; 0x02
    16ca:	6b 81       	ldd	r22, Y+3	; 0x03
    16cc:	7c 81       	ldd	r23, Y+4	; 0x04
    16ce:	8d 81       	ldd	r24, Y+5	; 0x05
    16d0:	0e 94 a3 0a 	call	0x1546	; 0x1546 <write_register>

000016d4 <.LVL26>:
    16d4:	24 e1       	ldi	r18, 0x14	; 20
    16d6:	49 81       	ldd	r20, Y+1	; 0x01
    16d8:	5a 81       	ldd	r21, Y+2	; 0x02
    16da:	6b 81       	ldd	r22, Y+3	; 0x03
    16dc:	7c 81       	ldd	r23, Y+4	; 0x04
    16de:	8d 81       	ldd	r24, Y+5	; 0x05
    16e0:	0e 94 6a 0a 	call	0x14d4	; 0x14d4 <read_register>

000016e4 <.LVL27>:
    16e4:	98 2f       	mov	r25, r24
    16e6:	93 70       	andi	r25, 0x03	; 3
    16e8:	99 23       	and	r25, r25
    16ea:	79 f0       	breq	.+30     	; 0x170a <.L11>

000016ec <.L7>:
    16ec:	0f 90       	pop	r0
    16ee:	0f 90       	pop	r0
    16f0:	0f 90       	pop	r0
    16f2:	0f 90       	pop	r0
    16f4:	0f 90       	pop	r0
    16f6:	df 91       	pop	r29
    16f8:	cf 91       	pop	r28
    16fa:	1f 91       	pop	r17
    16fc:	0f 91       	pop	r16
    16fe:	ff 90       	pop	r15
    1700:	ef 90       	pop	r14

00001702 <.Loc.81>:
    1702:	df 90       	pop	r13

00001704 <.Loc.82>:
    1704:	bf 90       	pop	r11
    1706:	af 90       	pop	r10
    1708:	08 95       	ret

0000170a <.L11>:
    170a:	08 2f       	mov	r16, r24
    170c:	03 60       	ori	r16, 0x03	; 3
    170e:	24 e1       	ldi	r18, 0x14	; 20
    1710:	49 81       	ldd	r20, Y+1	; 0x01
    1712:	5a 81       	ldd	r21, Y+2	; 0x02
    1714:	6b 81       	ldd	r22, Y+3	; 0x03
    1716:	7c 81       	ldd	r23, Y+4	; 0x04
    1718:	8d 81       	ldd	r24, Y+5	; 0x05

0000171a <.Loc.84>:
    171a:	0e 94 a3 0a 	call	0x1546	; 0x1546 <write_register>

0000171e <.LVL33>:
    171e:	e6 cf       	rjmp	.-52     	; 0x16ec <.L7>

00001720 <rfid_check_tag_present>:
    1720:	0f 93       	push	r16
    1722:	1f 93       	push	r17
    1724:	cf 93       	push	r28
    1726:	df 93       	push	r29
    1728:	00 d0       	rcall	.+0      	; 0x172a <L0^A>

0000172a <L0^A>:
    172a:	0f 92       	push	r0
    172c:	0f 92       	push	r0
    172e:	cd b7       	in	r28, 0x3d	; 61
    1730:	de b7       	in	r29, 0x3e	; 62
    1732:	49 83       	std	Y+1, r20	; 0x01
    1734:	5a 83       	std	Y+2, r21	; 0x02
    1736:	6b 83       	std	Y+3, r22	; 0x03
    1738:	7c 83       	std	Y+4, r23	; 0x04
    173a:	8d 83       	std	Y+5, r24	; 0x05

0000173c <.Loc.87>:
    173c:	07 e0       	ldi	r16, 0x07	; 7
    173e:	2d e0       	ldi	r18, 0x0D	; 13
    1740:	0e 94 a3 0a 	call	0x1546	; 0x1546 <write_register>

00001744 <.LVL34>:
    1744:	00 e0       	ldi	r16, 0x00	; 0
    1746:	21 e0       	ldi	r18, 0x01	; 1
    1748:	49 81       	ldd	r20, Y+1	; 0x01
    174a:	5a 81       	ldd	r21, Y+2	; 0x02
    174c:	6b 81       	ldd	r22, Y+3	; 0x03
    174e:	7c 81       	ldd	r23, Y+4	; 0x04
    1750:	8d 81       	ldd	r24, Y+5	; 0x05
    1752:	0e 94 a3 0a 	call	0x1546	; 0x1546 <write_register>

00001756 <.LVL35>:
    1756:	06 e2       	ldi	r16, 0x26	; 38
    1758:	29 e0       	ldi	r18, 0x09	; 9
    175a:	49 81       	ldd	r20, Y+1	; 0x01
    175c:	5a 81       	ldd	r21, Y+2	; 0x02
    175e:	6b 81       	ldd	r22, Y+3	; 0x03
    1760:	7c 81       	ldd	r23, Y+4	; 0x04
    1762:	8d 81       	ldd	r24, Y+5	; 0x05
    1764:	0e 94 a3 0a 	call	0x1546	; 0x1546 <write_register>

00001768 <.LVL36>:
    1768:	0c e0       	ldi	r16, 0x0C	; 12
    176a:	21 e0       	ldi	r18, 0x01	; 1
    176c:	49 81       	ldd	r20, Y+1	; 0x01
    176e:	5a 81       	ldd	r21, Y+2	; 0x02
    1770:	6b 81       	ldd	r22, Y+3	; 0x03
    1772:	7c 81       	ldd	r23, Y+4	; 0x04
    1774:	8d 81       	ldd	r24, Y+5	; 0x05
    1776:	0e 94 a3 0a 	call	0x1546	; 0x1546 <write_register>

0000177a <.LVL37>:
    177a:	07 e8       	ldi	r16, 0x87	; 135
    177c:	2d e0       	ldi	r18, 0x0D	; 13
    177e:	49 81       	ldd	r20, Y+1	; 0x01
    1780:	5a 81       	ldd	r21, Y+2	; 0x02
    1782:	6b 81       	ldd	r22, Y+3	; 0x03
    1784:	7c 81       	ldd	r23, Y+4	; 0x04
    1786:	8d 81       	ldd	r24, Y+5	; 0x05
    1788:	0e 94 a3 0a 	call	0x1546	; 0x1546 <write_register>

0000178c <.LVL38>:
    178c:	18 ec       	ldi	r17, 0xC8	; 200

0000178e <.L14>:
    178e:	24 e0       	ldi	r18, 0x04	; 4
    1790:	49 81       	ldd	r20, Y+1	; 0x01
    1792:	5a 81       	ldd	r21, Y+2	; 0x02
    1794:	6b 81       	ldd	r22, Y+3	; 0x03
    1796:	7c 81       	ldd	r23, Y+4	; 0x04
    1798:	8d 81       	ldd	r24, Y+5	; 0x05
    179a:	0e 94 6a 0a 	call	0x14d4	; 0x14d4 <read_register>

0000179e <.LVL40>:
    179e:	80 73       	andi	r24, 0x30	; 48

000017a0 <.Loc.100>:
    17a0:	81 11       	cpse	r24, r1
    17a2:	03 c0       	rjmp	.+6      	; 0x17aa <.L13>

000017a4 <.LBE5>:
    17a4:	11 50       	subi	r17, 0x01	; 1

000017a6 <.Loc.103>:
    17a6:	11 11       	cpse	r17, r1
    17a8:	f2 cf       	rjmp	.-28     	; 0x178e <.L14>

000017aa <.L13>:
    17aa:	26 e0       	ldi	r18, 0x06	; 6
    17ac:	49 81       	ldd	r20, Y+1	; 0x01
    17ae:	5a 81       	ldd	r21, Y+2	; 0x02
    17b0:	6b 81       	ldd	r22, Y+3	; 0x03
    17b2:	7c 81       	ldd	r23, Y+4	; 0x04
    17b4:	8d 81       	ldd	r24, Y+5	; 0x05
    17b6:	0e 94 6a 0a 	call	0x14d4	; 0x14d4 <read_register>

000017ba <.LVL45>:
    17ba:	8b 71       	andi	r24, 0x1B	; 27

000017bc <.Loc.108>:
    17bc:	88 23       	and	r24, r24
    17be:	59 f0       	breq	.+22     	; 0x17d6 <.L19>

000017c0 <.Loc.109>:
    17c0:	80 e0       	ldi	r24, 0x00	; 0

000017c2 <.L12>:
    17c2:	0f 90       	pop	r0
    17c4:	0f 90       	pop	r0
    17c6:	0f 90       	pop	r0
    17c8:	0f 90       	pop	r0
    17ca:	0f 90       	pop	r0
    17cc:	df 91       	pop	r29
    17ce:	cf 91       	pop	r28
    17d0:	1f 91       	pop	r17
    17d2:	0f 91       	pop	r16
    17d4:	08 95       	ret

000017d6 <.L19>:
    17d6:	2a e0       	ldi	r18, 0x0A	; 10
    17d8:	49 81       	ldd	r20, Y+1	; 0x01
    17da:	5a 81       	ldd	r21, Y+2	; 0x02
    17dc:	6b 81       	ldd	r22, Y+3	; 0x03
    17de:	7c 81       	ldd	r23, Y+4	; 0x04
    17e0:	8d 81       	ldd	r24, Y+5	; 0x05
    17e2:	0e 94 6a 0a 	call	0x14d4	; 0x14d4 <read_register>

000017e6 <.LVL47>:
    17e6:	18 2f       	mov	r17, r24

000017e8 <.Loc.113>:
    17e8:	00 e8       	ldi	r16, 0x80	; 128
    17ea:	2a e0       	ldi	r18, 0x0A	; 10
    17ec:	49 81       	ldd	r20, Y+1	; 0x01
    17ee:	5a 81       	ldd	r21, Y+2	; 0x02
    17f0:	6b 81       	ldd	r22, Y+3	; 0x03
    17f2:	7c 81       	ldd	r23, Y+4	; 0x04
    17f4:	8d 81       	ldd	r24, Y+5	; 0x05
    17f6:	0e 94 a3 0a 	call	0x1546	; 0x1546 <write_register>

000017fa <.LVL49>:
    17fa:	81 e0       	ldi	r24, 0x01	; 1
    17fc:	11 11       	cpse	r17, r1
    17fe:	e1 cf       	rjmp	.-62     	; 0x17c2 <.L12>
    1800:	80 e0       	ldi	r24, 0x00	; 0
    1802:	df cf       	rjmp	.-66     	; 0x17c2 <.L12>

00001804 <rfid_tag_detected>:
    1804:	cf 93       	push	r28
    1806:	df 93       	push	r29
    1808:	00 d0       	rcall	.+0      	; 0x180a <L0^A>

0000180a <L0^A>:
    180a:	0f 92       	push	r0
    180c:	0f 92       	push	r0
    180e:	cd b7       	in	r28, 0x3d	; 61
    1810:	de b7       	in	r29, 0x3e	; 62
    1812:	49 83       	std	Y+1, r20	; 0x01
    1814:	5a 83       	std	Y+2, r21	; 0x02
    1816:	6b 83       	std	Y+3, r22	; 0x03
    1818:	7c 83       	std	Y+4, r23	; 0x04
    181a:	8d 83       	std	Y+5, r24	; 0x05

0000181c <.Loc.117>:
    181c:	0e 94 90 0b 	call	0x1720	; 0x1720 <rfid_check_tag_present>

00001820 <.LVL51>:
    1820:	81 11       	cpse	r24, r1
    1822:	1d c0       	rjmp	.+58     	; 0x185e <.L21>

00001824 <.LBI7>:
    1824:	8f e9       	ldi	r24, 0x9F	; 159
    1826:	9f e0       	ldi	r25, 0x0F	; 15

00001828 <.L1^B4>:
    1828:	01 97       	sbiw	r24, 0x01	; 1
    182a:	f1 f7       	brne	.-4      	; 0x1828 <.L1^B4>
    182c:	00 c0       	rjmp	.+0      	; 0x182e <L0^A>

0000182e <L0^A>:
	...

00001830 <.Loc.131>:
    1830:	49 81       	ldd	r20, Y+1	; 0x01
    1832:	5a 81       	ldd	r21, Y+2	; 0x02
    1834:	6b 81       	ldd	r22, Y+3	; 0x03
    1836:	7c 81       	ldd	r23, Y+4	; 0x04
    1838:	8d 81       	ldd	r24, Y+5	; 0x05
    183a:	0e 94 90 0b 	call	0x1720	; 0x1720 <rfid_check_tag_present>

0000183e <.LVL54>:
    183e:	81 11       	cpse	r24, r1
    1840:	0e c0       	rjmp	.+28     	; 0x185e <.L21>

00001842 <.Loc.137>:
    1842:	ef e9       	ldi	r30, 0x9F	; 159
    1844:	ff e0       	ldi	r31, 0x0F	; 15

00001846 <.L1^B5>:
    1846:	31 97       	sbiw	r30, 0x01	; 1
    1848:	f1 f7       	brne	.-4      	; 0x1846 <.L1^B5>
    184a:	00 c0       	rjmp	.+0      	; 0x184c <L0^A>

0000184c <L0^A>:
	...

0000184e <.L20>:
    184e:	0f 90       	pop	r0
    1850:	0f 90       	pop	r0
    1852:	0f 90       	pop	r0
    1854:	0f 90       	pop	r0
    1856:	0f 90       	pop	r0
    1858:	df 91       	pop	r29
    185a:	cf 91       	pop	r28
    185c:	08 95       	ret

0000185e <.L21>:
    185e:	81 e0       	ldi	r24, 0x01	; 1
    1860:	f6 cf       	rjmp	.-20     	; 0x184e <.L20>

00001862 <__vector_23>:
volatile int freq_target_right = 0xFF;
volatile char direction_change_left = 0;
volatile char direction_change_right = 0;
/// --- Step counting --- ///
// Left stepper
ISR(TIMER0_OVF_vect){
    1862:	1f 92       	push	r1
    1864:	1f b6       	in	r1, 0x3f	; 63
    1866:	1f 92       	push	r1
    1868:	11 24       	eor	r1, r1
    186a:	8f 93       	push	r24
    186c:	8b b7       	in	r24, 0x3b	; 59
    186e:	8f 93       	push	r24
    1870:	9f 93       	push	r25
    1872:	ef 93       	push	r30
    1874:	ff 93       	push	r31

00001876 <.Loc.1>:
    // Count down till 0
    if(step_count_left > 0){
    1876:	80 91 a3 02 	lds	r24, 0x02A3	; 0x8002a3 <step_count_left>
    187a:	90 91 a4 02 	lds	r25, 0x02A4	; 0x8002a4 <step_count_left+0x1>

0000187e <.Loc.3>:
    187e:	18 16       	cp	r1, r24
    1880:	19 06       	cpc	r1, r25
    1882:	9c f4       	brge	.+38     	; 0x18aa <.L2>

00001884 <.Loc.4>:
        step_count_left--;
    1884:	80 91 a3 02 	lds	r24, 0x02A3	; 0x8002a3 <step_count_left>
    1888:	90 91 a4 02 	lds	r25, 0x02A4	; 0x8002a4 <step_count_left+0x1>
    188c:	01 97       	sbiw	r24, 0x01	; 1
    188e:	90 93 a4 02 	sts	0x02A4, r25	; 0x8002a4 <step_count_left+0x1>
    1892:	80 93 a3 02 	sts	0x02A3, r24	; 0x8002a3 <step_count_left>

00001896 <.L1>:
        step_count_right = -1;
        // Disable interupts
        TIMSK0 &= ~(1<<TOIE0);
        TIMSK2 &= ~(1<<TOIE2);
    }
}
    1896:	ff 91       	pop	r31
    1898:	ef 91       	pop	r30
    189a:	9f 91       	pop	r25
    189c:	8f 91       	pop	r24
    189e:	8b bf       	out	0x3b, r24	; 59
    18a0:	8f 91       	pop	r24
    18a2:	1f 90       	pop	r1
    18a4:	1f be       	out	0x3f, r1	; 63
    18a6:	1f 90       	pop	r1
    18a8:	18 95       	reti

000018aa <.L2>:
    else if(step_count_left == 0){
    18aa:	80 91 a3 02 	lds	r24, 0x02A3	; 0x8002a3 <step_count_left>
    18ae:	90 91 a4 02 	lds	r25, 0x02A4	; 0x8002a4 <step_count_left+0x1>

000018b2 <.Loc.9>:
    18b2:	89 2b       	or	r24, r25
    18b4:	81 f7       	brne	.-32     	; 0x1896 <.L1>

000018b6 <.Loc.10>:
        step_count_left = -1;
    18b6:	8f ef       	ldi	r24, 0xFF	; 255
    18b8:	9f ef       	ldi	r25, 0xFF	; 255
    18ba:	90 93 a4 02 	sts	0x02A4, r25	; 0x8002a4 <step_count_left+0x1>
    18be:	80 93 a3 02 	sts	0x02A3, r24	; 0x8002a3 <step_count_left>

000018c2 <.Loc.12>:
        step_count_right = -1;
    18c2:	90 93 a2 02 	sts	0x02A2, r25	; 0x8002a2 <step_count_right+0x1>
    18c6:	80 93 a1 02 	sts	0x02A1, r24	; 0x8002a1 <step_count_right>

000018ca <.Loc.14>:
        TIMSK0 &= ~(1<<TOIE0);
    18ca:	ee e6       	ldi	r30, 0x6E	; 110
    18cc:	f0 e0       	ldi	r31, 0x00	; 0
    18ce:	80 81       	ld	r24, Z
    18d0:	8e 7f       	andi	r24, 0xFE	; 254
    18d2:	80 83       	st	Z, r24

000018d4 <.Loc.16>:
        TIMSK2 &= ~(1<<TOIE2);
    18d4:	e0 e7       	ldi	r30, 0x70	; 112
    18d6:	f0 e0       	ldi	r31, 0x00	; 0
    18d8:	80 81       	ld	r24, Z
    18da:	8e 7f       	andi	r24, 0xFE	; 254
    18dc:	80 83       	st	Z, r24

000018de <.Loc.18>:
}
    18de:	db cf       	rjmp	.-74     	; 0x1896 <.L1>

000018e0 <__vector_15>:
// Right stepper
ISR(TIMER2_OVF_vect){
    18e0:	1f 92       	push	r1
    18e2:	1f b6       	in	r1, 0x3f	; 63
    18e4:	1f 92       	push	r1
    18e6:	11 24       	eor	r1, r1
    18e8:	8f 93       	push	r24
    18ea:	8b b7       	in	r24, 0x3b	; 59
    18ec:	8f 93       	push	r24
    18ee:	9f 93       	push	r25
    18f0:	ef 93       	push	r30
    18f2:	ff 93       	push	r31

000018f4 <.Loc.20>:
    // Count down till 0
    if(step_count_right > 0){
    18f4:	80 91 a1 02 	lds	r24, 0x02A1	; 0x8002a1 <step_count_right>
    18f8:	90 91 a2 02 	lds	r25, 0x02A2	; 0x8002a2 <step_count_right+0x1>

000018fc <.Loc.22>:
    18fc:	18 16       	cp	r1, r24
    18fe:	19 06       	cpc	r1, r25
    1900:	9c f4       	brge	.+38     	; 0x1928 <.L5>

00001902 <.Loc.23>:
        step_count_right--;
    1902:	80 91 a1 02 	lds	r24, 0x02A1	; 0x8002a1 <step_count_right>
    1906:	90 91 a2 02 	lds	r25, 0x02A2	; 0x8002a2 <step_count_right+0x1>
    190a:	01 97       	sbiw	r24, 0x01	; 1
    190c:	90 93 a2 02 	sts	0x02A2, r25	; 0x8002a2 <step_count_right+0x1>
    1910:	80 93 a1 02 	sts	0x02A1, r24	; 0x8002a1 <step_count_right>

00001914 <.L4>:
        step_count_right = -1;
        // Disable interupts
        TIMSK0 &= ~(1<<TOIE0);
        TIMSK2 &= ~(1<<TOIE2);
    }
}
    1914:	ff 91       	pop	r31
    1916:	ef 91       	pop	r30
    1918:	9f 91       	pop	r25
    191a:	8f 91       	pop	r24
    191c:	8b bf       	out	0x3b, r24	; 59
    191e:	8f 91       	pop	r24
    1920:	1f 90       	pop	r1
    1922:	1f be       	out	0x3f, r1	; 63
    1924:	1f 90       	pop	r1
    1926:	18 95       	reti

00001928 <.L5>:
    else if(step_count_right == 0){
    1928:	80 91 a1 02 	lds	r24, 0x02A1	; 0x8002a1 <step_count_right>
    192c:	90 91 a2 02 	lds	r25, 0x02A2	; 0x8002a2 <step_count_right+0x1>

00001930 <.Loc.28>:
    1930:	89 2b       	or	r24, r25
    1932:	81 f7       	brne	.-32     	; 0x1914 <.L4>

00001934 <.Loc.29>:
        step_count_left = -1;
    1934:	8f ef       	ldi	r24, 0xFF	; 255
    1936:	9f ef       	ldi	r25, 0xFF	; 255
    1938:	90 93 a4 02 	sts	0x02A4, r25	; 0x8002a4 <step_count_left+0x1>
    193c:	80 93 a3 02 	sts	0x02A3, r24	; 0x8002a3 <step_count_left>

00001940 <.Loc.31>:
        step_count_right = -1;
    1940:	90 93 a2 02 	sts	0x02A2, r25	; 0x8002a2 <step_count_right+0x1>
    1944:	80 93 a1 02 	sts	0x02A1, r24	; 0x8002a1 <step_count_right>

00001948 <.Loc.33>:
        TIMSK0 &= ~(1<<TOIE0);
    1948:	ee e6       	ldi	r30, 0x6E	; 110
    194a:	f0 e0       	ldi	r31, 0x00	; 0
    194c:	80 81       	ld	r24, Z
    194e:	8e 7f       	andi	r24, 0xFE	; 254
    1950:	80 83       	st	Z, r24

00001952 <.Loc.35>:
        TIMSK2 &= ~(1<<TOIE2);
    1952:	e0 e7       	ldi	r30, 0x70	; 112
    1954:	f0 e0       	ldi	r31, 0x00	; 0
    1956:	80 81       	ld	r24, Z
    1958:	8e 7f       	andi	r24, 0xFE	; 254
    195a:	80 83       	st	Z, r24

0000195c <.Loc.37>:
}
    195c:	db cf       	rjmp	.-74     	; 0x1914 <.L4>

0000195e <__vector_50>:
/// --- Ramping --- ///
//uses timer from HC-SR04
ISR(TIMER5_OVF_vect){
    195e:	1f 92       	push	r1
    1960:	1f b6       	in	r1, 0x3f	; 63
    1962:	1f 92       	push	r1
    1964:	11 24       	eor	r1, r1
    1966:	2f 93       	push	r18
    1968:	2b b7       	in	r18, 0x3b	; 59
    196a:	2f 93       	push	r18
    196c:	3f 93       	push	r19
    196e:	8f 93       	push	r24
    1970:	9f 93       	push	r25
    1972:	ef 93       	push	r30
    1974:	ff 93       	push	r31

00001976 <.Loc.39>:
    static int count1 = 0;
    static int count2 = 0;
    // --- left stepper --- //
    // Direction change ramping
    if(direction_change_left){
    1976:	80 91 a0 02 	lds	r24, 0x02A0	; 0x8002a0 <direction_change_left>

0000197a <.Loc.43>:
    197a:	88 23       	and	r24, r24
    197c:	09 f4       	brne	.+2      	; 0x1980 <.Loc.44>

0000197e <L0^A>:
    197e:	56 c0       	rjmp	.+172    	; 0x1a2c <.L8>

00001980 <.Loc.44>:
        // Slow down
        if (OCR0A < 0xFF) {
    1980:	87 b5       	in	r24, 0x27	; 39

00001982 <.Loc.46>:
    1982:	8f 3f       	cpi	r24, 0xFF	; 255
    1984:	39 f1       	breq	.+78     	; 0x19d4 <.L9>

00001986 <.Loc.47>:
            // Prevent overshooting
            if (OCR0A + RAMPING_SPEED > 0xFF) {
    1986:	87 b5       	in	r24, 0x27	; 39

00001988 <.Loc.49>:
    1988:	8e 3e       	cpi	r24, 0xEE	; 238
    198a:	00 f1       	brcs	.+64     	; 0x19cc <.L10>

0000198c <.Loc.50>:
                OCR0A = 0xFF;  // Directly set it to target to avoid overshooting
    198c:	8f ef       	ldi	r24, 0xFF	; 255
    198e:	87 bd       	out	0x27, r24	; 39

00001990 <.L11>:
            }
        }
    }
    // --- Right stepper --- ///
    // Direction change ramping
    if(direction_change_right){
    1990:	80 91 9f 02 	lds	r24, 0x029F	; 0x80029f <direction_change_right>

00001994 <.Loc.54>:
    1994:	88 23       	and	r24, r24
    1996:	09 f4       	brne	.+2      	; 0x199a <.Loc.55>

00001998 <L0^A>:
    1998:	b4 c0       	rjmp	.+360    	; 0x1b02 <.L18>

0000199a <.Loc.55>:
        // Slow down
        if (OCR2A < 0xFF) {
    199a:	80 91 b3 00 	lds	r24, 0x00B3	; 0x8000b3 <__TEXT_REGION_LENGTH__+0x7000b3>

0000199e <.Loc.57>:
    199e:	8f 3f       	cpi	r24, 0xFF	; 255
    19a0:	09 f4       	brne	.+2      	; 0x19a4 <.Loc.58>

000019a2 <L0^A>:
    19a2:	8a c0       	rjmp	.+276    	; 0x1ab8 <.L19>

000019a4 <.Loc.58>:
            // Prevent overshooting
            if (OCR2A + RAMPING_SPEED > 0xFF) {
    19a4:	80 91 b3 00 	lds	r24, 0x00B3	; 0x8000b3 <__TEXT_REGION_LENGTH__+0x7000b3>

000019a8 <.Loc.60>:
    19a8:	8e 3e       	cpi	r24, 0xEE	; 238
    19aa:	08 f4       	brcc	.+2      	; 0x19ae <.Loc.61>

000019ac <L0^A>:
    19ac:	7f c0       	rjmp	.+254    	; 0x1aac <.L20>

000019ae <.Loc.61>:
                OCR2A = 0xFF;  // Directly set it to target to avoid overshooting
    19ae:	8f ef       	ldi	r24, 0xFF	; 255
    19b0:	80 93 b3 00 	sts	0x00B3, r24	; 0x8000b3 <__TEXT_REGION_LENGTH__+0x7000b3>

000019b4 <.L7>:
            else {
                OCR2A -= RAMPING_SPEED;  // Decrement by step
            }
        }
    }
}
    19b4:	ff 91       	pop	r31
    19b6:	ef 91       	pop	r30
    19b8:	9f 91       	pop	r25
    19ba:	8f 91       	pop	r24
    19bc:	3f 91       	pop	r19
    19be:	2f 91       	pop	r18
    19c0:	2b bf       	out	0x3b, r18	; 59
    19c2:	2f 91       	pop	r18
    19c4:	1f 90       	pop	r1
    19c6:	1f be       	out	0x3f, r1	; 63
    19c8:	1f 90       	pop	r1
    19ca:	18 95       	reti

000019cc <.L10>:
                OCR0A += RAMPING_SPEED;  // Increment by step
    19cc:	87 b5       	in	r24, 0x27	; 39

000019ce <.Loc.65>:
    19ce:	8e 5e       	subi	r24, 0xEE	; 238
    19d0:	87 bd       	out	0x27, r24	; 39
    19d2:	de cf       	rjmp	.-68     	; 0x1990 <.L11>

000019d4 <.L9>:
            PORT_ST1_EN |= (1<<PIN_ST1_EN);
    19d4:	e2 e0       	ldi	r30, 0x02	; 2
    19d6:	f1 e0       	ldi	r31, 0x01	; 1
    19d8:	80 81       	ld	r24, Z

000019da <.Loc.67>:
    19da:	88 60       	ori	r24, 0x08	; 8
    19dc:	80 83       	st	Z, r24

000019de <.Loc.68>:
            if(direction_change_left == 3){
    19de:	80 91 a0 02 	lds	r24, 0x02A0	; 0x8002a0 <direction_change_left>

000019e2 <.Loc.70>:
    19e2:	83 30       	cpi	r24, 0x03	; 3
    19e4:	f9 f0       	breq	.+62     	; 0x1a24 <.L28>

000019e6 <.Loc.71>:
            else if(direction_change_left == 1){
    19e6:	80 91 a0 02 	lds	r24, 0x02A0	; 0x8002a0 <direction_change_left>

000019ea <.Loc.73>:
    19ea:	81 30       	cpi	r24, 0x01	; 1
    19ec:	e9 f0       	breq	.+58     	; 0x1a28 <.L29>

000019ee <.L13>:
            count1++;
    19ee:	80 91 ab 02 	lds	r24, 0x02AB	; 0x8002ab <count1.3>
    19f2:	90 91 ac 02 	lds	r25, 0x02AC	; 0x8002ac <count1.3+0x1>
    19f6:	01 96       	adiw	r24, 0x01	; 1
    19f8:	90 93 ac 02 	sts	0x02AC, r25	; 0x8002ac <count1.3+0x1>
    19fc:	80 93 ab 02 	sts	0x02AB, r24	; 0x8002ab <count1.3>

00001a00 <.Loc.76>:
            if(count1 > 3){
    1a00:	04 97       	sbiw	r24, 0x04	; 4
    1a02:	34 f2       	brlt	.-116    	; 0x1990 <.L11>

00001a04 <.Loc.78>:
                if(direction_change_left != 2){
    1a04:	80 91 a0 02 	lds	r24, 0x02A0	; 0x8002a0 <direction_change_left>

00001a08 <.Loc.80>:
    1a08:	82 30       	cpi	r24, 0x02	; 2
    1a0a:	39 f0       	breq	.+14     	; 0x1a1a <.L14>

00001a0c <.Loc.81>:
                    PORT_ST1_EN &= ~(1<<PIN_ST1_EN);
    1a0c:	e2 e0       	ldi	r30, 0x02	; 2
    1a0e:	f1 e0       	ldi	r31, 0x01	; 1
    1a10:	80 81       	ld	r24, Z
    1a12:	87 7f       	andi	r24, 0xF7	; 247
    1a14:	80 83       	st	Z, r24

00001a16 <.Loc.83>:
                    direction_change_left = 0;
    1a16:	10 92 a0 02 	sts	0x02A0, r1	; 0x8002a0 <direction_change_left>

00001a1a <.L14>:
                count1 = 0;
    1a1a:	10 92 ac 02 	sts	0x02AC, r1	; 0x8002ac <count1.3+0x1>
    1a1e:	10 92 ab 02 	sts	0x02AB, r1	; 0x8002ab <count1.3>
    1a22:	b6 cf       	rjmp	.-148    	; 0x1990 <.L11>

00001a24 <.L28>:
                PORT_ST1_DIR &= ~(1<<PIN_ST1_DIR);
    1a24:	73 98       	cbi	0x0e, 3	; 14
    1a26:	e3 cf       	rjmp	.-58     	; 0x19ee <.L13>

00001a28 <.L29>:
                PORT_ST1_DIR |= (1<<PIN_ST1_DIR);
    1a28:	73 9a       	sbi	0x0e, 3	; 14
    1a2a:	e1 cf       	rjmp	.-62     	; 0x19ee <.L13>

00001a2c <.L8>:
        PORT_ST1_EN &= ~(1<<PIN_ST1_EN);
    1a2c:	e2 e0       	ldi	r30, 0x02	; 2
    1a2e:	f1 e0       	ldi	r31, 0x01	; 1
    1a30:	80 81       	ld	r24, Z
    1a32:	87 7f       	andi	r24, 0xF7	; 247
    1a34:	80 83       	st	Z, r24

00001a36 <.Loc.93>:
        if (OCR0A < freq_target_left) {
    1a36:	87 b5       	in	r24, 0x27	; 39

00001a38 <.Loc.95>:
    1a38:	20 91 04 02 	lds	r18, 0x0204	; 0x800204 <freq_target_left>
    1a3c:	30 91 05 02 	lds	r19, 0x0205	; 0x800205 <freq_target_left+0x1>

00001a40 <.Loc.96>:
    1a40:	90 e0       	ldi	r25, 0x00	; 0

00001a42 <.Loc.97>:
    1a42:	82 17       	cp	r24, r18
    1a44:	93 07       	cpc	r25, r19
    1a46:	a4 f4       	brge	.+40     	; 0x1a70 <.L15>

00001a48 <.Loc.98>:
            if (OCR0A + RAMPING_SPEED > freq_target_left) {
    1a48:	87 b5       	in	r24, 0x27	; 39

00001a4a <.Loc.100>:
    1a4a:	20 91 04 02 	lds	r18, 0x0204	; 0x800204 <freq_target_left>
    1a4e:	30 91 05 02 	lds	r19, 0x0205	; 0x800205 <freq_target_left+0x1>

00001a52 <.Loc.101>:
    1a52:	90 e0       	ldi	r25, 0x00	; 0

00001a54 <.Loc.102>:
    1a54:	41 96       	adiw	r24, 0x11	; 17

00001a56 <.Loc.103>:
    1a56:	82 17       	cp	r24, r18
    1a58:	93 07       	cpc	r25, r19
    1a5a:	34 f0       	brlt	.+12     	; 0x1a68 <.L16>

00001a5c <.Loc.104>:
                OCR0A = freq_target_left;  // Directly set it to target to avoid overshooting
    1a5c:	80 91 04 02 	lds	r24, 0x0204	; 0x800204 <freq_target_left>
    1a60:	90 91 05 02 	lds	r25, 0x0205	; 0x800205 <freq_target_left+0x1>
    1a64:	87 bd       	out	0x27, r24	; 39
    1a66:	94 cf       	rjmp	.-216    	; 0x1990 <.L11>

00001a68 <.L16>:
                OCR0A += RAMPING_SPEED;  // Increment by step
    1a68:	87 b5       	in	r24, 0x27	; 39

00001a6a <.Loc.107>:
    1a6a:	8e 5e       	subi	r24, 0xEE	; 238
    1a6c:	87 bd       	out	0x27, r24	; 39
    1a6e:	90 cf       	rjmp	.-224    	; 0x1990 <.L11>

00001a70 <.L15>:
        else if (OCR0A > freq_target_left) {
    1a70:	87 b5       	in	r24, 0x27	; 39

00001a72 <.Loc.110>:
    1a72:	20 91 04 02 	lds	r18, 0x0204	; 0x800204 <freq_target_left>
    1a76:	30 91 05 02 	lds	r19, 0x0205	; 0x800205 <freq_target_left+0x1>

00001a7a <.Loc.111>:
    1a7a:	90 e0       	ldi	r25, 0x00	; 0

00001a7c <.Loc.112>:
    1a7c:	28 17       	cp	r18, r24
    1a7e:	39 07       	cpc	r19, r25
    1a80:	0c f0       	brlt	.+2      	; 0x1a84 <.Loc.113>

00001a82 <L0^A>:
    1a82:	86 cf       	rjmp	.-244    	; 0x1990 <.L11>

00001a84 <.Loc.113>:
            if (OCR0A - RAMPING_SPEED < freq_target_left) {
    1a84:	87 b5       	in	r24, 0x27	; 39

00001a86 <.Loc.115>:
    1a86:	20 91 04 02 	lds	r18, 0x0204	; 0x800204 <freq_target_left>
    1a8a:	30 91 05 02 	lds	r19, 0x0205	; 0x800205 <freq_target_left+0x1>
    1a8e:	81 51       	subi	r24, 0x11	; 17
    1a90:	99 0b       	sbc	r25, r25

00001a92 <.Loc.116>:
    1a92:	28 17       	cp	r18, r24
    1a94:	39 07       	cpc	r19, r25
    1a96:	34 f0       	brlt	.+12     	; 0x1aa4 <.L17>

00001a98 <.Loc.117>:
                OCR0A = freq_target_left;  // Directly set it to target to avoid overshooting
    1a98:	80 91 04 02 	lds	r24, 0x0204	; 0x800204 <freq_target_left>
    1a9c:	90 91 05 02 	lds	r25, 0x0205	; 0x800205 <freq_target_left+0x1>
    1aa0:	87 bd       	out	0x27, r24	; 39
    1aa2:	76 cf       	rjmp	.-276    	; 0x1990 <.L11>

00001aa4 <.L17>:
                OCR0A -= RAMPING_SPEED;  // Decrement by step
    1aa4:	87 b5       	in	r24, 0x27	; 39

00001aa6 <.Loc.120>:
    1aa6:	82 51       	subi	r24, 0x12	; 18
    1aa8:	87 bd       	out	0x27, r24	; 39
    1aaa:	72 cf       	rjmp	.-284    	; 0x1990 <.L11>

00001aac <.L20>:
                OCR2A += RAMPING_SPEED;  // Increment by step
    1aac:	e3 eb       	ldi	r30, 0xB3	; 179
    1aae:	f0 e0       	ldi	r31, 0x00	; 0
    1ab0:	80 81       	ld	r24, Z

00001ab2 <.Loc.122>:
    1ab2:	8e 5e       	subi	r24, 0xEE	; 238
    1ab4:	80 83       	st	Z, r24
    1ab6:	7e cf       	rjmp	.-260    	; 0x19b4 <.L7>

00001ab8 <.L19>:
            PORT_ST2_EN |= (1<<PIN_ST2_EN);
    1ab8:	2d 9a       	sbi	0x05, 5	; 5

00001aba <.Loc.125>:
            if(direction_change_right == 1){
    1aba:	80 91 9f 02 	lds	r24, 0x029F	; 0x80029f <direction_change_right>

00001abe <.Loc.127>:
    1abe:	81 30       	cpi	r24, 0x01	; 1
    1ac0:	e1 f0       	breq	.+56     	; 0x1afa <.L30>

00001ac2 <.Loc.128>:
            else if(direction_change_right == 3){
    1ac2:	80 91 9f 02 	lds	r24, 0x029F	; 0x80029f <direction_change_right>

00001ac6 <.Loc.130>:
    1ac6:	83 30       	cpi	r24, 0x03	; 3
    1ac8:	d1 f0       	breq	.+52     	; 0x1afe <.L31>

00001aca <.L23>:
            count2++;
    1aca:	80 91 a9 02 	lds	r24, 0x02A9	; 0x8002a9 <count2.2>
    1ace:	90 91 aa 02 	lds	r25, 0x02AA	; 0x8002aa <count2.2+0x1>
    1ad2:	01 96       	adiw	r24, 0x01	; 1
    1ad4:	90 93 aa 02 	sts	0x02AA, r25	; 0x8002aa <count2.2+0x1>
    1ad8:	80 93 a9 02 	sts	0x02A9, r24	; 0x8002a9 <count2.2>

00001adc <.Loc.133>:
            if(count2 > 3){
    1adc:	04 97       	sbiw	r24, 0x04	; 4
    1ade:	0c f4       	brge	.+2      	; 0x1ae2 <.Loc.135>

00001ae0 <L0^A>:
    1ae0:	69 cf       	rjmp	.-302    	; 0x19b4 <.L7>

00001ae2 <.Loc.135>:
                if(direction_change_right != 2){
    1ae2:	80 91 9f 02 	lds	r24, 0x029F	; 0x80029f <direction_change_right>

00001ae6 <.Loc.137>:
    1ae6:	82 30       	cpi	r24, 0x02	; 2
    1ae8:	19 f0       	breq	.+6      	; 0x1af0 <.L24>

00001aea <.Loc.138>:
                    PORT_ST2_EN &= ~(1<<PIN_ST2_EN);
    1aea:	2d 98       	cbi	0x05, 5	; 5

00001aec <.Loc.140>:
                    direction_change_right = 0;
    1aec:	10 92 9f 02 	sts	0x029F, r1	; 0x80029f <direction_change_right>

00001af0 <.L24>:
                count2 = 0;
    1af0:	10 92 aa 02 	sts	0x02AA, r1	; 0x8002aa <count2.2+0x1>
    1af4:	10 92 a9 02 	sts	0x02A9, r1	; 0x8002a9 <count2.2>
    1af8:	5d cf       	rjmp	.-326    	; 0x19b4 <.L7>

00001afa <.L30>:
                PORT_ST2_DIR &= ~(1<<PIN_ST2_DIR);
    1afa:	2c 98       	cbi	0x05, 4	; 5
    1afc:	e6 cf       	rjmp	.-52     	; 0x1aca <.L23>

00001afe <.L31>:
                PORT_ST2_DIR |= (1<<PIN_ST2_DIR);
    1afe:	2c 9a       	sbi	0x05, 4	; 5
    1b00:	e4 cf       	rjmp	.-56     	; 0x1aca <.L23>

00001b02 <.L18>:
        PORT_ST2_EN &= ~(1<<PIN_ST2_EN);
    1b02:	2d 98       	cbi	0x05, 5	; 5

00001b04 <.Loc.150>:
        if (OCR2A < freq_target_right) {
    1b04:	80 91 b3 00 	lds	r24, 0x00B3	; 0x8000b3 <__TEXT_REGION_LENGTH__+0x7000b3>

00001b08 <.Loc.152>:
    1b08:	20 91 02 02 	lds	r18, 0x0202	; 0x800202 <freq_target_right>
    1b0c:	30 91 03 02 	lds	r19, 0x0203	; 0x800203 <freq_target_right+0x1>

00001b10 <.Loc.153>:
    1b10:	90 e0       	ldi	r25, 0x00	; 0

00001b12 <.Loc.154>:
    1b12:	82 17       	cp	r24, r18
    1b14:	93 07       	cpc	r25, r19
    1b16:	c4 f4       	brge	.+48     	; 0x1b48 <.L25>

00001b18 <.Loc.155>:
            if (OCR2A + RAMPING_SPEED > freq_target_right) {
    1b18:	80 91 b3 00 	lds	r24, 0x00B3	; 0x8000b3 <__TEXT_REGION_LENGTH__+0x7000b3>

00001b1c <.Loc.157>:
    1b1c:	20 91 02 02 	lds	r18, 0x0202	; 0x800202 <freq_target_right>
    1b20:	30 91 03 02 	lds	r19, 0x0203	; 0x800203 <freq_target_right+0x1>

00001b24 <.Loc.158>:
    1b24:	90 e0       	ldi	r25, 0x00	; 0

00001b26 <.Loc.159>:
    1b26:	41 96       	adiw	r24, 0x11	; 17

00001b28 <.Loc.160>:
    1b28:	82 17       	cp	r24, r18
    1b2a:	93 07       	cpc	r25, r19
    1b2c:	3c f0       	brlt	.+14     	; 0x1b3c <.L26>

00001b2e <.Loc.161>:
                OCR2A = freq_target_right;  // Directly set it to target to avoid overshooting
    1b2e:	80 91 02 02 	lds	r24, 0x0202	; 0x800202 <freq_target_right>
    1b32:	90 91 03 02 	lds	r25, 0x0203	; 0x800203 <freq_target_right+0x1>
    1b36:	80 93 b3 00 	sts	0x00B3, r24	; 0x8000b3 <__TEXT_REGION_LENGTH__+0x7000b3>
    1b3a:	3c cf       	rjmp	.-392    	; 0x19b4 <.L7>

00001b3c <.L26>:
                OCR2A += RAMPING_SPEED;  // Increment by step
    1b3c:	e3 eb       	ldi	r30, 0xB3	; 179
    1b3e:	f0 e0       	ldi	r31, 0x00	; 0
    1b40:	80 81       	ld	r24, Z

00001b42 <.Loc.164>:
    1b42:	8e 5e       	subi	r24, 0xEE	; 238
    1b44:	80 83       	st	Z, r24
    1b46:	36 cf       	rjmp	.-404    	; 0x19b4 <.L7>

00001b48 <.L25>:
        else if (OCR2A > freq_target_right) {
    1b48:	80 91 b3 00 	lds	r24, 0x00B3	; 0x8000b3 <__TEXT_REGION_LENGTH__+0x7000b3>

00001b4c <.Loc.167>:
    1b4c:	20 91 02 02 	lds	r18, 0x0202	; 0x800202 <freq_target_right>
    1b50:	30 91 03 02 	lds	r19, 0x0203	; 0x800203 <freq_target_right+0x1>

00001b54 <.Loc.168>:
    1b54:	90 e0       	ldi	r25, 0x00	; 0

00001b56 <.Loc.169>:
    1b56:	28 17       	cp	r18, r24
    1b58:	39 07       	cpc	r19, r25
    1b5a:	0c f0       	brlt	.+2      	; 0x1b5e <.Loc.170>

00001b5c <L0^A>:
    1b5c:	2b cf       	rjmp	.-426    	; 0x19b4 <.L7>

00001b5e <.Loc.170>:
            if (OCR2A - RAMPING_SPEED < freq_target_right) {
    1b5e:	80 91 b3 00 	lds	r24, 0x00B3	; 0x8000b3 <__TEXT_REGION_LENGTH__+0x7000b3>

00001b62 <.Loc.172>:
    1b62:	20 91 02 02 	lds	r18, 0x0202	; 0x800202 <freq_target_right>
    1b66:	30 91 03 02 	lds	r19, 0x0203	; 0x800203 <freq_target_right+0x1>
    1b6a:	81 51       	subi	r24, 0x11	; 17
    1b6c:	99 0b       	sbc	r25, r25

00001b6e <.Loc.173>:
    1b6e:	28 17       	cp	r18, r24
    1b70:	39 07       	cpc	r19, r25
    1b72:	3c f0       	brlt	.+14     	; 0x1b82 <.L27>

00001b74 <.Loc.174>:
                OCR2A = freq_target_right;  // Directly set it to target to avoid overshooting
    1b74:	80 91 02 02 	lds	r24, 0x0202	; 0x800202 <freq_target_right>
    1b78:	90 91 03 02 	lds	r25, 0x0203	; 0x800203 <freq_target_right+0x1>
    1b7c:	80 93 b3 00 	sts	0x00B3, r24	; 0x8000b3 <__TEXT_REGION_LENGTH__+0x7000b3>
    1b80:	19 cf       	rjmp	.-462    	; 0x19b4 <.L7>

00001b82 <.L27>:
                OCR2A -= RAMPING_SPEED;  // Decrement by step
    1b82:	e3 eb       	ldi	r30, 0xB3	; 179
    1b84:	f0 e0       	ldi	r31, 0x00	; 0
    1b86:	80 81       	ld	r24, Z

00001b88 <.Loc.177>:
    1b88:	82 51       	subi	r24, 0x12	; 18
    1b8a:	80 83       	st	Z, r24

00001b8c <.Loc.178>:
}
    1b8c:	13 cf       	rjmp	.-474    	; 0x19b4 <.L7>

00001b8e <stepper_speed_left>:
    TCCR2A = (1<<COM2B1) | (1<<WGM21) | (1<<WGM20);
    TCCR2B = (1<<WGM22) | (1<<CS22) | (1<<CS21) | (0<<CS20);
    stepper_control(0, 0);
}
// --- Speed control --- //
void stepper_speed_left(int speed){
    1b8e:	28 2f       	mov	r18, r24
    1b90:	39 2f       	mov	r19, r25

00001b92 <.Loc.181>:
    // Determine direction changes
    static int previous_speed;
    if(previous_speed <= 0 && speed > 0){
    1b92:	80 91 a7 02 	lds	r24, 0x02A7	; 0x8002a7 <previous_speed.1>
    1b96:	90 91 a8 02 	lds	r25, 0x02A8	; 0x8002a8 <previous_speed.1+0x1>

00001b9a <.Loc.184>:
    1b9a:	18 16       	cp	r1, r24
    1b9c:	19 06       	cpc	r1, r25
    1b9e:	34 f4       	brge	.+12     	; 0x1bac <.L40>

00001ba0 <.L33>:
        direction_change_left = 1; // backward
    }
    else if(previous_speed >= 0 && speed < 0){
    1ba0:	33 23       	and	r19, r19
    1ba2:	f4 f4       	brge	.+60     	; 0x1be0 <.L36>

00001ba4 <.Loc.186>:
        direction_change_left = 3; // forward
    1ba4:	83 e0       	ldi	r24, 0x03	; 3
    1ba6:	80 93 a0 02 	sts	0x02A0, r24	; 0x8002a0 <direction_change_left>
    1baa:	06 c0       	rjmp	.+12     	; 0x1bb8 <.L37>

00001bac <.L40>:
    if(previous_speed <= 0 && speed > 0){
    1bac:	12 16       	cp	r1, r18
    1bae:	13 06       	cpc	r1, r19
    1bb0:	ac f4       	brge	.+42     	; 0x1bdc <.L34>

00001bb2 <.Loc.189>:
        direction_change_left = 1; // backward
    1bb2:	81 e0       	ldi	r24, 0x01	; 1
    1bb4:	80 93 a0 02 	sts	0x02A0, r24	; 0x8002a0 <direction_change_left>

00001bb8 <.L37>:
    }
    else if(speed == 0){
        direction_change_left = 2; // stop
    }
    previous_speed = speed;
    1bb8:	30 93 a8 02 	sts	0x02A8, r19	; 0x8002a8 <previous_speed.1+0x1>
    1bbc:	20 93 a7 02 	sts	0x02A7, r18	; 0x8002a7 <previous_speed.1>

00001bc0 <.Loc.192>:
    // Calculate frequency target
    if(speed){
        speed = abs(speed);
    1bc0:	b9 01       	movw	r22, r18
    1bc2:	33 23       	and	r19, r19
    1bc4:	c4 f0       	brlt	.+48     	; 0x1bf6 <.L41>

00001bc6 <.L39>:
        freq_target_left = (STEPPER_MIN_FREQ + (STEPPER_FREQ_RANGE/abs(speed)));
    1bc6:	8d ef       	ldi	r24, 0xFD	; 253
    1bc8:	90 e0       	ldi	r25, 0x00	; 0
    1bca:	0e 94 3f 11 	call	0x227e	; 0x227e <__divmodhi4>

00001bce <.Loc.196>:
    1bce:	6e 5f       	subi	r22, 0xFE	; 254
    1bd0:	7f 4f       	sbci	r23, 0xFF	; 255

00001bd2 <.Loc.197>:
    1bd2:	70 93 05 02 	sts	0x0205, r23	; 0x800205 <freq_target_left+0x1>
    1bd6:	60 93 04 02 	sts	0x0204, r22	; 0x800204 <freq_target_left>

00001bda <.Loc.198>:
    }
}
    1bda:	08 95       	ret

00001bdc <.L34>:
    else if(previous_speed >= 0 && speed < 0){
    1bdc:	89 2b       	or	r24, r25
    1bde:	01 f3       	breq	.-64     	; 0x1ba0 <.L33>

00001be0 <.L36>:
    else if(speed == 0){
    1be0:	21 15       	cp	r18, r1
    1be2:	31 05       	cpc	r19, r1
    1be4:	49 f7       	brne	.-46     	; 0x1bb8 <.L37>

00001be6 <.Loc.203>:
        direction_change_left = 2; // stop
    1be6:	82 e0       	ldi	r24, 0x02	; 2
    1be8:	80 93 a0 02 	sts	0x02A0, r24	; 0x8002a0 <direction_change_left>

00001bec <.Loc.205>:
    previous_speed = speed;
    1bec:	10 92 a8 02 	sts	0x02A8, r1	; 0x8002a8 <previous_speed.1+0x1>
    1bf0:	10 92 a7 02 	sts	0x02A7, r1	; 0x8002a7 <previous_speed.1>

00001bf4 <.Loc.207>:
    if(speed){
    1bf4:	08 95       	ret

00001bf6 <.L41>:
        speed = abs(speed);
    1bf6:	66 27       	eor	r22, r22
    1bf8:	77 27       	eor	r23, r23
    1bfa:	62 1b       	sub	r22, r18
    1bfc:	73 0b       	sbc	r23, r19
    1bfe:	e3 cf       	rjmp	.-58     	; 0x1bc6 <.L39>

00001c00 <stepper_speed_right>:
void stepper_speed_right(int speed){
    1c00:	28 2f       	mov	r18, r24
    1c02:	39 2f       	mov	r19, r25

00001c04 <.Loc.211>:
    // Determine direction changes
    static int previous_speed;
    if(previous_speed <= 0 && speed > 0){
    1c04:	80 91 a5 02 	lds	r24, 0x02A5	; 0x8002a5 <previous_speed.0>
    1c08:	90 91 a6 02 	lds	r25, 0x02A6	; 0x8002a6 <previous_speed.0+0x1>

00001c0c <.Loc.214>:
    1c0c:	18 16       	cp	r1, r24
    1c0e:	19 06       	cpc	r1, r25
    1c10:	34 f4       	brge	.+12     	; 0x1c1e <.L50>

00001c12 <.L43>:
        direction_change_right = 1; // Backward
    }
    else if(previous_speed >= 0 && speed < 0){
    1c12:	33 23       	and	r19, r19
    1c14:	f4 f4       	brge	.+60     	; 0x1c52 <.L46>

00001c16 <.Loc.216>:
        direction_change_right = 3; // Forward
    1c16:	83 e0       	ldi	r24, 0x03	; 3
    1c18:	80 93 9f 02 	sts	0x029F, r24	; 0x80029f <direction_change_right>
    1c1c:	06 c0       	rjmp	.+12     	; 0x1c2a <.L47>

00001c1e <.L50>:
    if(previous_speed <= 0 && speed > 0){
    1c1e:	12 16       	cp	r1, r18
    1c20:	13 06       	cpc	r1, r19
    1c22:	ac f4       	brge	.+42     	; 0x1c4e <.L44>

00001c24 <.Loc.219>:
        direction_change_right = 1; // Backward
    1c24:	81 e0       	ldi	r24, 0x01	; 1
    1c26:	80 93 9f 02 	sts	0x029F, r24	; 0x80029f <direction_change_right>

00001c2a <.L47>:
    }
    else if(speed == 0){
        direction_change_right = 2; // Stop
    }
    previous_speed = speed;
    1c2a:	30 93 a6 02 	sts	0x02A6, r19	; 0x8002a6 <previous_speed.0+0x1>
    1c2e:	20 93 a5 02 	sts	0x02A5, r18	; 0x8002a5 <previous_speed.0>

00001c32 <.Loc.222>:
    // Calculate target frequency
    if(speed){
        freq_target_right = (STEPPER_MIN_FREQ + (STEPPER_FREQ_RANGE/abs(speed)));
    1c32:	b9 01       	movw	r22, r18
    1c34:	33 23       	and	r19, r19
    1c36:	c4 f0       	brlt	.+48     	; 0x1c68 <.L51>

00001c38 <.L49>:
    1c38:	8d ef       	ldi	r24, 0xFD	; 253
    1c3a:	90 e0       	ldi	r25, 0x00	; 0
    1c3c:	0e 94 3f 11 	call	0x227e	; 0x227e <__divmodhi4>

00001c40 <.Loc.225>:
    1c40:	6e 5f       	subi	r22, 0xFE	; 254
    1c42:	7f 4f       	sbci	r23, 0xFF	; 255

00001c44 <.Loc.226>:
    1c44:	70 93 03 02 	sts	0x0203, r23	; 0x800203 <freq_target_right+0x1>
    1c48:	60 93 02 02 	sts	0x0202, r22	; 0x800202 <freq_target_right>

00001c4c <.Loc.227>:
    }
}
    1c4c:	08 95       	ret

00001c4e <.L44>:
    else if(previous_speed >= 0 && speed < 0){
    1c4e:	89 2b       	or	r24, r25
    1c50:	01 f3       	breq	.-64     	; 0x1c12 <.L43>

00001c52 <.L46>:
    else if(speed == 0){
    1c52:	21 15       	cp	r18, r1
    1c54:	31 05       	cpc	r19, r1
    1c56:	49 f7       	brne	.-46     	; 0x1c2a <.L47>

00001c58 <.Loc.232>:
        direction_change_right = 2; // Stop
    1c58:	82 e0       	ldi	r24, 0x02	; 2
    1c5a:	80 93 9f 02 	sts	0x029F, r24	; 0x80029f <direction_change_right>

00001c5e <.Loc.234>:
    previous_speed = speed;
    1c5e:	10 92 a6 02 	sts	0x02A6, r1	; 0x8002a6 <previous_speed.0+0x1>
    1c62:	10 92 a5 02 	sts	0x02A5, r1	; 0x8002a5 <previous_speed.0>

00001c66 <.Loc.236>:
    if(speed){
    1c66:	08 95       	ret

00001c68 <.L51>:
        freq_target_right = (STEPPER_MIN_FREQ + (STEPPER_FREQ_RANGE/abs(speed)));
    1c68:	66 27       	eor	r22, r22
    1c6a:	77 27       	eor	r23, r23
    1c6c:	62 1b       	sub	r22, r18
    1c6e:	73 0b       	sbc	r23, r19
    1c70:	e3 cf       	rjmp	.-58     	; 0x1c38 <.L49>

00001c72 <stepper_control>:
// --- Stepper steering with speed control --- //
void stepper_control(int speed, int steer){
    1c72:	0f 93       	push	r16
    1c74:	1f 93       	push	r17
    1c76:	cf 93       	push	r28
    1c78:	df 93       	push	r29
    1c7a:	c8 2f       	mov	r28, r24
    1c7c:	d9 2f       	mov	r29, r25
    1c7e:	26 2f       	mov	r18, r22
    1c80:	37 2f       	mov	r19, r23

00001c82 <.Loc.240>:
    // Give a steering boost to
    //steer = steer * (( (15.0)/(speed+1) )+1); non linear steering, probably not needed
    // Clamp speed and steer to <-100; 100>
    speed = CLAMP(speed, -100, 100);
    steer = CLAMP(steer, -100, 100);
    1c82:	89 01       	movw	r16, r18
    1c84:	25 36       	cpi	r18, 0x65	; 101
    1c86:	31 05       	cpc	r19, r1
    1c88:	14 f0       	brlt	.+4      	; 0x1c8e <.L53>
    1c8a:	04 e6       	ldi	r16, 0x64	; 100
    1c8c:	10 e0       	ldi	r17, 0x00	; 0

00001c8e <.L53>:
    1c8e:	0c 39       	cpi	r16, 0x9C	; 156
    1c90:	8f ef       	ldi	r24, 0xFF	; 255
    1c92:	18 07       	cpc	r17, r24
    1c94:	14 f4       	brge	.+4      	; 0x1c9a <.L54>
    1c96:	0c e9       	ldi	r16, 0x9C	; 156
    1c98:	1f ef       	ldi	r17, 0xFF	; 255

00001c9a <.L54>:
    // Steering while driving
    if(speed > 0 || speed < 0){
    1c9a:	20 97       	sbiw	r28, 0x00	; 0
    1c9c:	09 f4       	brne	.+2      	; 0x1ca0 <.Loc.245>

00001c9e <L0^A>:
    1c9e:	46 c0       	rjmp	.+140    	; 0x1d2c <.L55>

00001ca0 <.Loc.245>:
    speed = CLAMP(speed, -100, 100);
    1ca0:	c5 36       	cpi	r28, 0x65	; 101
    1ca2:	d1 05       	cpc	r29, r1
    1ca4:	14 f0       	brlt	.+4      	; 0x1caa <.L56>
    1ca6:	c4 e6       	ldi	r28, 0x64	; 100
    1ca8:	d0 e0       	ldi	r29, 0x00	; 0

00001caa <.L56>:
    1caa:	cc 39       	cpi	r28, 0x9C	; 156
    1cac:	8f ef       	ldi	r24, 0xFF	; 255
    1cae:	d8 07       	cpc	r29, r24
    1cb0:	14 f4       	brge	.+4      	; 0x1cb6 <.L57>
    1cb2:	cc e9       	ldi	r28, 0x9C	; 156
    1cb4:	df ef       	ldi	r29, 0xFF	; 255

00001cb6 <.L57>:
    // No steer, go straight
        if(steer == 0){
    1cb6:	21 15       	cp	r18, r1
    1cb8:	31 05       	cpc	r19, r1
    1cba:	a9 f0       	breq	.+42     	; 0x1ce6 <.L62>

00001cbc <.Loc.249>:
            stepper_speed_left(speed);
            stepper_speed_right(speed);
        }
        // Go left
        else if(steer < 0){
    1cbc:	dc f0       	brlt	.+54     	; 0x1cf4 <.L63>

00001cbe <.Loc.251>:
            stepper_speed_left(speed-((abs(steer)*speed)/100));
            stepper_speed_right(speed);
        }
        // Go right
        else if(steer > 0){
            stepper_speed_left(speed);
    1cbe:	ce 01       	movw	r24, r28
    1cc0:	0e 94 c7 0d 	call	0x1b8e	; 0x1b8e <stepper_speed_left>

00001cc4 <.LVL11>:
            stepper_speed_right(speed-((steer*speed)/100));
    1cc4:	0c 9f       	mul	r16, r28
    1cc6:	c0 01       	movw	r24, r0
    1cc8:	0d 9f       	mul	r16, r29
    1cca:	90 0d       	add	r25, r0
    1ccc:	1c 9f       	mul	r17, r28
    1cce:	90 0d       	add	r25, r0
    1cd0:	11 24       	eor	r1, r1

00001cd2 <.Loc.255>:
    1cd2:	6c e9       	ldi	r22, 0x9C	; 156
    1cd4:	7f ef       	ldi	r23, 0xFF	; 255
    1cd6:	0e 94 3f 11 	call	0x227e	; 0x227e <__divmodhi4>

00001cda <.Loc.256>:
    1cda:	cb 01       	movw	r24, r22
    1cdc:	8c 0f       	add	r24, r28
    1cde:	9d 1f       	adc	r25, r29
    1ce0:	0e 94 00 0e 	call	0x1c00	; 0x1c00 <stepper_speed_right>

00001ce4 <.LVL12>:
    1ce4:	2c c0       	rjmp	.+88     	; 0x1d3e <.L59>

00001ce6 <.L62>:
            stepper_speed_left(speed);
    1ce6:	ce 01       	movw	r24, r28
    1ce8:	0e 94 c7 0d 	call	0x1b8e	; 0x1b8e <stepper_speed_left>

00001cec <.LVL13>:
            stepper_speed_right(speed);
    1cec:	ce 01       	movw	r24, r28
    1cee:	0e 94 00 0e 	call	0x1c00	; 0x1c00 <stepper_speed_right>

00001cf2 <.LVL14>:
    1cf2:	25 c0       	rjmp	.+74     	; 0x1d3e <.L59>

00001cf4 <.L63>:
            stepper_speed_left(speed-((abs(steer)*speed)/100));
    1cf4:	98 01       	movw	r18, r16
    1cf6:	11 23       	and	r17, r17
    1cf8:	a4 f0       	brlt	.+40     	; 0x1d22 <.L64>

00001cfa <.L61>:
    1cfa:	2c 9f       	mul	r18, r28
    1cfc:	c0 01       	movw	r24, r0
    1cfe:	2d 9f       	mul	r18, r29
    1d00:	90 0d       	add	r25, r0
    1d02:	3c 9f       	mul	r19, r28
    1d04:	90 0d       	add	r25, r0
    1d06:	11 24       	eor	r1, r1

00001d08 <.Loc.262>:
    1d08:	6c e9       	ldi	r22, 0x9C	; 156
    1d0a:	7f ef       	ldi	r23, 0xFF	; 255
    1d0c:	0e 94 3f 11 	call	0x227e	; 0x227e <__divmodhi4>

00001d10 <.Loc.263>:
    1d10:	cb 01       	movw	r24, r22
    1d12:	8c 0f       	add	r24, r28
    1d14:	9d 1f       	adc	r25, r29
    1d16:	0e 94 c7 0d 	call	0x1b8e	; 0x1b8e <stepper_speed_left>

00001d1a <.LVL15>:
            stepper_speed_right(speed);
    1d1a:	ce 01       	movw	r24, r28
    1d1c:	0e 94 00 0e 	call	0x1c00	; 0x1c00 <stepper_speed_right>

00001d20 <.LVL16>:
    1d20:	0e c0       	rjmp	.+28     	; 0x1d3e <.L59>

00001d22 <.L64>:
            stepper_speed_left(speed-((abs(steer)*speed)/100));
    1d22:	22 27       	eor	r18, r18
    1d24:	33 27       	eor	r19, r19
    1d26:	20 1b       	sub	r18, r16
    1d28:	31 0b       	sbc	r19, r17
    1d2a:	e7 cf       	rjmp	.-50     	; 0x1cfa <.L61>

00001d2c <.L55>:
        }
    }
    // Steering in place
    else if(speed == 0){
        stepper_speed_left(steer);
    1d2c:	c8 01       	movw	r24, r16
    1d2e:	0e 94 c7 0d 	call	0x1b8e	; 0x1b8e <stepper_speed_left>

00001d32 <.LVL18>:
        stepper_speed_right(-steer);
    1d32:	88 27       	eor	r24, r24
    1d34:	99 27       	eor	r25, r25
    1d36:	80 1b       	sub	r24, r16
    1d38:	91 0b       	sbc	r25, r17
    1d3a:	0e 94 00 0e 	call	0x1c00	; 0x1c00 <stepper_speed_right>

00001d3e <.L59>:
    }
    // Disable step control
    step_count_left = -1;
    1d3e:	8f ef       	ldi	r24, 0xFF	; 255
    1d40:	9f ef       	ldi	r25, 0xFF	; 255
    1d42:	90 93 a4 02 	sts	0x02A4, r25	; 0x8002a4 <step_count_left+0x1>
    1d46:	80 93 a3 02 	sts	0x02A3, r24	; 0x8002a3 <step_count_left>

00001d4a <.Loc.271>:
    step_count_right = -1;
    1d4a:	90 93 a2 02 	sts	0x02A2, r25	; 0x8002a2 <step_count_right+0x1>
    1d4e:	80 93 a1 02 	sts	0x02A1, r24	; 0x8002a1 <step_count_right>

00001d52 <.Loc.273>:
}
    1d52:	df 91       	pop	r29
    1d54:	cf 91       	pop	r28
    1d56:	1f 91       	pop	r17
    1d58:	0f 91       	pop	r16

00001d5a <.Loc.274>:
    1d5a:	08 95       	ret

00001d5c <stepper_init>:
    DDR_ST1_STEP |= (1<<PIN_ST1_STEP);
    1d5c:	9d 9a       	sbi	0x13, 5	; 19

00001d5e <.Loc.278>:
    DDR_ST1_EN |= (1<<PIN_ST1_EN);
    1d5e:	e1 e0       	ldi	r30, 0x01	; 1
    1d60:	f1 e0       	ldi	r31, 0x01	; 1
    1d62:	80 81       	ld	r24, Z

00001d64 <.Loc.279>:
    1d64:	88 60       	ori	r24, 0x08	; 8
    1d66:	80 83       	st	Z, r24

00001d68 <.Loc.280>:
    DDR_ST1_DIR |= (1<<PIN_ST1_DIR);
    1d68:	6b 9a       	sbi	0x0d, 3	; 13

00001d6a <.Loc.282>:
    DDR_ST2_STEP |= (1<<PIN_ST2_STEP);
    1d6a:	80 81       	ld	r24, Z

00001d6c <.Loc.283>:
    1d6c:	80 64       	ori	r24, 0x40	; 64
    1d6e:	80 83       	st	Z, r24

00001d70 <.Loc.284>:
    DDR_ST2_EN |= (1<<PIN_ST2_EN);
    1d70:	25 9a       	sbi	0x04, 5	; 4

00001d72 <.Loc.286>:
    DDR_ST2_DIR |= (1<<PIN_ST2_DIR);
    1d72:	24 9a       	sbi	0x04, 4	; 4

00001d74 <.Loc.288>:
    PORT_ST1_EN |= (1<<PIN_ST1_EN);
    1d74:	e2 e0       	ldi	r30, 0x02	; 2
    1d76:	f1 e0       	ldi	r31, 0x01	; 1
    1d78:	80 81       	ld	r24, Z

00001d7a <.Loc.289>:
    1d7a:	88 60       	ori	r24, 0x08	; 8
    1d7c:	80 83       	st	Z, r24

00001d7e <.Loc.290>:
    PORT_ST2_EN |= (1<<PIN_ST2_EN);
    1d7e:	2d 9a       	sbi	0x05, 5	; 5

00001d80 <.Loc.292>:
    PORT_ST1_DIR |= (1<<PIN_ST1_DIR);
    1d80:	73 9a       	sbi	0x0e, 3	; 14

00001d82 <.Loc.294>:
    PORT_ST2_DIR |= (1<<PIN_ST2_DIR);
    1d82:	2c 9a       	sbi	0x05, 4	; 5

00001d84 <.Loc.296>:
    OCR2A = 0xFF;
    1d84:	8f ef       	ldi	r24, 0xFF	; 255
    1d86:	80 93 b3 00 	sts	0x00B3, r24	; 0x8000b3 <__TEXT_REGION_LENGTH__+0x7000b3>

00001d8a <.Loc.298>:
    OCR0A = 0xFF;
    1d8a:	87 bd       	out	0x27, r24	; 39

00001d8c <.Loc.300>:
    OCR0B = 1;
    1d8c:	81 e0       	ldi	r24, 0x01	; 1
    1d8e:	88 bd       	out	0x28, r24	; 40

00001d90 <.Loc.302>:
    OCR2B = 1;
    1d90:	80 93 b4 00 	sts	0x00B4, r24	; 0x8000b4 <__TEXT_REGION_LENGTH__+0x7000b4>

00001d94 <.Loc.304>:
    TCCR0A = (1<<COM0B1) | (1<<WGM01) | (1<<WGM00);
    1d94:	83 e2       	ldi	r24, 0x23	; 35
    1d96:	84 bd       	out	0x24, r24	; 36

00001d98 <.Loc.306>:
    TCCR0B = (1<<WGM02) | (1<<CS02) | (0<<CS01) | (0<<CS00);
    1d98:	9c e0       	ldi	r25, 0x0C	; 12
    1d9a:	95 bd       	out	0x25, r25	; 37

00001d9c <.Loc.308>:
    TCCR2A = (1<<COM2B1) | (1<<WGM21) | (1<<WGM20);
    1d9c:	80 93 b0 00 	sts	0x00B0, r24	; 0x8000b0 <__TEXT_REGION_LENGTH__+0x7000b0>

00001da0 <.Loc.310>:
    TCCR2B = (1<<WGM22) | (1<<CS22) | (1<<CS21) | (0<<CS20);
    1da0:	8e e0       	ldi	r24, 0x0E	; 14
    1da2:	80 93 b1 00 	sts	0x00B1, r24	; 0x8000b1 <__TEXT_REGION_LENGTH__+0x7000b1>

00001da6 <.Loc.312>:
    stepper_control(0, 0);
    1da6:	60 e0       	ldi	r22, 0x00	; 0
    1da8:	70 e0       	ldi	r23, 0x00	; 0
    1daa:	80 e0       	ldi	r24, 0x00	; 0
    1dac:	90 e0       	ldi	r25, 0x00	; 0
    1dae:	0e 94 39 0e 	call	0x1c72	; 0x1c72 <stepper_control>

00001db2 <.LVL21>:
}
    1db2:	08 95       	ret

00001db4 <stepper_step_control>:
// --- Stepper control with step counting --- //
void stepper_step_control(int speed, int steer, unsigned int steps){
    1db4:	cf 93       	push	r28
    1db6:	df 93       	push	r29
    1db8:	c4 2f       	mov	r28, r20
    1dba:	d5 2f       	mov	r29, r21

00001dbc <.Loc.316>:
    // Enable interrupts for counting
    TIMSK0 = (1<<TOIE0);
    1dbc:	21 e0       	ldi	r18, 0x01	; 1
    1dbe:	20 93 6e 00 	sts	0x006E, r18	; 0x80006e <__TEXT_REGION_LENGTH__+0x70006e>

00001dc2 <.Loc.318>:
    TIMSK2 = (1<<TOIE2);
    1dc2:	20 93 70 00 	sts	0x0070, r18	; 0x800070 <__TEXT_REGION_LENGTH__+0x700070>

00001dc6 <.Loc.320>:
    // Set speed and direction
    stepper_control(speed, steer);
    1dc6:	0e 94 39 0e 	call	0x1c72	; 0x1c72 <stepper_control>

00001dca <.LVL23>:
    // Set steps, fastest stepper determines end of counting
    step_count_left = steps;
    1dca:	d0 93 a4 02 	sts	0x02A4, r29	; 0x8002a4 <step_count_left+0x1>
    1dce:	c0 93 a3 02 	sts	0x02A3, r28	; 0x8002a3 <step_count_left>

00001dd2 <.Loc.323>:
    step_count_right = steps;
    1dd2:	d0 93 a2 02 	sts	0x02A2, r29	; 0x8002a2 <step_count_right+0x1>
    1dd6:	c0 93 a1 02 	sts	0x02A1, r28	; 0x8002a1 <step_count_right>

00001dda <.Loc.325>:
}
    1dda:	df 91       	pop	r29
    1ddc:	cf 91       	pop	r28
    1dde:	08 95       	ret

00001de0 <display_start>:
    0b00000000      // BLANK 19
};

// Start Condition
void display_start(void){
    DDR_DIO |= (1<<PIN_DIO);
    1de0:	ea e0       	ldi	r30, 0x0A	; 10
    1de2:	f1 e0       	ldi	r31, 0x01	; 1
    1de4:	80 81       	ld	r24, Z

00001de6 <.Loc.2>:
    1de6:	80 68       	ori	r24, 0x80	; 128
    1de8:	80 83       	st	Z, r24

00001dea <.Loc.3>:
    PORT_DIO |= (1<<PIN_DIO);
    1dea:	eb e0       	ldi	r30, 0x0B	; 11
    1dec:	f1 e0       	ldi	r31, 0x01	; 1
    1dee:	80 81       	ld	r24, Z

00001df0 <.Loc.4>:
    1df0:	80 68       	ori	r24, 0x80	; 128
    1df2:	80 83       	st	Z, r24

00001df4 <.Loc.5>:
    PORT_CLK |= (1<<PIN_CLK);
    1df4:	80 81       	ld	r24, Z

00001df6 <.Loc.6>:
    1df6:	80 62       	ori	r24, 0x20	; 32
    1df8:	80 83       	st	Z, r24

00001dfa <.Loc.7>:
    PORT_DIO &= ~(1<<PIN_DIO);
    1dfa:	80 81       	ld	r24, Z
    1dfc:	8f 77       	andi	r24, 0x7F	; 127
    1dfe:	80 83       	st	Z, r24

00001e00 <.Loc.9>:
}
    1e00:	08 95       	ret

00001e02 <display_stop>:

// Stop Condition
void display_stop(void){
    DDR_DIO |= (1<<PIN_DIO);
    1e02:	ea e0       	ldi	r30, 0x0A	; 10
    1e04:	f1 e0       	ldi	r31, 0x01	; 1
    1e06:	80 81       	ld	r24, Z

00001e08 <.Loc.12>:
    1e08:	80 68       	ori	r24, 0x80	; 128
    1e0a:	80 83       	st	Z, r24

00001e0c <.Loc.13>:
    PORT_CLK &= ~(1<<PIN_CLK);
    1e0c:	eb e0       	ldi	r30, 0x0B	; 11
    1e0e:	f1 e0       	ldi	r31, 0x01	; 1
    1e10:	80 81       	ld	r24, Z
    1e12:	8f 7d       	andi	r24, 0xDF	; 223
    1e14:	80 83       	st	Z, r24

00001e16 <.Loc.15>:
    PORT_CLK |= (1<<PIN_CLK);
    1e16:	80 81       	ld	r24, Z

00001e18 <.Loc.16>:
    1e18:	80 62       	ori	r24, 0x20	; 32
    1e1a:	80 83       	st	Z, r24

00001e1c <.Loc.17>:
    PORT_DIO |= (1<<PIN_DIO);
    1e1c:	80 81       	ld	r24, Z

00001e1e <.Loc.18>:
    1e1e:	80 68       	ori	r24, 0x80	; 128
    1e20:	80 83       	st	Z, r24

00001e22 <.Loc.19>:
}
    1e22:	08 95       	ret

00001e24 <display_sendbyte>:

// Write One Byte (LSB first)
void display_sendbyte(unsigned char data){
    DDR_DIO |= (1<<PIN_DIO);
    1e24:	ea e0       	ldi	r30, 0x0A	; 10
    1e26:	f1 e0       	ldi	r31, 0x01	; 1
    1e28:	90 81       	ld	r25, Z

00001e2a <.Loc.22>:
    1e2a:	90 68       	ori	r25, 0x80	; 128
    1e2c:	90 83       	st	Z, r25

00001e2e <.Loc.23>:
    1e2e:	28 e0       	ldi	r18, 0x08	; 8
    1e30:	30 e0       	ldi	r19, 0x00	; 0

00001e32 <.Loc.27>:
    for(int i = 0; i < 8; i++){
        PORT_CLK &= ~(1<<PIN_CLK);
    1e32:	eb e0       	ldi	r30, 0x0B	; 11
    1e34:	f1 e0       	ldi	r31, 0x01	; 1
    1e36:	0c c0       	rjmp	.+24     	; 0x1e50 <.L6>

00001e38 <.L4>:
        if(data & 0x01){
            PORT_DIO |= (1<<PIN_DIO);
        }
        else{
            PORT_DIO &= ~(1<<PIN_DIO);
    1e38:	90 81       	ld	r25, Z
    1e3a:	9f 77       	andi	r25, 0x7F	; 127
    1e3c:	90 83       	st	Z, r25

00001e3e <.L5>:
        }
        PORT_CLK |= (1<<PIN_CLK);
    1e3e:	90 81       	ld	r25, Z

00001e40 <.Loc.31>:
    1e40:	90 62       	ori	r25, 0x20	; 32
    1e42:	90 83       	st	Z, r25

00001e44 <.Loc.32>:
        data >>= 1;
    1e44:	86 95       	lsr	r24

00001e46 <.Loc.34>:
    for(int i = 0; i < 8; i++){
    1e46:	21 50       	subi	r18, 0x01	; 1
    1e48:	31 09       	sbc	r19, r1

00001e4a <.Loc.36>:
    1e4a:	21 15       	cp	r18, r1
    1e4c:	31 05       	cpc	r19, r1
    1e4e:	49 f0       	breq	.+18     	; 0x1e62 <.L8>

00001e50 <.L6>:
        PORT_CLK &= ~(1<<PIN_CLK);
    1e50:	90 81       	ld	r25, Z
    1e52:	9f 7d       	andi	r25, 0xDF	; 223
    1e54:	90 83       	st	Z, r25

00001e56 <.Loc.39>:
        if(data & 0x01){
    1e56:	80 ff       	sbrs	r24, 0
    1e58:	ef cf       	rjmp	.-34     	; 0x1e38 <.L4>

00001e5a <.Loc.41>:
            PORT_DIO |= (1<<PIN_DIO);
    1e5a:	90 81       	ld	r25, Z

00001e5c <.Loc.42>:
    1e5c:	90 68       	ori	r25, 0x80	; 128
    1e5e:	90 83       	st	Z, r25
    1e60:	ee cf       	rjmp	.-36     	; 0x1e3e <.L5>

00001e62 <.L8>:
    }
    // Let IC ACK without polling
    PORT_CLK &= ~(1<<PIN_CLK);
    1e62:	eb e0       	ldi	r30, 0x0B	; 11
    1e64:	f1 e0       	ldi	r31, 0x01	; 1
    1e66:	80 81       	ld	r24, Z

00001e68 <.Loc.46>:
    1e68:	8f 7d       	andi	r24, 0xDF	; 223
    1e6a:	80 83       	st	Z, r24

00001e6c <.Loc.47>:
    PORT_CLK |= (1<<PIN_CLK);
    1e6c:	80 81       	ld	r24, Z

00001e6e <.Loc.48>:
    1e6e:	80 62       	ori	r24, 0x20	; 32
    1e70:	80 83       	st	Z, r24

00001e72 <.Loc.49>:
}
    1e72:	08 95       	ret

00001e74 <display_brightness>:

// Set Brightness
void display_brightness(unsigned char brightness){
    1e74:	cf 93       	push	r28
    1e76:	c8 2f       	mov	r28, r24

00001e78 <.Loc.52>:
    display_start();
    1e78:	0e 94 f0 0e 	call	0x1de0	; 0x1de0 <display_start>

00001e7c <.LVL8>:
    display_sendbyte(0x88 | (brightness & 0x07));
    1e7c:	8c 2f       	mov	r24, r28
    1e7e:	87 70       	andi	r24, 0x07	; 7
    1e80:	88 68       	ori	r24, 0x88	; 136
    1e82:	0e 94 12 0f 	call	0x1e24	; 0x1e24 <display_sendbyte>

00001e86 <.LVL9>:
    display_stop();
    1e86:	0e 94 01 0f 	call	0x1e02	; 0x1e02 <display_stop>

00001e8a <.LVL10>:
}
    1e8a:	cf 91       	pop	r28

00001e8c <.Loc.56>:
    1e8c:	08 95       	ret

00001e8e <display_number>:

// Display 4 digit integer
void display_number(int number){
    1e8e:	ef 92       	push	r14
    1e90:	ff 92       	push	r15
    1e92:	1f 93       	push	r17
    1e94:	cf 93       	push	r28
    1e96:	df 93       	push	r29
    1e98:	d8 2f       	mov	r29, r24
    1e9a:	c9 2f       	mov	r28, r25

00001e9c <.Loc.59>:
    display_start();
    1e9c:	0e 94 f0 0e 	call	0x1de0	; 0x1de0 <display_start>

00001ea0 <.LVL13>:
    display_sendbyte(0x40);
    1ea0:	80 e4       	ldi	r24, 0x40	; 64
    1ea2:	0e 94 12 0f 	call	0x1e24	; 0x1e24 <display_sendbyte>

00001ea6 <.LVL14>:
    display_stop();
    1ea6:	0e 94 01 0f 	call	0x1e02	; 0x1e02 <display_stop>

00001eaa <.LVL15>:
    1eaa:	13 ec       	ldi	r17, 0xC3	; 195

00001eac <.Loc.66>:
    // Write each digit separate
    for (int i = 0; i < 4; i++) {
        display_start();
        display_sendbyte(0xC0 + (3 - i));
        display_sendbyte(digits[number%10]);
    1eac:	0f 2e       	mov	r0, r31
    1eae:	fa e0       	ldi	r31, 0x0A	; 10
    1eb0:	ef 2e       	mov	r14, r31
    1eb2:	f1 2c       	mov	r15, r1
    1eb4:	f0 2d       	mov	r31, r0

00001eb6 <.L11>:
        display_start();
    1eb6:	0e 94 f0 0e 	call	0x1de0	; 0x1de0 <display_start>

00001eba <.LVL17>:
        display_sendbyte(0xC0 + (3 - i));
    1eba:	81 2f       	mov	r24, r17
    1ebc:	0e 94 12 0f 	call	0x1e24	; 0x1e24 <display_sendbyte>

00001ec0 <.LVL18>:
        display_sendbyte(digits[number%10]);
    1ec0:	8d 2f       	mov	r24, r29
    1ec2:	9c 2f       	mov	r25, r28
    1ec4:	b7 01       	movw	r22, r14
    1ec6:	0e 94 3f 11 	call	0x227e	; 0x227e <__divmodhi4>
    1eca:	d6 2f       	mov	r29, r22

00001ecc <.Loc.71>:
    1ecc:	c7 2f       	mov	r28, r23

00001ece <.Loc.72>:
    1ece:	fc 01       	movw	r30, r24
    1ed0:	ec 5d       	subi	r30, 0xDC	; 220
    1ed2:	fd 4f       	sbci	r31, 0xFD	; 253

00001ed4 <.Loc.73>:
    1ed4:	80 81       	ld	r24, Z
    1ed6:	0e 94 12 0f 	call	0x1e24	; 0x1e24 <display_sendbyte>

00001eda <.LVL20>:
        number /= 10;
        display_stop();
    1eda:	0e 94 01 0f 	call	0x1e02	; 0x1e02 <display_stop>

00001ede <.LVL21>:
    for (int i = 0; i < 4; i++) {
    1ede:	11 50       	subi	r17, 0x01	; 1
    1ee0:	1f 3b       	cpi	r17, 0xBF	; 191
    1ee2:	49 f7       	brne	.-46     	; 0x1eb6 <.L11>

00001ee4 <.Loc.78>:
    }
}
    1ee4:	df 91       	pop	r29

00001ee6 <.Loc.79>:
    1ee6:	cf 91       	pop	r28
    1ee8:	1f 91       	pop	r17
    1eea:	ff 90       	pop	r15
    1eec:	ef 90       	pop	r14
    1eee:	08 95       	ret

00001ef0 <display_metal_and_non_metal>:
void display_metal_and_non_metal(int metal, int non_metal){
    1ef0:	ef 92       	push	r14
    1ef2:	ff 92       	push	r15
    1ef4:	0f 93       	push	r16
    1ef6:	1f 93       	push	r17
    1ef8:	cf 93       	push	r28
    1efa:	df 93       	push	r29
    1efc:	00 d0       	rcall	.+0      	; 0x1efe <L0^A>

00001efe <L0^A>:
    1efe:	00 d0       	rcall	.+0      	; 0x1f00 <L0^A>

00001f00 <L0^A>:
    1f00:	0f 92       	push	r0
    1f02:	0f 92       	push	r0
    1f04:	cd b7       	in	r28, 0x3d	; 61
    1f06:	de b7       	in	r29, 0x3e	; 62

00001f08 <.Loc.82>:
    // Ensure values are within range 099
    if (metal < 0) metal = 0;
    if (metal > 99) metal = 99;
    1f08:	e8 2e       	mov	r14, r24
    1f0a:	f9 2e       	mov	r15, r25
    1f0c:	84 e6       	ldi	r24, 0x64	; 100
    1f0e:	e8 16       	cp	r14, r24
    1f10:	f1 04       	cpc	r15, r1

00001f12 <.Loc.84>:
    1f12:	2c f0       	brlt	.+10     	; 0x1f1e <.L14>
    1f14:	0f 2e       	mov	r0, r31
    1f16:	f3 e6       	ldi	r31, 0x63	; 99
    1f18:	ef 2e       	mov	r14, r31
    1f1a:	f1 2c       	mov	r15, r1
    1f1c:	f0 2d       	mov	r31, r0

00001f1e <.L14>:
    1f1e:	ff 20       	and	r15, r15
    1f20:	0c f4       	brge	.+2      	; 0x1f24 <.L15>

00001f22 <L0^A>:
    1f22:	47 c0       	rjmp	.+142    	; 0x1fb2 <.L20>

00001f24 <.L15>:
    if (non_metal < 0) non_metal = 0;
    if (non_metal > 99) non_metal = 99;
    1f24:	06 2f       	mov	r16, r22
    1f26:	17 2f       	mov	r17, r23
    1f28:	04 36       	cpi	r16, 0x64	; 100
    1f2a:	11 05       	cpc	r17, r1
    1f2c:	14 f0       	brlt	.+4      	; 0x1f32 <.L16>
    1f2e:	03 e6       	ldi	r16, 0x63	; 99
    1f30:	10 e0       	ldi	r17, 0x00	; 0

00001f32 <.L16>:
    1f32:	11 23       	and	r17, r17
    1f34:	0c f4       	brge	.+2      	; 0x1f38 <.L17>

00001f36 <L0^A>:
    1f36:	40 c0       	rjmp	.+128    	; 0x1fb8 <.L21>

00001f38 <.L17>:

    // Start communication
    display_start();
    1f38:	0e 94 f0 0e 	call	0x1de0	; 0x1de0 <display_start>

00001f3c <.LVL27>:
    display_sendbyte(0x40); // Set auto-increment mode
    1f3c:	80 e4       	ldi	r24, 0x40	; 64
    1f3e:	0e 94 12 0f 	call	0x1e24	; 0x1e24 <display_sendbyte>

00001f42 <.LVL28>:
    display_stop();
    1f42:	0e 94 01 0f 	call	0x1e02	; 0x1e02 <display_stop>

00001f46 <.LVL29>:

    // Combine into one 4-digit number: MMNN
    int display_digits[4];
    display_digits[0] = metal / 10;        // Tens place of metal
    1f46:	2a e0       	ldi	r18, 0x0A	; 10
    1f48:	30 e0       	ldi	r19, 0x00	; 0
    1f4a:	c7 01       	movw	r24, r14
    1f4c:	b9 01       	movw	r22, r18
    1f4e:	0e 94 3f 11 	call	0x227e	; 0x227e <__divmodhi4>

00001f52 <.Loc.93>:
    1f52:	7a 83       	std	Y+2, r23	; 0x02
    1f54:	69 83       	std	Y+1, r22	; 0x01

00001f56 <.Loc.94>:
    display_digits[1] = metal % 10;        // Units place of metal
    1f56:	9c 83       	std	Y+4, r25	; 0x04
    1f58:	8b 83       	std	Y+3, r24	; 0x03

00001f5a <.Loc.96>:
    display_digits[2] = non_metal / 10;    // Tens place of non_metal
    1f5a:	c8 01       	movw	r24, r16
    1f5c:	b9 01       	movw	r22, r18
    1f5e:	0e 94 3f 11 	call	0x227e	; 0x227e <__divmodhi4>

00001f62 <.Loc.98>:
    1f62:	7e 83       	std	Y+6, r23	; 0x06
    1f64:	6d 83       	std	Y+5, r22	; 0x05

00001f66 <.Loc.100>:
    display_digits[3] = non_metal % 10;    // Units place of non_metal
    1f66:	98 87       	std	Y+8, r25	; 0x08
    1f68:	8f 83       	std	Y+7, r24	; 0x07

00001f6a <.Loc.101>:

    // Send digits to display
    for (int i = 0; i < 4; i++) {
    1f6a:	de 01       	movw	r26, r28
    1f6c:	11 96       	adiw	r26, 0x01	; 1
    1f6e:	7d 01       	movw	r14, r26

00001f70 <.Loc.104>:
    display_digits[3] = non_metal % 10;    // Units place of non_metal
    1f70:	10 ec       	ldi	r17, 0xC0	; 192

00001f72 <.L18>:
        display_start();
    1f72:	0e 94 f0 0e 	call	0x1de0	; 0x1de0 <display_start>

00001f76 <.LVL33>:
        display_sendbyte(0xC0 + i); // Address for digit i
    1f76:	81 2f       	mov	r24, r17
    1f78:	0e 94 12 0f 	call	0x1e24	; 0x1e24 <display_sendbyte>

00001f7c <.LVL34>:
        display_sendbyte(digits[display_digits[i]]);
    1f7c:	d7 01       	movw	r26, r14
    1f7e:	ed 91       	ld	r30, X+
    1f80:	fd 91       	ld	r31, X+
    1f82:	7d 01       	movw	r14, r26

00001f84 <.Loc.110>:
    1f84:	ec 5d       	subi	r30, 0xDC	; 220
    1f86:	fd 4f       	sbci	r31, 0xFD	; 253

00001f88 <.Loc.111>:
    1f88:	80 81       	ld	r24, Z
    1f8a:	0e 94 12 0f 	call	0x1e24	; 0x1e24 <display_sendbyte>

00001f8e <.LVL35>:
        display_stop();
    1f8e:	0e 94 01 0f 	call	0x1e02	; 0x1e02 <display_stop>

00001f92 <.LVL36>:
    for (int i = 0; i < 4; i++) {
    1f92:	1f 5f       	subi	r17, 0xFF	; 255
    1f94:	14 3c       	cpi	r17, 0xC4	; 196
    1f96:	69 f7       	brne	.-38     	; 0x1f72 <.L18>

00001f98 <.Loc.115>:
    }
}
    1f98:	28 96       	adiw	r28, 0x08	; 8
    1f9a:	0f b6       	in	r0, 0x3f	; 63
    1f9c:	f8 94       	cli
    1f9e:	de bf       	out	0x3e, r29	; 62
    1fa0:	0f be       	out	0x3f, r0	; 63
    1fa2:	cd bf       	out	0x3d, r28	; 61
    1fa4:	df 91       	pop	r29
    1fa6:	cf 91       	pop	r28
    1fa8:	1f 91       	pop	r17
    1faa:	0f 91       	pop	r16

00001fac <.Loc.116>:
    1fac:	ff 90       	pop	r15
    1fae:	ef 90       	pop	r14
    1fb0:	08 95       	ret

00001fb2 <.L20>:
    1fb2:	e1 2c       	mov	r14, r1
    1fb4:	f1 2c       	mov	r15, r1
    1fb6:	b6 cf       	rjmp	.-148    	; 0x1f24 <.L15>

00001fb8 <.L21>:
    1fb8:	00 e0       	ldi	r16, 0x00	; 0
    1fba:	10 e0       	ldi	r17, 0x00	; 0
    1fbc:	bd cf       	rjmp	.-134    	; 0x1f38 <.L17>

00001fbe <display_letter>:
// Write a single letter
void display_letter(unsigned int letter, unsigned char position){
    1fbe:	1f 93       	push	r17
    1fc0:	cf 93       	push	r28
    1fc2:	df 93       	push	r29
    1fc4:	c8 2f       	mov	r28, r24
    1fc6:	d9 2f       	mov	r29, r25
    1fc8:	16 2f       	mov	r17, r22

00001fca <.Loc.121>:
    display_start();
    1fca:	0e 94 f0 0e 	call	0x1de0	; 0x1de0 <display_start>

00001fce <.LVL41>:
    // Send command before writing
    display_sendbyte(0xC0 + position);
    1fce:	80 ec       	ldi	r24, 0xC0	; 192
    1fd0:	81 0f       	add	r24, r17
    1fd2:	0e 94 12 0f 	call	0x1e24	; 0x1e24 <display_sendbyte>

00001fd6 <.LVL42>:
    // Send letter
    display_sendbyte(letters[letter]);
    1fd6:	c0 5f       	subi	r28, 0xF0	; 240
    1fd8:	dd 4f       	sbci	r29, 0xFD	; 253

00001fda <.Loc.125>:
    1fda:	88 81       	ld	r24, Y
    1fdc:	0e 94 12 0f 	call	0x1e24	; 0x1e24 <display_sendbyte>

00001fe0 <.LVL43>:
    display_stop();
    1fe0:	0e 94 01 0f 	call	0x1e02	; 0x1e02 <display_stop>

00001fe4 <.LVL44>:
}
    1fe4:	df 91       	pop	r29
    1fe6:	cf 91       	pop	r28
    1fe8:	1f 91       	pop	r17

00001fea <.Loc.128>:
    1fea:	08 95       	ret

00001fec <display_init>:



// **Initialize TM1637**
void display_init(void){
    DDR_DIO |= (1<<PIN_DIO);
    1fec:	ea e0       	ldi	r30, 0x0A	; 10
    1fee:	f1 e0       	ldi	r31, 0x01	; 1
    1ff0:	80 81       	ld	r24, Z

00001ff2 <.Loc.131>:
    1ff2:	80 68       	ori	r24, 0x80	; 128
    1ff4:	80 83       	st	Z, r24

00001ff6 <.Loc.132>:
    DDR_CLK |= (1<<PIN_CLK);
    1ff6:	80 81       	ld	r24, Z

00001ff8 <.Loc.133>:
    1ff8:	80 62       	ori	r24, 0x20	; 32
    1ffa:	80 83       	st	Z, r24

00001ffc <.Loc.134>:
    PORT_DIO |= (1<<PIN_DIO);
    1ffc:	eb e0       	ldi	r30, 0x0B	; 11
    1ffe:	f1 e0       	ldi	r31, 0x01	; 1
    2000:	80 81       	ld	r24, Z

00002002 <.Loc.135>:
    2002:	80 68       	ori	r24, 0x80	; 128
    2004:	80 83       	st	Z, r24

00002006 <.Loc.136>:
    PORT_CLK |= (1<<PIN_CLK);
    2006:	80 81       	ld	r24, Z

00002008 <.Loc.137>:
    2008:	80 62       	ori	r24, 0x20	; 32
    200a:	80 83       	st	Z, r24

0000200c <.Loc.138>:
    display_brightness(NORMAL_BRIGHTNESS); // 7 is max brightness
    200c:	82 e0       	ldi	r24, 0x02	; 2
    200e:	0e 94 3a 0f 	call	0x1e74	; 0x1e74 <display_brightness>

00002012 <.LVL46>:
}
    2012:	08 95       	ret

00002014 <display_cfg>:
        display_left();
    }
}
// --- Various things to display --- //
void display_cfg(void){
    display_letter(19, 0);
    2014:	60 e0       	ldi	r22, 0x00	; 0
    2016:	83 e1       	ldi	r24, 0x13	; 19
    2018:	90 e0       	ldi	r25, 0x00	; 0
    201a:	0e 94 df 0f 	call	0x1fbe	; 0x1fbe <display_letter>

0000201e <.LVL47>:
    display_letter(3, 1);
    201e:	61 e0       	ldi	r22, 0x01	; 1
    2020:	83 e0       	ldi	r24, 0x03	; 3
    2022:	90 e0       	ldi	r25, 0x00	; 0
    2024:	0e 94 df 0f 	call	0x1fbe	; 0x1fbe <display_letter>

00002028 <.LVL48>:
    display_letter(6, 2);
    2028:	62 e0       	ldi	r22, 0x02	; 2
    202a:	86 e0       	ldi	r24, 0x06	; 6
    202c:	90 e0       	ldi	r25, 0x00	; 0
    202e:	0e 94 df 0f 	call	0x1fbe	; 0x1fbe <display_letter>

00002032 <.LVL49>:
    display_letter(7, 3);
    2032:	63 e0       	ldi	r22, 0x03	; 3
    2034:	87 e0       	ldi	r24, 0x07	; 7
    2036:	90 e0       	ldi	r25, 0x00	; 0
    2038:	0e 94 df 0f 	call	0x1fbe	; 0x1fbe <display_letter>

0000203c <.LVL50>:
}
    203c:	08 95       	ret

0000203e <display_heavy>:

void display_heavy(void){
    display_number(4);
    203e:	84 e0       	ldi	r24, 0x04	; 4
    2040:	90 e0       	ldi	r25, 0x00	; 0
    2042:	0e 94 47 0f 	call	0x1e8e	; 0x1e8e <display_number>

00002046 <.LVL51>:
    display_letter(1, 1);
    2046:	61 e0       	ldi	r22, 0x01	; 1
    2048:	81 e0       	ldi	r24, 0x01	; 1
    204a:	90 e0       	ldi	r25, 0x00	; 0
    204c:	0e 94 df 0f 	call	0x1fbe	; 0x1fbe <display_letter>

00002050 <.LVL52>:
    display_letter(5, 2);
    2050:	62 e0       	ldi	r22, 0x02	; 2
    2052:	85 e0       	ldi	r24, 0x05	; 5
    2054:	90 e0       	ldi	r25, 0x00	; 0
    2056:	0e 94 df 0f 	call	0x1fbe	; 0x1fbe <display_letter>

0000205a <.LVL53>:
    display_letter(8, 3);
    205a:	63 e0       	ldi	r22, 0x03	; 3
    205c:	88 e0       	ldi	r24, 0x08	; 8
    205e:	90 e0       	ldi	r25, 0x00	; 0
    2060:	0e 94 df 0f 	call	0x1fbe	; 0x1fbe <display_letter>

00002064 <.LVL54>:
}
    2064:	08 95       	ret

00002066 <display_light>:

void display_light(void){
    display_letter(17, 0);
    2066:	60 e0       	ldi	r22, 0x00	; 0
    2068:	81 e1       	ldi	r24, 0x11	; 17
    206a:	90 e0       	ldi	r25, 0x00	; 0
    206c:	0e 94 df 0f 	call	0x1fbe	; 0x1fbe <display_letter>

00002070 <.LVL55>:
    display_letter(8, 1);
    2070:	61 e0       	ldi	r22, 0x01	; 1
    2072:	88 e0       	ldi	r24, 0x08	; 8
    2074:	90 e0       	ldi	r25, 0x00	; 0
    2076:	0e 94 df 0f 	call	0x1fbe	; 0x1fbe <display_letter>

0000207a <.LVL56>:
    display_letter(7, 2);
    207a:	62 e0       	ldi	r22, 0x02	; 2
    207c:	87 e0       	ldi	r24, 0x07	; 7
    207e:	90 e0       	ldi	r25, 0x00	; 0
    2080:	0e 94 df 0f 	call	0x1fbe	; 0x1fbe <display_letter>

00002084 <.LVL57>:
    display_letter(11, 3);
    2084:	63 e0       	ldi	r22, 0x03	; 3
    2086:	8b e0       	ldi	r24, 0x0B	; 11
    2088:	90 e0       	ldi	r25, 0x00	; 0
    208a:	0e 94 df 0f 	call	0x1fbe	; 0x1fbe <display_letter>

0000208e <.LVL58>:
}
    208e:	08 95       	ret

00002090 <display_fol>:

void display_fol(void){
    display_letter(19, 0);
    2090:	60 e0       	ldi	r22, 0x00	; 0
    2092:	83 e1       	ldi	r24, 0x13	; 19
    2094:	90 e0       	ldi	r25, 0x00	; 0
    2096:	0e 94 df 0f 	call	0x1fbe	; 0x1fbe <display_letter>

0000209a <.LVL59>:
    display_letter(6, 1);
    209a:	61 e0       	ldi	r22, 0x01	; 1
    209c:	86 e0       	ldi	r24, 0x06	; 6
    209e:	90 e0       	ldi	r25, 0x00	; 0
    20a0:	0e 94 df 0f 	call	0x1fbe	; 0x1fbe <display_letter>

000020a4 <.LVL60>:
    display_letter(13, 2);
    20a4:	62 e0       	ldi	r22, 0x02	; 2
    20a6:	8d e0       	ldi	r24, 0x0D	; 13
    20a8:	90 e0       	ldi	r25, 0x00	; 0
    20aa:	0e 94 df 0f 	call	0x1fbe	; 0x1fbe <display_letter>

000020ae <.LVL61>:
    display_letter(11, 3);
    20ae:	63 e0       	ldi	r22, 0x03	; 3
    20b0:	8b e0       	ldi	r24, 0x0B	; 11
    20b2:	90 e0       	ldi	r25, 0x00	; 0
    20b4:	0e 94 df 0f 	call	0x1fbe	; 0x1fbe <display_letter>

000020b8 <.LVL62>:
}
    20b8:	08 95       	ret

000020ba <display_cnt>:

void display_cnt(void){
    display_letter(19, 0);
    20ba:	60 e0       	ldi	r22, 0x00	; 0
    20bc:	83 e1       	ldi	r24, 0x13	; 19
    20be:	90 e0       	ldi	r25, 0x00	; 0
    20c0:	0e 94 df 0f 	call	0x1fbe	; 0x1fbe <display_letter>

000020c4 <.LVL63>:
    display_letter(3, 1);
    20c4:	61 e0       	ldi	r22, 0x01	; 1
    20c6:	83 e0       	ldi	r24, 0x03	; 3
    20c8:	90 e0       	ldi	r25, 0x00	; 0
    20ca:	0e 94 df 0f 	call	0x1fbe	; 0x1fbe <display_letter>

000020ce <.LVL64>:
    display_letter(12, 2);
    20ce:	62 e0       	ldi	r22, 0x02	; 2
    20d0:	8c e0       	ldi	r24, 0x0C	; 12
    20d2:	90 e0       	ldi	r25, 0x00	; 0
    20d4:	0e 94 df 0f 	call	0x1fbe	; 0x1fbe <display_letter>

000020d8 <.LVL65>:
    display_letter(17, 3);
    20d8:	63 e0       	ldi	r22, 0x03	; 3
    20da:	81 e1       	ldi	r24, 0x11	; 17
    20dc:	90 e0       	ldi	r25, 0x00	; 0
    20de:	0e 94 df 0f 	call	0x1fbe	; 0x1fbe <display_letter>

000020e2 <.LVL66>:
}
    20e2:	08 95       	ret

000020e4 <display_turn>:

void display_turn(void){
    display_letter(17, 0);
    20e4:	60 e0       	ldi	r22, 0x00	; 0
    20e6:	81 e1       	ldi	r24, 0x11	; 17
    20e8:	90 e0       	ldi	r25, 0x00	; 0
    20ea:	0e 94 df 0f 	call	0x1fbe	; 0x1fbe <display_letter>

000020ee <.LVL67>:
    display_letter(18, 1);
    20ee:	61 e0       	ldi	r22, 0x01	; 1
    20f0:	82 e1       	ldi	r24, 0x12	; 18
    20f2:	90 e0       	ldi	r25, 0x00	; 0
    20f4:	0e 94 df 0f 	call	0x1fbe	; 0x1fbe <display_letter>

000020f8 <.LVL68>:
    display_letter(15, 2);
    20f8:	62 e0       	ldi	r22, 0x02	; 2
    20fa:	8f e0       	ldi	r24, 0x0F	; 15
    20fc:	90 e0       	ldi	r25, 0x00	; 0
    20fe:	0e 94 df 0f 	call	0x1fbe	; 0x1fbe <display_letter>

00002102 <.LVL69>:
    display_letter(12, 3);
    2102:	63 e0       	ldi	r22, 0x03	; 3
    2104:	8c e0       	ldi	r24, 0x0C	; 12
    2106:	90 e0       	ldi	r25, 0x00	; 0
    2108:	0e 94 df 0f 	call	0x1fbe	; 0x1fbe <display_letter>

0000210c <.LVL70>:
}
    210c:	08 95       	ret

0000210e <display_dist>:

void display_dist(void){
    display_letter(4, 0);
    210e:	60 e0       	ldi	r22, 0x00	; 0
    2110:	84 e0       	ldi	r24, 0x04	; 4
    2112:	90 e0       	ldi	r25, 0x00	; 0
    2114:	0e 94 df 0f 	call	0x1fbe	; 0x1fbe <display_letter>

00002118 <.LVL71>:
    display_letter(9, 1);
    2118:	61 e0       	ldi	r22, 0x01	; 1
    211a:	89 e0       	ldi	r24, 0x09	; 9
    211c:	90 e0       	ldi	r25, 0x00	; 0
    211e:	0e 94 df 0f 	call	0x1fbe	; 0x1fbe <display_letter>

00002122 <.LVL72>:
    display_letter(16, 2);
    2122:	62 e0       	ldi	r22, 0x02	; 2
    2124:	80 e1       	ldi	r24, 0x10	; 16
    2126:	90 e0       	ldi	r25, 0x00	; 0
    2128:	0e 94 df 0f 	call	0x1fbe	; 0x1fbe <display_letter>

0000212c <.LVL73>:
    display_letter(17, 3);
    212c:	63 e0       	ldi	r22, 0x03	; 3
    212e:	81 e1       	ldi	r24, 0x11	; 17
    2130:	90 e0       	ldi	r25, 0x00	; 0
    2132:	0e 94 df 0f 	call	0x1fbe	; 0x1fbe <display_letter>

00002136 <.LVL74>:
}
    2136:	08 95       	ret

00002138 <display_pac>:

void display_pac(void){
    display_letter(19, 0);
    2138:	60 e0       	ldi	r22, 0x00	; 0
    213a:	83 e1       	ldi	r24, 0x13	; 19
    213c:	90 e0       	ldi	r25, 0x00	; 0
    213e:	0e 94 df 0f 	call	0x1fbe	; 0x1fbe <display_letter>

00002142 <.LVL75>:
    display_letter(14, 1);
    2142:	61 e0       	ldi	r22, 0x01	; 1
    2144:	8e e0       	ldi	r24, 0x0E	; 14
    2146:	90 e0       	ldi	r25, 0x00	; 0
    2148:	0e 94 df 0f 	call	0x1fbe	; 0x1fbe <display_letter>

0000214c <.LVL76>:
    display_letter(1, 2);
    214c:	62 e0       	ldi	r22, 0x02	; 2
    214e:	81 e0       	ldi	r24, 0x01	; 1
    2150:	90 e0       	ldi	r25, 0x00	; 0
    2152:	0e 94 df 0f 	call	0x1fbe	; 0x1fbe <display_letter>

00002156 <.LVL77>:
    display_letter(3, 3);
    2156:	63 e0       	ldi	r22, 0x03	; 3
    2158:	83 e0       	ldi	r24, 0x03	; 3
    215a:	90 e0       	ldi	r25, 0x00	; 0
    215c:	0e 94 df 0f 	call	0x1fbe	; 0x1fbe <display_letter>

00002160 <.LVL78>:
}
    2160:	08 95       	ret

00002162 <display_mode>:
    if(mode){
    2162:	88 23       	and	r24, r24
    2164:	19 f0       	breq	.+6      	; 0x216c <.L33>

00002166 <.Loc.191>:
        display_fol();
    2166:	0e 94 48 10 	call	0x2090	; 0x2090 <display_fol>

0000216a <.LVL80>:
    216a:	08 95       	ret

0000216c <.L33>:
        display_pac();
    216c:	0e 94 9c 10 	call	0x2138	; 0x2138 <display_pac>

00002170 <.LVL82>:
}
    2170:	08 95       	ret

00002172 <display_left>:

void display_left(void){
    display_letter(11, 0);
    2172:	60 e0       	ldi	r22, 0x00	; 0
    2174:	8b e0       	ldi	r24, 0x0B	; 11
    2176:	90 e0       	ldi	r25, 0x00	; 0
    2178:	0e 94 df 0f 	call	0x1fbe	; 0x1fbe <display_letter>

0000217c <.LVL83>:
    display_letter(5, 1);
    217c:	61 e0       	ldi	r22, 0x01	; 1
    217e:	85 e0       	ldi	r24, 0x05	; 5
    2180:	90 e0       	ldi	r25, 0x00	; 0
    2182:	0e 94 df 0f 	call	0x1fbe	; 0x1fbe <display_letter>

00002186 <.LVL84>:
    display_letter(6, 2);
    2186:	62 e0       	ldi	r22, 0x02	; 2
    2188:	86 e0       	ldi	r24, 0x06	; 6
    218a:	90 e0       	ldi	r25, 0x00	; 0
    218c:	0e 94 df 0f 	call	0x1fbe	; 0x1fbe <display_letter>

00002190 <.LVL85>:
    display_letter(17, 3);
    2190:	63 e0       	ldi	r22, 0x03	; 3
    2192:	81 e1       	ldi	r24, 0x11	; 17
    2194:	90 e0       	ldi	r25, 0x00	; 0
    2196:	0e 94 df 0f 	call	0x1fbe	; 0x1fbe <display_letter>

0000219a <.LVL86>:
}
    219a:	08 95       	ret

0000219c <display_rght>:

void display_rght(void){
    display_letter(15, 0);
    219c:	60 e0       	ldi	r22, 0x00	; 0
    219e:	8f e0       	ldi	r24, 0x0F	; 15
    21a0:	90 e0       	ldi	r25, 0x00	; 0
    21a2:	0e 94 df 0f 	call	0x1fbe	; 0x1fbe <display_letter>

000021a6 <.LVL87>:
    display_letter(7, 1);
    21a6:	61 e0       	ldi	r22, 0x01	; 1
    21a8:	87 e0       	ldi	r24, 0x07	; 7
    21aa:	90 e0       	ldi	r25, 0x00	; 0
    21ac:	0e 94 df 0f 	call	0x1fbe	; 0x1fbe <display_letter>

000021b0 <.LVL88>:
    display_letter(8, 2);
    21b0:	62 e0       	ldi	r22, 0x02	; 2
    21b2:	88 e0       	ldi	r24, 0x08	; 8
    21b4:	90 e0       	ldi	r25, 0x00	; 0
    21b6:	0e 94 df 0f 	call	0x1fbe	; 0x1fbe <display_letter>

000021ba <.LVL89>:
    display_letter(17, 3);
    21ba:	63 e0       	ldi	r22, 0x03	; 3
    21bc:	81 e1       	ldi	r24, 0x11	; 17
    21be:	90 e0       	ldi	r25, 0x00	; 0
    21c0:	0e 94 df 0f 	call	0x1fbe	; 0x1fbe <display_letter>

000021c4 <.LVL90>:
}
    21c4:	08 95       	ret

000021c6 <display_direction>:
    if(dir){
    21c6:	88 23       	and	r24, r24
    21c8:	19 f0       	breq	.+6      	; 0x21d0 <.L38>

000021ca <.Loc.210>:
        display_rght();
    21ca:	0e 94 ce 10 	call	0x219c	; 0x219c <display_rght>

000021ce <.LVL92>:
    21ce:	08 95       	ret

000021d0 <.L38>:
        display_left();
    21d0:	0e 94 b9 10 	call	0x2172	; 0x2172 <display_left>

000021d4 <.LVL94>:
}
    21d4:	08 95       	ret

000021d6 <display_go>:

void display_go(void){
    display_letter(19, 0);
    21d6:	60 e0       	ldi	r22, 0x00	; 0
    21d8:	83 e1       	ldi	r24, 0x13	; 19
    21da:	90 e0       	ldi	r25, 0x00	; 0
    21dc:	0e 94 df 0f 	call	0x1fbe	; 0x1fbe <display_letter>

000021e0 <.LVL95>:
    display_letter(19, 1);
    21e0:	61 e0       	ldi	r22, 0x01	; 1
    21e2:	83 e1       	ldi	r24, 0x13	; 19
    21e4:	90 e0       	ldi	r25, 0x00	; 0
    21e6:	0e 94 df 0f 	call	0x1fbe	; 0x1fbe <display_letter>

000021ea <.LVL96>:
    display_letter(7, 2);
    21ea:	62 e0       	ldi	r22, 0x02	; 2
    21ec:	87 e0       	ldi	r24, 0x07	; 7
    21ee:	90 e0       	ldi	r25, 0x00	; 0
    21f0:	0e 94 df 0f 	call	0x1fbe	; 0x1fbe <display_letter>

000021f4 <.LVL97>:
    display_letter(13, 3);
    21f4:	63 e0       	ldi	r22, 0x03	; 3
    21f6:	8d e0       	ldi	r24, 0x0D	; 13
    21f8:	90 e0       	ldi	r25, 0x00	; 0
    21fa:	0e 94 df 0f 	call	0x1fbe	; 0x1fbe <display_letter>

000021fe <.LVL98>:
}
    21fe:	08 95       	ret

00002200 <display_end>:

void display_end(void){
    display_letter(19, 0);
    2200:	60 e0       	ldi	r22, 0x00	; 0
    2202:	83 e1       	ldi	r24, 0x13	; 19
    2204:	90 e0       	ldi	r25, 0x00	; 0
    2206:	0e 94 df 0f 	call	0x1fbe	; 0x1fbe <display_letter>

0000220a <.LVL99>:
    display_letter(5, 1);
    220a:	61 e0       	ldi	r22, 0x01	; 1
    220c:	85 e0       	ldi	r24, 0x05	; 5
    220e:	90 e0       	ldi	r25, 0x00	; 0
    2210:	0e 94 df 0f 	call	0x1fbe	; 0x1fbe <display_letter>

00002214 <.LVL100>:
    display_letter(12, 2);
    2214:	62 e0       	ldi	r22, 0x02	; 2
    2216:	8c e0       	ldi	r24, 0x0C	; 12
    2218:	90 e0       	ldi	r25, 0x00	; 0
    221a:	0e 94 df 0f 	call	0x1fbe	; 0x1fbe <display_letter>

0000221e <.LVL101>:
    display_letter(4, 3);
    221e:	63 e0       	ldi	r22, 0x03	; 3
    2220:	84 e0       	ldi	r24, 0x04	; 4
    2222:	90 e0       	ldi	r25, 0x00	; 0
    2224:	0e 94 df 0f 	call	0x1fbe	; 0x1fbe <display_letter>

00002228 <.LVL102>:
}
    2228:	08 95       	ret

0000222a <display_srch>:

void display_srch(void){
    display_letter(16, 0);
    222a:	60 e0       	ldi	r22, 0x00	; 0
    222c:	80 e1       	ldi	r24, 0x10	; 16
    222e:	90 e0       	ldi	r25, 0x00	; 0
    2230:	0e 94 df 0f 	call	0x1fbe	; 0x1fbe <display_letter>

00002234 <.LVL103>:
    display_letter(15, 1);
    2234:	61 e0       	ldi	r22, 0x01	; 1
    2236:	8f e0       	ldi	r24, 0x0F	; 15
    2238:	90 e0       	ldi	r25, 0x00	; 0
    223a:	0e 94 df 0f 	call	0x1fbe	; 0x1fbe <display_letter>

0000223e <.LVL104>:
    display_letter(3, 2);
    223e:	62 e0       	ldi	r22, 0x02	; 2
    2240:	83 e0       	ldi	r24, 0x03	; 3
    2242:	90 e0       	ldi	r25, 0x00	; 0
    2244:	0e 94 df 0f 	call	0x1fbe	; 0x1fbe <display_letter>

00002248 <.LVL105>:
    display_letter(8, 3);
    2248:	63 e0       	ldi	r22, 0x03	; 3
    224a:	88 e0       	ldi	r24, 0x08	; 8
    224c:	90 e0       	ldi	r25, 0x00	; 0
    224e:	0e 94 df 0f 	call	0x1fbe	; 0x1fbe <display_letter>

00002252 <.LVL106>:
}
    2252:	08 95       	ret

00002254 <display_txt_stop>:

void display_txt_stop(void){
    display_letter(16, 0);
    2254:	60 e0       	ldi	r22, 0x00	; 0
    2256:	80 e1       	ldi	r24, 0x10	; 16
    2258:	90 e0       	ldi	r25, 0x00	; 0
    225a:	0e 94 df 0f 	call	0x1fbe	; 0x1fbe <display_letter>

0000225e <.LVL107>:
    display_letter(17, 1);
    225e:	61 e0       	ldi	r22, 0x01	; 1
    2260:	81 e1       	ldi	r24, 0x11	; 17
    2262:	90 e0       	ldi	r25, 0x00	; 0
    2264:	0e 94 df 0f 	call	0x1fbe	; 0x1fbe <display_letter>

00002268 <.LVL108>:
    display_letter(13, 2);
    2268:	62 e0       	ldi	r22, 0x02	; 2
    226a:	8d e0       	ldi	r24, 0x0D	; 13
    226c:	90 e0       	ldi	r25, 0x00	; 0
    226e:	0e 94 df 0f 	call	0x1fbe	; 0x1fbe <display_letter>

00002272 <.LVL109>:
    display_letter(14, 3);
    2272:	63 e0       	ldi	r22, 0x03	; 3
    2274:	8e e0       	ldi	r24, 0x0E	; 14
    2276:	90 e0       	ldi	r25, 0x00	; 0
    2278:	0e 94 df 0f 	call	0x1fbe	; 0x1fbe <display_letter>

0000227c <.LVL110>:
}
    227c:	08 95       	ret

0000227e <__divmodhi4>:
    227e:	97 fb       	bst	r25, 7

00002280 <.Loc.1>:
    2280:	07 2e       	mov	r0, r23

00002282 <.Loc.2>:
    2282:	16 f4       	brtc	.+4      	; 0x2288 <.L^B1>

00002284 <.Loc.3>:
    2284:	00 94       	com	r0

00002286 <.Loc.4>:
    2286:	07 d0       	rcall	.+14     	; 0x2296 <__divmodhi4_neg1>

00002288 <.L^B1>:
    2288:	77 fd       	sbrc	r23, 7

0000228a <.Loc.6>:
    228a:	09 d0       	rcall	.+18     	; 0x229e <__divmodhi4_neg2>

0000228c <.Loc.7>:
    228c:	0e 94 ab 11 	call	0x2356	; 0x2356 <__udivmodhi4>

00002290 <.Loc.8>:
    2290:	07 fc       	sbrc	r0, 7

00002292 <.Loc.9>:
    2292:	05 d0       	rcall	.+10     	; 0x229e <__divmodhi4_neg2>

00002294 <.Loc.10>:
    2294:	3e f4       	brtc	.+14     	; 0x22a4 <__divmodhi4_exit>

00002296 <__divmodhi4_neg1>:
    2296:	90 95       	com	r25

00002298 <.Loc.12>:
    2298:	81 95       	neg	r24

0000229a <.Loc.13>:
    229a:	9f 4f       	sbci	r25, 0xFF	; 255

0000229c <.Loc.14>:
    229c:	08 95       	ret

0000229e <__divmodhi4_neg2>:
    229e:	70 95       	com	r23

000022a0 <.Loc.16>:
    22a0:	61 95       	neg	r22

000022a2 <.Loc.17>:
    22a2:	7f 4f       	sbci	r23, 0xFF	; 255

000022a4 <__divmodhi4_exit>:
    22a4:	08 95       	ret

000022a6 <__udivmodsi4>:
    22a6:	a1 e2       	ldi	r26, 0x21	; 33

000022a8 <.Loc.1>:
    22a8:	1a 2e       	mov	r1, r26

000022aa <.Loc.2>:
    22aa:	aa 1b       	sub	r26, r26

000022ac <.Loc.3>:
    22ac:	bb 1b       	sub	r27, r27

000022ae <.Loc.4>:
    22ae:	fd 01       	movw	r30, r26

000022b0 <.Loc.5>:
    22b0:	0d c0       	rjmp	.+26     	; 0x22cc <__udivmodsi4_ep>

000022b2 <__udivmodsi4_loop>:
    22b2:	aa 1f       	adc	r26, r26

000022b4 <.Loc.7>:
    22b4:	bb 1f       	adc	r27, r27

000022b6 <.Loc.8>:
    22b6:	ee 1f       	adc	r30, r30

000022b8 <.Loc.9>:
    22b8:	ff 1f       	adc	r31, r31

000022ba <.Loc.10>:
    22ba:	a2 17       	cp	r26, r18

000022bc <.Loc.11>:
    22bc:	b3 07       	cpc	r27, r19

000022be <.Loc.12>:
    22be:	e4 07       	cpc	r30, r20

000022c0 <.Loc.13>:
    22c0:	f5 07       	cpc	r31, r21

000022c2 <.Loc.14>:
    22c2:	20 f0       	brcs	.+8      	; 0x22cc <__udivmodsi4_ep>

000022c4 <.Loc.15>:
    22c4:	a2 1b       	sub	r26, r18

000022c6 <.Loc.16>:
    22c6:	b3 0b       	sbc	r27, r19

000022c8 <.Loc.17>:
    22c8:	e4 0b       	sbc	r30, r20

000022ca <.Loc.18>:
    22ca:	f5 0b       	sbc	r31, r21

000022cc <__udivmodsi4_ep>:
    22cc:	66 1f       	adc	r22, r22

000022ce <.Loc.20>:
    22ce:	77 1f       	adc	r23, r23

000022d0 <.Loc.21>:
    22d0:	88 1f       	adc	r24, r24

000022d2 <.Loc.22>:
    22d2:	99 1f       	adc	r25, r25

000022d4 <.Loc.23>:
    22d4:	1a 94       	dec	r1

000022d6 <.Loc.24>:
    22d6:	69 f7       	brne	.-38     	; 0x22b2 <__udivmodsi4_loop>

000022d8 <.Loc.25>:
    22d8:	60 95       	com	r22

000022da <.Loc.26>:
    22da:	70 95       	com	r23

000022dc <.Loc.27>:
    22dc:	80 95       	com	r24

000022de <.Loc.28>:
    22de:	90 95       	com	r25

000022e0 <.Loc.29>:
    22e0:	9b 01       	movw	r18, r22

000022e2 <.Loc.30>:
    22e2:	ac 01       	movw	r20, r24

000022e4 <.Loc.31>:
    22e4:	bd 01       	movw	r22, r26

000022e6 <.Loc.32>:
    22e6:	cf 01       	movw	r24, r30

000022e8 <.Loc.33>:
    22e8:	08 95       	ret

000022ea <__divmodsi4>:
    22ea:	05 2e       	mov	r0, r21

000022ec <.Loc.1>:
    22ec:	97 fb       	bst	r25, 7

000022ee <.Loc.2>:
    22ee:	1e f4       	brtc	.+6      	; 0x22f6 <.L^B1>

000022f0 <.Loc.3>:
    22f0:	00 94       	com	r0

000022f2 <.Loc.4>:
    22f2:	0e 94 8c 11 	call	0x2318	; 0x2318 <__negsi2>

000022f6 <.L^B1>:
    22f6:	57 fd       	sbrc	r21, 7

000022f8 <.Loc.6>:
    22f8:	07 d0       	rcall	.+14     	; 0x2308 <__divmodsi4_neg2>

000022fa <.Loc.7>:
    22fa:	0e 94 53 11 	call	0x22a6	; 0x22a6 <__udivmodsi4>

000022fe <.Loc.8>:
    22fe:	07 fc       	sbrc	r0, 7

00002300 <.Loc.9>:
    2300:	03 d0       	rcall	.+6      	; 0x2308 <__divmodsi4_neg2>

00002302 <.Loc.10>:
    2302:	4e f4       	brtc	.+18     	; 0x2316 <__divmodsi4_exit>

00002304 <.Loc.11>:
    2304:	0c 94 8c 11 	jmp	0x2318	; 0x2318 <__negsi2>

00002308 <__divmodsi4_neg2>:
    2308:	50 95       	com	r21

0000230a <.Loc.13>:
    230a:	40 95       	com	r20

0000230c <.Loc.14>:
    230c:	30 95       	com	r19

0000230e <.Loc.15>:
    230e:	21 95       	neg	r18

00002310 <.Loc.16>:
    2310:	3f 4f       	sbci	r19, 0xFF	; 255

00002312 <.Loc.17>:
    2312:	4f 4f       	sbci	r20, 0xFF	; 255

00002314 <.Loc.18>:
    2314:	5f 4f       	sbci	r21, 0xFF	; 255

00002316 <__divmodsi4_exit>:
    2316:	08 95       	ret

00002318 <__negsi2>:
    2318:	90 95       	com	r25
    231a:	80 95       	com	r24
    231c:	70 95       	com	r23
    231e:	61 95       	neg	r22
    2320:	7f 4f       	sbci	r23, 0xFF	; 255
    2322:	8f 4f       	sbci	r24, 0xFF	; 255
    2324:	9f 4f       	sbci	r25, 0xFF	; 255

00002326 <.Loc.1>:
    2326:	08 95       	ret

00002328 <__tablejump2__>:
    2328:	ee 0f       	add	r30, r30

0000232a <.Loc.1>:
    232a:	ff 1f       	adc	r31, r31

0000232c <.Loc.2>:
    232c:	88 1f       	adc	r24, r24

0000232e <.Loc.3>:
    232e:	8b bf       	out	0x3b, r24	; 59

00002330 <.Loc.4>:
    2330:	07 90       	elpm	r0, Z+

00002332 <.Loc.5>:
    2332:	f6 91       	elpm	r31, Z

00002334 <.Loc.6>:
    2334:	e0 2d       	mov	r30, r0

00002336 <.Loc.7>:
    2336:	19 94       	eijmp

00002338 <__umulhisi3>:
    2338:	a2 9f       	mul	r26, r18

0000233a <.Loc.1>:
    233a:	b0 01       	movw	r22, r0

0000233c <.Loc.2>:
    233c:	b3 9f       	mul	r27, r19

0000233e <.Loc.3>:
    233e:	c0 01       	movw	r24, r0

00002340 <.Loc.4>:
    2340:	a3 9f       	mul	r26, r19

00002342 <.Loc.5>:
    2342:	70 0d       	add	r23, r0

00002344 <.Loc.6>:
    2344:	81 1d       	adc	r24, r1

00002346 <.Loc.7>:
    2346:	11 24       	eor	r1, r1

00002348 <.Loc.8>:
    2348:	91 1d       	adc	r25, r1

0000234a <.Loc.9>:
    234a:	b2 9f       	mul	r27, r18

0000234c <.Loc.10>:
    234c:	70 0d       	add	r23, r0

0000234e <.Loc.11>:
    234e:	81 1d       	adc	r24, r1

00002350 <.Loc.12>:
    2350:	11 24       	eor	r1, r1

00002352 <.Loc.13>:
    2352:	91 1d       	adc	r25, r1

00002354 <.Loc.14>:
    2354:	08 95       	ret

00002356 <__udivmodhi4>:
    2356:	aa 1b       	sub	r26, r26

00002358 <.Loc.1>:
    2358:	bb 1b       	sub	r27, r27

0000235a <.Loc.2>:
    235a:	51 e1       	ldi	r21, 0x11	; 17

0000235c <.Loc.3>:
    235c:	07 c0       	rjmp	.+14     	; 0x236c <__udivmodhi4_ep>

0000235e <__udivmodhi4_loop>:
    235e:	aa 1f       	adc	r26, r26

00002360 <.Loc.5>:
    2360:	bb 1f       	adc	r27, r27

00002362 <.Loc.6>:
    2362:	a6 17       	cp	r26, r22

00002364 <.Loc.7>:
    2364:	b7 07       	cpc	r27, r23

00002366 <.Loc.8>:
    2366:	10 f0       	brcs	.+4      	; 0x236c <__udivmodhi4_ep>

00002368 <.Loc.9>:
    2368:	a6 1b       	sub	r26, r22

0000236a <.Loc.10>:
    236a:	b7 0b       	sbc	r27, r23

0000236c <__udivmodhi4_ep>:
    236c:	88 1f       	adc	r24, r24

0000236e <.Loc.12>:
    236e:	99 1f       	adc	r25, r25

00002370 <.Loc.13>:
    2370:	5a 95       	dec	r21

00002372 <.Loc.14>:
    2372:	a9 f7       	brne	.-22     	; 0x235e <__udivmodhi4_loop>

00002374 <.Loc.15>:
    2374:	80 95       	com	r24

00002376 <.Loc.16>:
    2376:	90 95       	com	r25

00002378 <.Loc.17>:
    2378:	bc 01       	movw	r22, r24

0000237a <.Loc.18>:
    237a:	cd 01       	movw	r24, r26

0000237c <.Loc.19>:
    237c:	08 95       	ret

0000237e <__fixsfsi>:
    237e:	0e 94 c6 11 	call	0x238c	; 0x238c <__fixunssfsi>
    2382:	68 94       	set
    2384:	b1 11       	cpse	r27, r1
    2386:	0c 94 55 12 	jmp	0x24aa	; 0x24aa <__fp_szero>
    238a:	08 95       	ret

0000238c <__fixunssfsi>:
    238c:	0e 94 3a 12 	call	0x2474	; 0x2474 <__fp_splitA>
    2390:	88 f0       	brcs	.+34     	; 0x23b4 <.L_err>
    2392:	9f 57       	subi	r25, 0x7F	; 127
    2394:	98 f0       	brcs	.+38     	; 0x23bc <.L_zr>
    2396:	b9 2f       	mov	r27, r25
    2398:	99 27       	eor	r25, r25
    239a:	b7 51       	subi	r27, 0x17	; 23
    239c:	b0 f0       	brcs	.+44     	; 0x23ca <.L4^B1>
    239e:	e1 f0       	breq	.+56     	; 0x23d8 <.L_sign>

000023a0 <.L1^B1>:
    23a0:	66 0f       	add	r22, r22
    23a2:	77 1f       	adc	r23, r23
    23a4:	88 1f       	adc	r24, r24
    23a6:	99 1f       	adc	r25, r25
    23a8:	1a f0       	brmi	.+6      	; 0x23b0 <.L2^B1>
    23aa:	ba 95       	dec	r27
    23ac:	c9 f7       	brne	.-14     	; 0x23a0 <.L1^B1>
    23ae:	14 c0       	rjmp	.+40     	; 0x23d8 <.L_sign>

000023b0 <.L2^B1>:
    23b0:	b1 30       	cpi	r27, 0x01	; 1
    23b2:	91 f0       	breq	.+36     	; 0x23d8 <.L_sign>

000023b4 <.L_err>:
    23b4:	0e 94 54 12 	call	0x24a8	; 0x24a8 <__fp_zero>
    23b8:	b1 e0       	ldi	r27, 0x01	; 1
    23ba:	08 95       	ret

000023bc <.L_zr>:
    23bc:	0c 94 54 12 	jmp	0x24a8	; 0x24a8 <__fp_zero>

000023c0 <.L3^B1>:
    23c0:	67 2f       	mov	r22, r23
    23c2:	78 2f       	mov	r23, r24
    23c4:	88 27       	eor	r24, r24
    23c6:	b8 5f       	subi	r27, 0xF8	; 248
    23c8:	39 f0       	breq	.+14     	; 0x23d8 <.L_sign>

000023ca <.L4^B1>:
    23ca:	b9 3f       	cpi	r27, 0xF9	; 249
    23cc:	cc f3       	brlt	.-14     	; 0x23c0 <.L3^B1>

000023ce <.L5^B1>:
    23ce:	86 95       	lsr	r24
    23d0:	77 95       	ror	r23
    23d2:	67 95       	ror	r22
    23d4:	b3 95       	inc	r27
    23d6:	d9 f7       	brne	.-10     	; 0x23ce <.L5^B1>

000023d8 <.L_sign>:
    23d8:	3e f4       	brtc	.+14     	; 0x23e8 <.L6^B1>
    23da:	90 95       	com	r25
    23dc:	80 95       	com	r24
    23de:	70 95       	com	r23
    23e0:	61 95       	neg	r22
    23e2:	7f 4f       	sbci	r23, 0xFF	; 255
    23e4:	8f 4f       	sbci	r24, 0xFF	; 255
    23e6:	9f 4f       	sbci	r25, 0xFF	; 255

000023e8 <.L6^B1>:
    23e8:	08 95       	ret

000023ea <__floatunsisf>:
    23ea:	e8 94       	clt
    23ec:	09 c0       	rjmp	.+18     	; 0x2400 <.L1^B1>

000023ee <__floatsisf>:
    23ee:	97 fb       	bst	r25, 7
    23f0:	3e f4       	brtc	.+14     	; 0x2400 <.L1^B1>
    23f2:	90 95       	com	r25
    23f4:	80 95       	com	r24
    23f6:	70 95       	com	r23
    23f8:	61 95       	neg	r22
    23fa:	7f 4f       	sbci	r23, 0xFF	; 255
    23fc:	8f 4f       	sbci	r24, 0xFF	; 255
    23fe:	9f 4f       	sbci	r25, 0xFF	; 255

00002400 <.L1^B1>:
    2400:	99 23       	and	r25, r25
    2402:	a9 f0       	breq	.+42     	; 0x242e <.L4^B1>
    2404:	f9 2f       	mov	r31, r25
    2406:	96 e9       	ldi	r25, 0x96	; 150
    2408:	bb 27       	eor	r27, r27

0000240a <.L2^B1>:
    240a:	93 95       	inc	r25
    240c:	f6 95       	lsr	r31
    240e:	87 95       	ror	r24
    2410:	77 95       	ror	r23
    2412:	67 95       	ror	r22
    2414:	b7 95       	ror	r27
    2416:	f1 11       	cpse	r31, r1
    2418:	f8 cf       	rjmp	.-16     	; 0x240a <.L2^B1>
    241a:	fa f4       	brpl	.+62     	; 0x245a <.L_pack>
    241c:	bb 0f       	add	r27, r27
    241e:	11 f4       	brne	.+4      	; 0x2424 <.L3^B1>
    2420:	60 ff       	sbrs	r22, 0
    2422:	1b c0       	rjmp	.+54     	; 0x245a <.L_pack>

00002424 <.L3^B1>:
    2424:	6f 5f       	subi	r22, 0xFF	; 255
    2426:	7f 4f       	sbci	r23, 0xFF	; 255
    2428:	8f 4f       	sbci	r24, 0xFF	; 255
    242a:	9f 4f       	sbci	r25, 0xFF	; 255
    242c:	16 c0       	rjmp	.+44     	; 0x245a <.L_pack>

0000242e <.L4^B1>:
    242e:	88 23       	and	r24, r24
    2430:	11 f0       	breq	.+4      	; 0x2436 <.L5^B1>
    2432:	96 e9       	ldi	r25, 0x96	; 150
    2434:	11 c0       	rjmp	.+34     	; 0x2458 <.L8^B1>

00002436 <.L5^B1>:
    2436:	77 23       	and	r23, r23
    2438:	21 f0       	breq	.+8      	; 0x2442 <.L6^B1>
    243a:	9e e8       	ldi	r25, 0x8E	; 142
    243c:	87 2f       	mov	r24, r23
    243e:	76 2f       	mov	r23, r22
    2440:	05 c0       	rjmp	.+10     	; 0x244c <.L7^B1>

00002442 <.L6^B1>:
    2442:	66 23       	and	r22, r22
    2444:	71 f0       	breq	.+28     	; 0x2462 <.L9^B1>
    2446:	96 e8       	ldi	r25, 0x86	; 134
    2448:	86 2f       	mov	r24, r22
    244a:	70 e0       	ldi	r23, 0x00	; 0

0000244c <.L7^B1>:
    244c:	60 e0       	ldi	r22, 0x00	; 0
    244e:	2a f0       	brmi	.+10     	; 0x245a <.L_pack>

00002450 <.L10^B1>:
    2450:	9a 95       	dec	r25
    2452:	66 0f       	add	r22, r22
    2454:	77 1f       	adc	r23, r23
    2456:	88 1f       	adc	r24, r24

00002458 <.L8^B1>:
    2458:	da f7       	brpl	.-10     	; 0x2450 <.L10^B1>

0000245a <.L_pack>:
    245a:	88 0f       	add	r24, r24
    245c:	96 95       	lsr	r25
    245e:	87 95       	ror	r24
    2460:	97 f9       	bld	r25, 7

00002462 <.L9^B1>:
    2462:	08 95       	ret

00002464 <__fp_split3>:
    2464:	57 fd       	sbrc	r21, 7
    2466:	90 58       	subi	r25, 0x80	; 128
    2468:	44 0f       	add	r20, r20
    246a:	55 1f       	adc	r21, r21
    246c:	59 f0       	breq	.+22     	; 0x2484 <.L4^B1>
    246e:	5f 3f       	cpi	r21, 0xFF	; 255
    2470:	71 f0       	breq	.+28     	; 0x248e <.L5^B1>

00002472 <.L1^B1>:
    2472:	47 95       	ror	r20

00002474 <__fp_splitA>:
    2474:	88 0f       	add	r24, r24
    2476:	97 fb       	bst	r25, 7
    2478:	99 1f       	adc	r25, r25
    247a:	61 f0       	breq	.+24     	; 0x2494 <.L6^B1>
    247c:	9f 3f       	cpi	r25, 0xFF	; 255
    247e:	79 f0       	breq	.+30     	; 0x249e <.L7^B1>

00002480 <.L3^B1>:
    2480:	87 95       	ror	r24
    2482:	08 95       	ret

00002484 <.L4^B1>:
    2484:	12 16       	cp	r1, r18
    2486:	13 06       	cpc	r1, r19
    2488:	14 06       	cpc	r1, r20
    248a:	55 1f       	adc	r21, r21
    248c:	f2 cf       	rjmp	.-28     	; 0x2472 <.L1^B1>

0000248e <.L5^B1>:
    248e:	46 95       	lsr	r20
    2490:	f1 df       	rcall	.-30     	; 0x2474 <__fp_splitA>
    2492:	08 c0       	rjmp	.+16     	; 0x24a4 <.L8^B1>

00002494 <.L6^B1>:
    2494:	16 16       	cp	r1, r22
    2496:	17 06       	cpc	r1, r23
    2498:	18 06       	cpc	r1, r24
    249a:	99 1f       	adc	r25, r25
    249c:	f1 cf       	rjmp	.-30     	; 0x2480 <.L3^B1>

0000249e <.L7^B1>:
    249e:	86 95       	lsr	r24
    24a0:	71 05       	cpc	r23, r1
    24a2:	61 05       	cpc	r22, r1

000024a4 <.L8^B1>:
    24a4:	08 94       	sec
    24a6:	08 95       	ret

000024a8 <__fp_zero>:
    24a8:	e8 94       	clt

000024aa <__fp_szero>:
    24aa:	bb 27       	eor	r27, r27
    24ac:	66 27       	eor	r22, r22
    24ae:	77 27       	eor	r23, r23
    24b0:	cb 01       	movw	r24, r22
    24b2:	97 f9       	bld	r25, 7
    24b4:	08 95       	ret

000024b6 <__mulsf3>:
    24b6:	0e 94 6e 12 	call	0x24dc	; 0x24dc <__mulsf3x>
    24ba:	0c 94 df 12 	jmp	0x25be	; 0x25be <__fp_round>

000024be <.L^B1>:
    24be:	0e 94 d1 12 	call	0x25a2	; 0x25a2 <__fp_pscA>
    24c2:	38 f0       	brcs	.+14     	; 0x24d2 <.L1^B1>
    24c4:	0e 94 d8 12 	call	0x25b0	; 0x25b0 <__fp_pscB>
    24c8:	20 f0       	brcs	.+8      	; 0x24d2 <.L1^B1>
    24ca:	95 23       	and	r25, r21
    24cc:	11 f0       	breq	.+4      	; 0x24d2 <.L1^B1>
    24ce:	0c 94 c8 12 	jmp	0x2590	; 0x2590 <__fp_inf>

000024d2 <.L1^B1>:
    24d2:	0c 94 ce 12 	jmp	0x259c	; 0x259c <__fp_nan>

000024d6 <.L2^B1>:
    24d6:	11 24       	eor	r1, r1
    24d8:	0c 94 55 12 	jmp	0x24aa	; 0x24aa <__fp_szero>

000024dc <__mulsf3x>:
    24dc:	0e 94 32 12 	call	0x2464	; 0x2464 <__fp_split3>
    24e0:	70 f3       	brcs	.-36     	; 0x24be <.L^B1>

000024e2 <__mulsf3_pse>:
    24e2:	95 9f       	mul	r25, r21
    24e4:	c1 f3       	breq	.-16     	; 0x24d6 <.L2^B1>
    24e6:	95 0f       	add	r25, r21
    24e8:	50 e0       	ldi	r21, 0x00	; 0
    24ea:	55 1f       	adc	r21, r21
    24ec:	62 9f       	mul	r22, r18
    24ee:	f0 01       	movw	r30, r0
    24f0:	72 9f       	mul	r23, r18
    24f2:	bb 27       	eor	r27, r27
    24f4:	f0 0d       	add	r31, r0
    24f6:	b1 1d       	adc	r27, r1
    24f8:	63 9f       	mul	r22, r19
    24fa:	aa 27       	eor	r26, r26
    24fc:	f0 0d       	add	r31, r0
    24fe:	b1 1d       	adc	r27, r1
    2500:	aa 1f       	adc	r26, r26
    2502:	64 9f       	mul	r22, r20
    2504:	66 27       	eor	r22, r22
    2506:	b0 0d       	add	r27, r0
    2508:	a1 1d       	adc	r26, r1
    250a:	66 1f       	adc	r22, r22
    250c:	82 9f       	mul	r24, r18
    250e:	22 27       	eor	r18, r18
    2510:	b0 0d       	add	r27, r0
    2512:	a1 1d       	adc	r26, r1
    2514:	62 1f       	adc	r22, r18
    2516:	73 9f       	mul	r23, r19
    2518:	b0 0d       	add	r27, r0
    251a:	a1 1d       	adc	r26, r1
    251c:	62 1f       	adc	r22, r18
    251e:	83 9f       	mul	r24, r19
    2520:	a0 0d       	add	r26, r0
    2522:	61 1d       	adc	r22, r1
    2524:	22 1f       	adc	r18, r18
    2526:	74 9f       	mul	r23, r20
    2528:	33 27       	eor	r19, r19
    252a:	a0 0d       	add	r26, r0
    252c:	61 1d       	adc	r22, r1
    252e:	23 1f       	adc	r18, r19
    2530:	84 9f       	mul	r24, r20
    2532:	60 0d       	add	r22, r0
    2534:	21 1d       	adc	r18, r1
    2536:	82 2f       	mov	r24, r18
    2538:	76 2f       	mov	r23, r22
    253a:	6a 2f       	mov	r22, r26
    253c:	11 24       	eor	r1, r1
    253e:	9f 57       	subi	r25, 0x7F	; 127
    2540:	50 40       	sbci	r21, 0x00	; 0
    2542:	9a f0       	brmi	.+38     	; 0x256a <.L13^B1>
    2544:	f1 f0       	breq	.+60     	; 0x2582 <.L15^B1>

00002546 <.L10^B1>:
    2546:	88 23       	and	r24, r24
    2548:	4a f0       	brmi	.+18     	; 0x255c <.L11^B1>
    254a:	ee 0f       	add	r30, r30
    254c:	ff 1f       	adc	r31, r31
    254e:	bb 1f       	adc	r27, r27
    2550:	66 1f       	adc	r22, r22
    2552:	77 1f       	adc	r23, r23
    2554:	88 1f       	adc	r24, r24
    2556:	91 50       	subi	r25, 0x01	; 1
    2558:	50 40       	sbci	r21, 0x00	; 0
    255a:	a9 f7       	brne	.-22     	; 0x2546 <.L10^B1>

0000255c <.L11^B1>:
    255c:	9e 3f       	cpi	r25, 0xFE	; 254
    255e:	51 05       	cpc	r21, r1
    2560:	80 f0       	brcs	.+32     	; 0x2582 <.L15^B1>
    2562:	0c 94 c8 12 	jmp	0x2590	; 0x2590 <__fp_inf>

00002566 <.L12^B1>:
    2566:	0c 94 55 12 	jmp	0x24aa	; 0x24aa <__fp_szero>

0000256a <.L13^B1>:
    256a:	5f 3f       	cpi	r21, 0xFF	; 255
    256c:	e4 f3       	brlt	.-8      	; 0x2566 <.L12^B1>
    256e:	98 3e       	cpi	r25, 0xE8	; 232
    2570:	d4 f3       	brlt	.-12     	; 0x2566 <.L12^B1>

00002572 <.L14^B1>:
    2572:	86 95       	lsr	r24
    2574:	77 95       	ror	r23
    2576:	67 95       	ror	r22
    2578:	b7 95       	ror	r27
    257a:	f7 95       	ror	r31
    257c:	e7 95       	ror	r30
    257e:	9f 5f       	subi	r25, 0xFF	; 255
    2580:	c1 f7       	brne	.-16     	; 0x2572 <.L14^B1>

00002582 <.L15^B1>:
    2582:	fe 2b       	or	r31, r30
    2584:	88 0f       	add	r24, r24
    2586:	91 1d       	adc	r25, r1
    2588:	96 95       	lsr	r25
    258a:	87 95       	ror	r24
    258c:	97 f9       	bld	r25, 7
    258e:	08 95       	ret

00002590 <__fp_inf>:
    2590:	97 f9       	bld	r25, 7
    2592:	9f 67       	ori	r25, 0x7F	; 127
    2594:	80 e8       	ldi	r24, 0x80	; 128
    2596:	70 e0       	ldi	r23, 0x00	; 0
    2598:	60 e0       	ldi	r22, 0x00	; 0
    259a:	08 95       	ret

0000259c <__fp_nan>:
    259c:	9f ef       	ldi	r25, 0xFF	; 255
    259e:	80 ec       	ldi	r24, 0xC0	; 192
    25a0:	08 95       	ret

000025a2 <__fp_pscA>:
    25a2:	00 24       	eor	r0, r0
    25a4:	0a 94       	dec	r0
    25a6:	16 16       	cp	r1, r22
    25a8:	17 06       	cpc	r1, r23
    25aa:	18 06       	cpc	r1, r24
    25ac:	09 06       	cpc	r0, r25
    25ae:	08 95       	ret

000025b0 <__fp_pscB>:
    25b0:	00 24       	eor	r0, r0
    25b2:	0a 94       	dec	r0
    25b4:	12 16       	cp	r1, r18
    25b6:	13 06       	cpc	r1, r19
    25b8:	14 06       	cpc	r1, r20
    25ba:	05 06       	cpc	r0, r21
    25bc:	08 95       	ret

000025be <__fp_round>:
    25be:	09 2e       	mov	r0, r25
    25c0:	03 94       	inc	r0
    25c2:	00 0c       	add	r0, r0
    25c4:	11 f4       	brne	.+4      	; 0x25ca <.L1^B1>
    25c6:	88 23       	and	r24, r24
    25c8:	52 f0       	brmi	.+20     	; 0x25de <.L3^B1>

000025ca <.L1^B1>:
    25ca:	bb 0f       	add	r27, r27
    25cc:	40 f4       	brcc	.+16     	; 0x25de <.L3^B1>
    25ce:	bf 2b       	or	r27, r31
    25d0:	11 f4       	brne	.+4      	; 0x25d6 <.L2^B1>
    25d2:	60 ff       	sbrs	r22, 0
    25d4:	04 c0       	rjmp	.+8      	; 0x25de <.L3^B1>

000025d6 <.L2^B1>:
    25d6:	6f 5f       	subi	r22, 0xFF	; 255
    25d8:	7f 4f       	sbci	r23, 0xFF	; 255
    25da:	8f 4f       	sbci	r24, 0xFF	; 255
    25dc:	9f 4f       	sbci	r25, 0xFF	; 255

000025de <.L3^B1>:
    25de:	08 95       	ret

000025e0 <_exit>:
    25e0:	f8 94       	cli

000025e2 <__stop_program>:
    25e2:	ff cf       	rjmp	.-2      	; 0x25e2 <__stop_program>

000025e4 <L0^A>:
    25e4:	bf 02       	muls	r27, r31
    25e6:	c5 02       	muls	r28, r21
    25e8:	cb 02       	muls	r28, r27
    25ea:	d1 02       	muls	r29, r17
    25ec:	d7 02       	muls	r29, r23
    25ee:	dd 02       	muls	r29, r29
    25f0:	e3 02       	muls	r30, r19
    25f2:	e9 02       	muls	r30, r25
    25f4:	ef 02       	muls	r30, r31

000025f6 <.L41>:
    25f6:	aa 09       	sbc	r26, r10
    25f8:	b6 09       	sbc	r27, r6
    25fa:	c2 09       	sbc	r28, r2
    25fc:	ce 09       	sbc	r28, r14
    25fe:	da 09       	sbc	r29, r10
    2600:	e6 09       	sbc	r30, r6
    2602:	f2 09       	sbc	r31, r2
    2604:	fe 09       	sbc	r31, r14
    2606:	0a 0a       	sbc	r0, r26
    2608:	16 0a       	sbc	r1, r22
    260a:	22 0a       	sbc	r2, r18
    260c:	2e 0a       	sbc	r2, r30
    260e:	3a 0a       	sbc	r3, r26
    2610:	46 0a       	sbc	r4, r22
    2612:	52 0a       	sbc	r5, r18
