
bin\Debug\Bibo.elf:     file format elf32-avr

Sections:
Idx Name          Size      VMA       LMA       File off  Algn
  0 .data         00000072  00800200  00001792  00001846  2**0
                  CONTENTS, ALLOC, LOAD, DATA
  1 .text         00001792  00000000  00000000  000000b4  2**1
                  CONTENTS, ALLOC, LOAD, READONLY, CODE
  2 .bss          0000000c  00800272  00800272  000018b8  2**0
                  ALLOC
  3 .fuse         00000003  00820000  00820000  000018b8  2**0
                  CONTENTS, ALLOC, LOAD, DATA
  4 .comment      00000012  00000000  00000000  000018bb  2**0
                  CONTENTS, READONLY
  5 .note.gnu.avr.deviceinfo 00000040  00000000  00000000  000018d0  2**2
                  CONTENTS, READONLY, OCTETS
  6 .debug_aranges 00000218  00000000  00000000  00001910  2**3
                  CONTENTS, READONLY, DEBUGGING, OCTETS
  7 .debug_info   0000383a  00000000  00000000  00001b28  2**0
                  CONTENTS, READONLY, DEBUGGING, OCTETS
  8 .debug_abbrev 00001761  00000000  00000000  00005362  2**0
                  CONTENTS, READONLY, DEBUGGING, OCTETS
  9 .debug_line   000030ae  00000000  00000000  00006ac3  2**0
                  CONTENTS, READONLY, DEBUGGING, OCTETS
 10 .debug_frame  000006d8  00000000  00000000  00009b74  2**2
                  CONTENTS, READONLY, DEBUGGING, OCTETS
 11 .debug_str    00000b51  00000000  00000000  0000a24c  2**0
                  CONTENTS, READONLY, DEBUGGING, OCTETS
 12 .debug_line_str 000002c6  00000000  00000000  0000ad9d  2**0
                  CONTENTS, READONLY, DEBUGGING, OCTETS
 13 .debug_loclists 00000b0a  00000000  00000000  0000b063  2**0
                  CONTENTS, READONLY, DEBUGGING, OCTETS
 14 .debug_rnglists 00000060  00000000  00000000  0000bb6d  2**0
                  CONTENTS, READONLY, DEBUGGING, OCTETS

Disassembly of section .text:

00000000 <__vectors>:
       0:	0c 94 a2 00 	jmp	0x144	; 0x144 <__ctors_end>
       4:	0c 94 8d 01 	jmp	0x31a	; 0x31a <__vector_1>
       8:	0c 94 c3 00 	jmp	0x186	; 0x186 <__bad_interrupt>
       c:	0c 94 c3 00 	jmp	0x186	; 0x186 <__bad_interrupt>
      10:	0c 94 c3 00 	jmp	0x186	; 0x186 <__bad_interrupt>
      14:	0c 94 c3 00 	jmp	0x186	; 0x186 <__bad_interrupt>
      18:	0c 94 c3 00 	jmp	0x186	; 0x186 <__bad_interrupt>
      1c:	0c 94 c3 00 	jmp	0x186	; 0x186 <__bad_interrupt>
      20:	0c 94 c3 00 	jmp	0x186	; 0x186 <__bad_interrupt>
      24:	0c 94 c3 00 	jmp	0x186	; 0x186 <__bad_interrupt>
      28:	0c 94 c3 00 	jmp	0x186	; 0x186 <__bad_interrupt>
      2c:	0c 94 c3 00 	jmp	0x186	; 0x186 <__bad_interrupt>
      30:	0c 94 c3 00 	jmp	0x186	; 0x186 <__bad_interrupt>
      34:	0c 94 c3 00 	jmp	0x186	; 0x186 <__bad_interrupt>
      38:	0c 94 c3 00 	jmp	0x186	; 0x186 <__bad_interrupt>
      3c:	0c 94 c3 00 	jmp	0x186	; 0x186 <__bad_interrupt>
      40:	0c 94 c3 00 	jmp	0x186	; 0x186 <__bad_interrupt>
      44:	0c 94 c3 00 	jmp	0x186	; 0x186 <__bad_interrupt>
      48:	0c 94 c3 00 	jmp	0x186	; 0x186 <__bad_interrupt>
      4c:	0c 94 c3 00 	jmp	0x186	; 0x186 <__bad_interrupt>
      50:	0c 94 c3 00 	jmp	0x186	; 0x186 <__bad_interrupt>
      54:	0c 94 c3 00 	jmp	0x186	; 0x186 <__bad_interrupt>
      58:	0c 94 c3 00 	jmp	0x186	; 0x186 <__bad_interrupt>
      5c:	0c 94 c3 00 	jmp	0x186	; 0x186 <__bad_interrupt>
      60:	0c 94 c3 00 	jmp	0x186	; 0x186 <__bad_interrupt>
      64:	0c 94 c3 00 	jmp	0x186	; 0x186 <__bad_interrupt>
      68:	0c 94 c3 00 	jmp	0x186	; 0x186 <__bad_interrupt>
      6c:	0c 94 c3 00 	jmp	0x186	; 0x186 <__bad_interrupt>
      70:	0c 94 c3 00 	jmp	0x186	; 0x186 <__bad_interrupt>
      74:	0c 94 c3 00 	jmp	0x186	; 0x186 <__bad_interrupt>
      78:	0c 94 c3 00 	jmp	0x186	; 0x186 <__bad_interrupt>
      7c:	0c 94 c3 00 	jmp	0x186	; 0x186 <__bad_interrupt>
      80:	0c 94 c3 00 	jmp	0x186	; 0x186 <__bad_interrupt>
      84:	0c 94 c3 00 	jmp	0x186	; 0x186 <__bad_interrupt>
      88:	0c 94 c3 00 	jmp	0x186	; 0x186 <__bad_interrupt>
      8c:	0c 94 c3 00 	jmp	0x186	; 0x186 <__bad_interrupt>
      90:	0c 94 c3 00 	jmp	0x186	; 0x186 <__bad_interrupt>
      94:	0c 94 c3 00 	jmp	0x186	; 0x186 <__bad_interrupt>
      98:	0c 94 c3 00 	jmp	0x186	; 0x186 <__bad_interrupt>
      9c:	0c 94 c3 00 	jmp	0x186	; 0x186 <__bad_interrupt>
      a0:	0c 94 c3 00 	jmp	0x186	; 0x186 <__bad_interrupt>
      a4:	0c 94 c3 00 	jmp	0x186	; 0x186 <__bad_interrupt>
      a8:	0c 94 c3 00 	jmp	0x186	; 0x186 <__bad_interrupt>
      ac:	0c 94 c3 00 	jmp	0x186	; 0x186 <__bad_interrupt>
      b0:	0c 94 c3 00 	jmp	0x186	; 0x186 <__bad_interrupt>
      b4:	0c 94 c3 00 	jmp	0x186	; 0x186 <__bad_interrupt>
      b8:	0c 94 c3 00 	jmp	0x186	; 0x186 <__bad_interrupt>
      bc:	0c 94 c3 00 	jmp	0x186	; 0x186 <__bad_interrupt>
      c0:	0c 94 c3 00 	jmp	0x186	; 0x186 <__bad_interrupt>
      c4:	0c 94 c3 00 	jmp	0x186	; 0x186 <__bad_interrupt>
      c8:	0c 94 c3 00 	jmp	0x186	; 0x186 <__bad_interrupt>
      cc:	0c 94 c3 00 	jmp	0x186	; 0x186 <__bad_interrupt>
      d0:	0c 94 c3 00 	jmp	0x186	; 0x186 <__bad_interrupt>
      d4:	0c 94 c3 00 	jmp	0x186	; 0x186 <__bad_interrupt>
      d8:	0c 94 c3 00 	jmp	0x186	; 0x186 <__bad_interrupt>
      dc:	0c 94 c3 00 	jmp	0x186	; 0x186 <__bad_interrupt>
      e0:	0c 94 c3 00 	jmp	0x186	; 0x186 <__bad_interrupt>

000000e4 <__trampolines_start>:
      e4:	0c 94 e3 02 	jmp	0x5c6	; 0x5c6 <.L28>
      e8:	0c 94 b0 06 	jmp	0xd60	; 0xd60 <.L49>
      ec:	0c 94 bc 06 	jmp	0xd78	; 0xd78 <.L48>
      f0:	0c 94 cb 02 	jmp	0x596	; 0x596 <.L32>
      f4:	0c 94 d4 06 	jmp	0xda8	; 0xda8 <.L46>
      f8:	0c 94 d7 02 	jmp	0x5ae	; 0x5ae <.L30>
      fc:	0c 94 10 07 	jmp	0xe20	; 0xe20 <.L40>
     100:	0c 94 80 06 	jmp	0xd00	; 0xd00 <.L53>
     104:	0c 94 98 06 	jmp	0xd30	; 0xd30 <.L51>
     108:	0c 94 c5 02 	jmp	0x58a	; 0x58a <.L33>
     10c:	0c 94 a4 06 	jmp	0xd48	; 0xd48 <.L50>
     110:	0c 94 ec 06 	jmp	0xdd8	; 0xdd8 <.L44>
     114:	0c 94 d1 02 	jmp	0x5a2	; 0x5a2 <.L31>
     118:	0c 94 04 07 	jmp	0xe08	; 0xe08 <.L42>
     11c:	0c 94 74 06 	jmp	0xce8	; 0xce8 <.L54>
     120:	0c 94 8c 06 	jmp	0xd18	; 0xd18 <.L52>
     124:	0c 94 dd 02 	jmp	0x5ba	; 0x5ba <.L29>
     128:	0c 94 bf 02 	jmp	0x57e	; 0x57e <.L34>
     12c:	0c 94 e9 02 	jmp	0x5d2	; 0x5d2 <.L27>
     130:	0c 94 c8 06 	jmp	0xd90	; 0xd90 <.L47>
     134:	0c 94 68 06 	jmp	0xcd0	; 0xcd0 <.L55>
     138:	0c 94 e0 06 	jmp	0xdc0	; 0xdc0 <.L45>
     13c:	0c 94 ef 02 	jmp	0x5de	; 0x5de <.L25>
     140:	0c 94 f8 06 	jmp	0xdf0	; 0xdf0 <.L43>

00000144 <__ctors_end>:
     144:	11 24       	eor	r1, r1
     146:	1f be       	out	0x3f, r1	; 63
     148:	cf ef       	ldi	r28, 0xFF	; 255
     14a:	d1 e2       	ldi	r29, 0x21	; 33
     14c:	de bf       	out	0x3e, r29	; 62
     14e:	cd bf       	out	0x3d, r28	; 61
     150:	00 e0       	ldi	r16, 0x00	; 0
     152:	0c bf       	out	0x3c, r16	; 60

00000154 <__do_copy_data>:
     154:	12 e0       	ldi	r17, 0x02	; 2

00000156 <.Loc.1>:
     156:	a0 e0       	ldi	r26, 0x00	; 0

00000158 <.Loc.2>:
     158:	b2 e0       	ldi	r27, 0x02	; 2

0000015a <.Loc.3>:
     15a:	e2 e9       	ldi	r30, 0x92	; 146

0000015c <.Loc.4>:
     15c:	f7 e1       	ldi	r31, 0x17	; 23

0000015e <.Loc.5>:
     15e:	00 e0       	ldi	r16, 0x00	; 0

00000160 <.Loc.6>:
     160:	0b bf       	out	0x3b, r16	; 59

00000162 <.Loc.7>:
     162:	02 c0       	rjmp	.+4      	; 0x168 <.L__do_copy_data_start>

00000164 <.L__do_copy_data_loop>:
     164:	07 90       	elpm	r0, Z+

00000166 <.Loc.9>:
     166:	0d 92       	st	X+, r0

00000168 <.L__do_copy_data_start>:
     168:	a2 37       	cpi	r26, 0x72	; 114

0000016a <.Loc.11>:
     16a:	b1 07       	cpc	r27, r17

0000016c <.Loc.12>:
     16c:	d9 f7       	brne	.-10     	; 0x164 <.L__do_copy_data_loop>

0000016e <__do_clear_bss>:
     16e:	22 e0       	ldi	r18, 0x02	; 2

00000170 <.Loc.1>:
     170:	a2 e7       	ldi	r26, 0x72	; 114

00000172 <.Loc.2>:
     172:	b2 e0       	ldi	r27, 0x02	; 2

00000174 <.Loc.3>:
     174:	01 c0       	rjmp	.+2      	; 0x178 <.Loc.5>

00000176 <.Loc.4>:
     176:	1d 92       	st	X+, r1

00000178 <.Loc.5>:
     178:	ae 37       	cpi	r26, 0x7E	; 126

0000017a <.Loc.6>:
     17a:	b2 07       	cpc	r27, r18

0000017c <.Loc.7>:
     17c:	e1 f7       	brne	.-8      	; 0x176 <.Loc.4>

0000017e <L0^A>:
     17e:	0e 94 c6 03 	call	0x78c	; 0x78c <main>
     182:	0c 94 af 0b 	jmp	0x175e	; 0x175e <_exit>

00000186 <__bad_interrupt>:
     186:	0c 94 00 00 	jmp	0	; 0x0 <__vectors>

0000018a <donk_init>:
    //led_init();
}
// --- E17-D80NK init -- ///
void donk_init(void){
    // Make input
    DDR_DONK1 &= ~(1<<PIN_DONK1);
     18a:	ea e0       	ldi	r30, 0x0A	; 10
     18c:	f1 e0       	ldi	r31, 0x01	; 1
     18e:	80 81       	ld	r24, Z
     190:	87 7f       	andi	r24, 0xF7	; 247
     192:	80 83       	st	Z, r24

00000194 <.Loc.3>:
    DDR_DONK2 &= ~(1<<PIN_DONK2);
     194:	80 81       	ld	r24, Z
     196:	8b 7f       	andi	r24, 0xFB	; 251
     198:	80 83       	st	Z, r24

0000019a <.Loc.5>:
    // Turn on pullup
    PORT_DONK1 |= (1<<PIN_DONK1);
     19a:	eb e0       	ldi	r30, 0x0B	; 11
     19c:	f1 e0       	ldi	r31, 0x01	; 1
     19e:	80 81       	ld	r24, Z

000001a0 <.Loc.6>:
     1a0:	88 60       	ori	r24, 0x08	; 8
     1a2:	80 83       	st	Z, r24

000001a4 <.Loc.7>:
    PORT_DONK2 |= (1<<PIN_DONK2);
     1a4:	80 81       	ld	r24, Z

000001a6 <.Loc.8>:
     1a6:	84 60       	ori	r24, 0x04	; 4
     1a8:	80 83       	st	Z, r24

000001aa <.Loc.9>:
}
     1aa:	08 95       	ret

000001ac <basic_io_init>:
    donk_init();
     1ac:	0e 94 c5 00 	call	0x18a	; 0x18a <donk_init>

000001b0 <.LVL0>:
}
     1b0:	08 95       	ret

000001b2 <buttons_init>:
// --- User interface buttons -- //
void buttons_init(void){
    // Make all input & enable pullup
    DDR_PLUS &= ~(1<<PIN_PLUS);
     1b2:	52 98       	cbi	0x0a, 2	; 10

000001b4 <.Loc.16>:
    PORT_PLUS |= (1<<PIN_PLUS);
     1b4:	5a 9a       	sbi	0x0b, 2	; 11

000001b6 <.Loc.18>:

    DDR_MINUS &= ~(1<<PIN_MINUS);
     1b6:	81 98       	cbi	0x10, 1	; 16

000001b8 <.Loc.20>:
    PORT_MINUS |= (1<<PIN_MINUS);
     1b8:	59 9a       	sbi	0x0b, 1	; 11

000001ba <.Loc.22>:

    DDR_ENTER &= ~(1<<PIN_ENTER);
     1ba:	53 98       	cbi	0x0a, 3	; 10

000001bc <.Loc.24>:
    PORT_ENTER |= (1<<PIN_ENTER);
     1bc:	5b 9a       	sbi	0x0b, 3	; 11

000001be <.Loc.26>:
}
     1be:	08 95       	ret

000001c0 <init_stop_button>:

// --- INIT INTERRUPT FOR STOP BUTTON --- //
void init_stop_button(void){
    DDR_STOP &= ~(1<<PIN_STOP);
     1c0:	50 98       	cbi	0x0a, 0	; 10

000001c2 <.Loc.30>:
    EICRA |= (1<<ISC01) | (1<<ISC00);  // Rising edge
     1c2:	e9 e6       	ldi	r30, 0x69	; 105
     1c4:	f0 e0       	ldi	r31, 0x00	; 0
     1c6:	80 81       	ld	r24, Z

000001c8 <.Loc.31>:
     1c8:	83 60       	ori	r24, 0x03	; 3
     1ca:	80 83       	st	Z, r24

000001cc <.Loc.32>:
    EIMSK |= (1<<INT0);
     1cc:	e8 9a       	sbi	0x1d, 0	; 29

000001ce <.Loc.34>:
}
     1ce:	08 95       	ret

000001d0 <donk_left>:
    DDR_LED |= (1<<PIN_LED);
    led_control(0);
}
// --- Functions for reading buttons and sensors --- //
char donk_left(void){
    return !(REG_DONK1 & (1<<PIN_DONK1));
     1d0:	80 91 09 01 	lds	r24, 0x0109	; 0x800109 <__TEXT_REGION_LENGTH__+0x700109>

000001d4 <.Loc.38>:
     1d4:	83 fb       	bst	r24, 3
     1d6:	88 27       	eor	r24, r24
     1d8:	80 f9       	bld	r24, 0

000001da <.Loc.39>:
}
     1da:	91 e0       	ldi	r25, 0x01	; 1
     1dc:	89 27       	eor	r24, r25
     1de:	08 95       	ret

000001e0 <donk_right>:
char donk_right(void){
    return !(REG_DONK2 & (1<<PIN_DONK2));
     1e0:	80 91 09 01 	lds	r24, 0x0109	; 0x800109 <__TEXT_REGION_LENGTH__+0x700109>

000001e4 <.Loc.43>:
     1e4:	82 fb       	bst	r24, 2
     1e6:	88 27       	eor	r24, r24
     1e8:	80 f9       	bld	r24, 0

000001ea <.Loc.44>:
}
     1ea:	91 e0       	ldi	r25, 0x01	; 1
     1ec:	89 27       	eor	r24, r25
     1ee:	08 95       	ret

000001f0 <plus_pressed>:

char plus_pressed(void) {
    return !(REG_PLUS & (1 << PIN_PLUS));
     1f0:	89 b1       	in	r24, 0x09	; 9

000001f2 <.Loc.48>:
     1f2:	82 fb       	bst	r24, 2
     1f4:	88 27       	eor	r24, r24
     1f6:	80 f9       	bld	r24, 0

000001f8 <.Loc.49>:
}
     1f8:	91 e0       	ldi	r25, 0x01	; 1
     1fa:	89 27       	eor	r24, r25
     1fc:	08 95       	ret

000001fe <minus_pressed>:

char minus_pressed(void) {
    return !(REG_MINUS & (1 << PIN_MINUS));
     1fe:	89 b1       	in	r24, 0x09	; 9

00000200 <.Loc.53>:
     200:	86 95       	lsr	r24
     202:	81 70       	andi	r24, 0x01	; 1

00000204 <.Loc.54>:
}
     204:	91 e0       	ldi	r25, 0x01	; 1
     206:	89 27       	eor	r24, r25
     208:	08 95       	ret

0000020a <enter_pressed>:

char enter_pressed(void) {
    return !(REG_ENTER & (1 << PIN_ENTER));
     20a:	89 b1       	in	r24, 0x09	; 9

0000020c <.Loc.58>:
     20c:	83 fb       	bst	r24, 3
     20e:	88 27       	eor	r24, r24
     210:	80 f9       	bld	r24, 0

00000212 <.Loc.59>:
}
     212:	91 e0       	ldi	r25, 0x01	; 1
     214:	89 27       	eor	r24, r25
     216:	08 95       	ret

00000218 <stop_pressed>:

char stop_pressed(void) {
    return (REG_STOP & (1 << PIN_STOP));
     218:	89 b1       	in	r24, 0x09	; 9

0000021a <.Loc.63>:
}
     21a:	81 70       	andi	r24, 0x01	; 1
     21c:	08 95       	ret

0000021e <plus_pressed_once>:
// --- Functions for reading single buttons presses with debounce --- //
char plus_pressed_once(void){
    static int pressed_before = 0;
    // Only return 1 when not pressed before
    if(plus_pressed()){
     21e:	0e 94 f8 00 	call	0x1f0	; 0x1f0 <plus_pressed>

00000222 <.LVL1>:
     222:	88 23       	and	r24, r24
     224:	a9 f0       	breq	.+42     	; 0x250 <.L12>

00000226 <.Loc.69>:
        if(!pressed_before){
     226:	80 91 76 02 	lds	r24, 0x0276	; 0x800276 <pressed_before.2>
     22a:	90 91 77 02 	lds	r25, 0x0277	; 0x800277 <pressed_before.2+0x1>
     22e:	89 2b       	or	r24, r25
     230:	11 f0       	breq	.+4      	; 0x236 <.L15>

00000232 <.Loc.71>:
        if(pressed_before){
            _delay_ms(DEBOUNCE_TIME);
            pressed_before = 0;
        }
    }
    return 0;
     232:	80 e0       	ldi	r24, 0x00	; 0

00000234 <.L11>:
}
     234:	08 95       	ret

00000236 <.L15>:
	#else
		//round up by default
		__ticks_dc = (uint32_t)(ceil(fabs(__tmp)));
	#endif

	__builtin_avr_delay_cycles(__ticks_dc);
     236:	8f e3       	ldi	r24, 0x3F	; 63
     238:	9c e9       	ldi	r25, 0x9C	; 156

0000023a <.L1^B1>:
     23a:	01 97       	sbiw	r24, 0x01	; 1
     23c:	f1 f7       	brne	.-4      	; 0x23a <.L1^B1>
     23e:	00 c0       	rjmp	.+0      	; 0x240 <L0^A>

00000240 <L0^A>:
	...

00000242 <.LBE14>:
            pressed_before = 1;
     242:	81 e0       	ldi	r24, 0x01	; 1
     244:	90 e0       	ldi	r25, 0x00	; 0
     246:	90 93 77 02 	sts	0x0277, r25	; 0x800277 <pressed_before.2+0x1>
     24a:	80 93 76 02 	sts	0x0276, r24	; 0x800276 <pressed_before.2>

0000024e <.Loc.84>:
            return 1;
     24e:	08 95       	ret

00000250 <.L12>:
        if(pressed_before){
     250:	20 91 76 02 	lds	r18, 0x0276	; 0x800276 <pressed_before.2>
     254:	30 91 77 02 	lds	r19, 0x0277	; 0x800277 <pressed_before.2+0x1>
     258:	23 2b       	or	r18, r19
     25a:	61 f3       	breq	.-40     	; 0x234 <.L11>

0000025c <.LBB16>:
     25c:	ef e3       	ldi	r30, 0x3F	; 63
     25e:	fc e9       	ldi	r31, 0x9C	; 156

00000260 <.L1^B2>:
     260:	31 97       	sbiw	r30, 0x01	; 1
     262:	f1 f7       	brne	.-4      	; 0x260 <.L1^B2>
     264:	00 c0       	rjmp	.+0      	; 0x266 <L0^A>

00000266 <L0^A>:
	...

00000268 <.LBE16>:
            pressed_before = 0;
     268:	10 92 77 02 	sts	0x0277, r1	; 0x800277 <pressed_before.2+0x1>
     26c:	10 92 76 02 	sts	0x0276, r1	; 0x800276 <pressed_before.2>
     270:	08 95       	ret

00000272 <minus_pressed_once>:

char minus_pressed_once(void) {
    static int pressed_before = 0;
    // Only return 1 when not pressed before
    if (minus_pressed()) {
     272:	0e 94 ff 00 	call	0x1fe	; 0x1fe <minus_pressed>

00000276 <.LVL6>:
     276:	88 23       	and	r24, r24
     278:	a9 f0       	breq	.+42     	; 0x2a4 <.L17>

0000027a <.Loc.104>:
        if (!pressed_before) {
     27a:	80 91 74 02 	lds	r24, 0x0274	; 0x800274 <pressed_before.1>
     27e:	90 91 75 02 	lds	r25, 0x0275	; 0x800275 <pressed_before.1+0x1>
     282:	89 2b       	or	r24, r25
     284:	11 f0       	breq	.+4      	; 0x28a <.L20>

00000286 <.Loc.106>:
        if (pressed_before) {
            _delay_ms(DEBOUNCE_TIME);
            pressed_before = 0;
        }
    }
    return 0;
     286:	80 e0       	ldi	r24, 0x00	; 0

00000288 <.L16>:
}
     288:	08 95       	ret

0000028a <.L20>:
     28a:	8f e3       	ldi	r24, 0x3F	; 63
     28c:	9c e9       	ldi	r25, 0x9C	; 156

0000028e <.L1^B3>:
     28e:	01 97       	sbiw	r24, 0x01	; 1
     290:	f1 f7       	brne	.-4      	; 0x28e <.L1^B3>
     292:	00 c0       	rjmp	.+0      	; 0x294 <L0^A>

00000294 <L0^A>:
	...

00000296 <.LBE18>:
            pressed_before = 1;
     296:	81 e0       	ldi	r24, 0x01	; 1
     298:	90 e0       	ldi	r25, 0x00	; 0
     29a:	90 93 75 02 	sts	0x0275, r25	; 0x800275 <pressed_before.1+0x1>
     29e:	80 93 74 02 	sts	0x0274, r24	; 0x800274 <pressed_before.1>

000002a2 <.Loc.119>:
            return 1;
     2a2:	08 95       	ret

000002a4 <.L17>:
        if (pressed_before) {
     2a4:	20 91 74 02 	lds	r18, 0x0274	; 0x800274 <pressed_before.1>
     2a8:	30 91 75 02 	lds	r19, 0x0275	; 0x800275 <pressed_before.1+0x1>
     2ac:	23 2b       	or	r18, r19
     2ae:	61 f3       	breq	.-40     	; 0x288 <.L16>

000002b0 <.LBB20>:
     2b0:	ef e3       	ldi	r30, 0x3F	; 63
     2b2:	fc e9       	ldi	r31, 0x9C	; 156

000002b4 <.L1^B4>:
     2b4:	31 97       	sbiw	r30, 0x01	; 1
     2b6:	f1 f7       	brne	.-4      	; 0x2b4 <.L1^B4>
     2b8:	00 c0       	rjmp	.+0      	; 0x2ba <L0^A>

000002ba <L0^A>:
	...

000002bc <.LBE20>:
            pressed_before = 0;
     2bc:	10 92 75 02 	sts	0x0275, r1	; 0x800275 <pressed_before.1+0x1>
     2c0:	10 92 74 02 	sts	0x0274, r1	; 0x800274 <pressed_before.1>
     2c4:	08 95       	ret

000002c6 <enter_pressed_once>:

char enter_pressed_once(void) {
    static int pressed_before = 0;
    // Only return 1 when not pressed before
    if (enter_pressed()) {
     2c6:	0e 94 05 01 	call	0x20a	; 0x20a <enter_pressed>

000002ca <.LVL11>:
     2ca:	88 23       	and	r24, r24
     2cc:	a9 f0       	breq	.+42     	; 0x2f8 <.L22>

000002ce <.Loc.139>:
        if (!pressed_before) {
     2ce:	80 91 72 02 	lds	r24, 0x0272	; 0x800272 <pressed_before.0>
     2d2:	90 91 73 02 	lds	r25, 0x0273	; 0x800273 <pressed_before.0+0x1>
     2d6:	89 2b       	or	r24, r25
     2d8:	11 f0       	breq	.+4      	; 0x2de <.L25>

000002da <.Loc.141>:
        if (pressed_before) {
            _delay_ms(DEBOUNCE_TIME);
            pressed_before = 0;
        }
    }
    return 0;
     2da:	80 e0       	ldi	r24, 0x00	; 0

000002dc <.L21>:
}
     2dc:	08 95       	ret

000002de <.L25>:
     2de:	8f e3       	ldi	r24, 0x3F	; 63
     2e0:	9c e9       	ldi	r25, 0x9C	; 156

000002e2 <.L1^B5>:
     2e2:	01 97       	sbiw	r24, 0x01	; 1
     2e4:	f1 f7       	brne	.-4      	; 0x2e2 <.L1^B5>
     2e6:	00 c0       	rjmp	.+0      	; 0x2e8 <L0^A>

000002e8 <L0^A>:
	...

000002ea <.LBE22>:
            pressed_before = 1;
     2ea:	81 e0       	ldi	r24, 0x01	; 1
     2ec:	90 e0       	ldi	r25, 0x00	; 0
     2ee:	90 93 73 02 	sts	0x0273, r25	; 0x800273 <pressed_before.0+0x1>
     2f2:	80 93 72 02 	sts	0x0272, r24	; 0x800272 <pressed_before.0>

000002f6 <.Loc.154>:
            return 1;
     2f6:	08 95       	ret

000002f8 <.L22>:
        if (pressed_before) {
     2f8:	20 91 72 02 	lds	r18, 0x0272	; 0x800272 <pressed_before.0>
     2fc:	30 91 73 02 	lds	r19, 0x0273	; 0x800273 <pressed_before.0+0x1>
     300:	23 2b       	or	r18, r19
     302:	61 f3       	breq	.-40     	; 0x2dc <.L21>

00000304 <.LBB24>:
     304:	ef e3       	ldi	r30, 0x3F	; 63
     306:	fc e9       	ldi	r31, 0x9C	; 156

00000308 <.L1^B6>:
     308:	31 97       	sbiw	r30, 0x01	; 1
     30a:	f1 f7       	brne	.-4      	; 0x308 <.L1^B6>
     30c:	00 c0       	rjmp	.+0      	; 0x30e <L0^A>

0000030e <L0^A>:
	...

00000310 <.LBE24>:
            pressed_before = 0;
     310:	10 92 73 02 	sts	0x0273, r1	; 0x800273 <pressed_before.0+0x1>
     314:	10 92 72 02 	sts	0x0272, r1	; 0x800272 <pressed_before.0>
     318:	08 95       	ret

0000031a <__vector_1>:
ISR(INT0_vect){
     31a:	1f 92       	push	r1
     31c:	0f 92       	push	r0
     31e:	0f b6       	in	r0, 0x3f	; 63
     320:	0f 92       	push	r0
     322:	11 24       	eor	r1, r1
     324:	0b b6       	in	r0, 0x3b	; 59
     326:	0f 92       	push	r0
     328:	2f 93       	push	r18
     32a:	3f 93       	push	r19
     32c:	4f 93       	push	r20
     32e:	5f 93       	push	r21
     330:	6f 93       	push	r22
     332:	7f 93       	push	r23
     334:	8f 93       	push	r24
     336:	9f 93       	push	r25
     338:	af 93       	push	r26
     33a:	bf 93       	push	r27
     33c:	cf 93       	push	r28
     33e:	df 93       	push	r29
     340:	ef 93       	push	r30
     342:	ff 93       	push	r31

00000344 <.LBB34>:
            DDR_ST2_STEP &= ~(1<<PIN_ST2_STEP);
     344:	c1 e0       	ldi	r28, 0x01	; 1
     346:	d1 e0       	ldi	r29, 0x01	; 1

00000348 <.Loc.174>:
    if(stop_pressed()){
     348:	48 99       	sbic	0x09, 0	; 9
     34a:	20 c0       	rjmp	.+64     	; 0x38c <.L27>

0000034c <.L26>:
}
     34c:	ff 91       	pop	r31
     34e:	ef 91       	pop	r30
     350:	df 91       	pop	r29
     352:	cf 91       	pop	r28
     354:	bf 91       	pop	r27
     356:	af 91       	pop	r26
     358:	9f 91       	pop	r25
     35a:	8f 91       	pop	r24
     35c:	7f 91       	pop	r23
     35e:	6f 91       	pop	r22
     360:	5f 91       	pop	r21
     362:	4f 91       	pop	r20
     364:	3f 91       	pop	r19
     366:	2f 91       	pop	r18
     368:	0f 90       	pop	r0
     36a:	0b be       	out	0x3b, r0	; 59
     36c:	0f 90       	pop	r0
     36e:	0f be       	out	0x3f, r0	; 63
     370:	0f 90       	pop	r0
     372:	1f 90       	pop	r1
     374:	18 95       	reti

00000376 <.L32>:
            DDR_ST1_STEP &= ~(1<<PIN_ST1_STEP);
     376:	9d 98       	cbi	0x13, 5	; 19

00000378 <.Loc.178>:
            DDR_ST2_STEP &= ~(1<<PIN_ST2_STEP);
     378:	88 81       	ld	r24, Y
     37a:	8f 7b       	andi	r24, 0xBF	; 191
     37c:	88 83       	st	Y, r24

0000037e <.Loc.180>:
            buzzer_enable(0);
     37e:	80 e0       	ldi	r24, 0x00	; 0
     380:	0e 94 28 05 	call	0xa50	; 0xa50 <buzzer_enable>

00000384 <.LBB36>:
            if(stop_pressed()){
     384:	48 9b       	sbis	0x09, 0	; 9
     386:	0f c0       	rjmp	.+30     	; 0x3a6 <.L29>

00000388 <.Loc.185>:
                display_txt_stop();
     388:	0e 94 29 0b 	call	0x1652	; 0x1652 <display_txt_stop>

0000038c <.L27>:
        while(!plus_pressed_once() || stop_pressed()){
     38c:	0e 94 0f 01 	call	0x21e	; 0x21e <plus_pressed_once>

00000390 <.LVL18>:
     390:	88 23       	and	r24, r24
     392:	89 f3       	breq	.-30     	; 0x376 <.L32>

00000394 <.LBB38>:
     394:	48 99       	sbic	0x09, 0	; 9
     396:	ef cf       	rjmp	.-34     	; 0x376 <.L32>

00000398 <.Loc.192>:
        DDR_ST1_STEP |= (1<<PIN_ST1_STEP);
     398:	9d 9a       	sbi	0x13, 5	; 19

0000039a <.Loc.194>:
        DDR_ST2_STEP |= (1<<PIN_ST2_STEP);
     39a:	e1 e0       	ldi	r30, 0x01	; 1
     39c:	f1 e0       	ldi	r31, 0x01	; 1
     39e:	80 81       	ld	r24, Z

000003a0 <.Loc.195>:
     3a0:	80 64       	ori	r24, 0x40	; 64
     3a2:	80 83       	st	Z, r24

000003a4 <.Loc.196>:
}
     3a4:	d3 cf       	rjmp	.-90     	; 0x34c <.L26>

000003a6 <.L29>:
                if(enter_pressed_once() && !stop_pressed()){
     3a6:	0e 94 63 01 	call	0x2c6	; 0x2c6 <enter_pressed_once>

000003aa <.LVL19>:
     3aa:	88 23       	and	r24, r24
     3ac:	79 f3       	breq	.-34     	; 0x38c <.L27>

000003ae <.LBB40>:
     3ae:	48 99       	sbic	0x09, 0	; 9
     3b0:	ed cf       	rjmp	.-38     	; 0x38c <.L27>

000003b2 <.Loc.203>:
                    cli();
     3b2:	f8 94       	cli

000003b4 <.Loc.204>:
                    WDTCSR = (1 << WDE) | (1 << WDCE);
     3b4:	88 e1       	ldi	r24, 0x18	; 24
     3b6:	80 93 60 00 	sts	0x0060, r24	; 0x800060 <__TEXT_REGION_LENGTH__+0x700060>

000003ba <.L31>:
                    while (1) {}
     3ba:	ff cf       	rjmp	.-2      	; 0x3ba <.L31>

000003bc <led_control>:

void led_control(char power){
    if(power){
     3bc:	88 23       	and	r24, r24
     3be:	11 f0       	breq	.+4      	; 0x3c4 <.L35>

000003c0 <.Loc.212>:
        PORT_LED &= ~(1<<PIN_LED);
     3c0:	5f 98       	cbi	0x0b, 7	; 11
     3c2:	08 95       	ret

000003c4 <.L35>:
    }
    else{
        PORT_LED |= (1<<PIN_LED);
     3c4:	5f 9a       	sbi	0x0b, 7	; 11

000003c6 <.Loc.216>:
    }
}
     3c6:	08 95       	ret

000003c8 <led_init>:
    DDR_LED |= (1<<PIN_LED);
     3c8:	57 9a       	sbi	0x0a, 7	; 10

000003ca <.Loc.220>:
    led_control(0);
     3ca:	80 e0       	ldi	r24, 0x00	; 0
     3cc:	0e 94 de 01 	call	0x3bc	; 0x3bc <led_control>

000003d0 <.LVL21>:
}
     3d0:	08 95       	ret

000003d2 <USART0_init>:
#include "config.h"


// Init USART0 (USB naar PC - voor PuTTY)
void USART0_init(unsigned int baud) {
    unsigned int ubrr = F_CPU / 16 / baud - 1;
     3d2:	9c 01       	movw	r18, r24
     3d4:	40 e0       	ldi	r20, 0x00	; 0
     3d6:	50 e0       	ldi	r21, 0x00	; 0
     3d8:	60 e4       	ldi	r22, 0x40	; 64
     3da:	72 e4       	ldi	r23, 0x42	; 66
     3dc:	8f e0       	ldi	r24, 0x0F	; 15
     3de:	90 e0       	ldi	r25, 0x00	; 0
     3e0:	0e 94 52 0b 	call	0x16a4	; 0x16a4 <__udivmodsi4>

000003e4 <.Loc.3>:
     3e4:	21 50       	subi	r18, 0x01	; 1
     3e6:	31 09       	sbc	r19, r1

000003e8 <.Loc.4>:
    UBRR0H = (unsigned char)(ubrr >> 8);
     3e8:	30 93 c5 00 	sts	0x00C5, r19	; 0x8000c5 <__TEXT_REGION_LENGTH__+0x7000c5>

000003ec <.Loc.6>:
    UBRR0L = (unsigned char)ubrr;
     3ec:	20 93 c4 00 	sts	0x00C4, r18	; 0x8000c4 <__TEXT_REGION_LENGTH__+0x7000c4>

000003f0 <.Loc.8>:
    UCSR0B = (1 << RXEN0) | (1 << TXEN0);
     3f0:	88 e1       	ldi	r24, 0x18	; 24

000003f2 <.Loc.10>:
     3f2:	80 93 c1 00 	sts	0x00C1, r24	; 0x8000c1 <__TEXT_REGION_LENGTH__+0x7000c1>

000003f6 <.Loc.11>:
    UCSR0C = (3 << UCSZ00); // 8-bit data
     3f6:	86 e0       	ldi	r24, 0x06	; 6
     3f8:	80 93 c2 00 	sts	0x00C2, r24	; 0x8000c2 <__TEXT_REGION_LENGTH__+0x7000c2>

000003fc <.Loc.13>:
}
     3fc:	08 95       	ret

000003fe <USART1_init>:

// Init USART1 (naar Slave)
void USART1_init(unsigned int baud) {
    unsigned int ubrr = F_CPU / 16 / baud - 1;
     3fe:	9c 01       	movw	r18, r24
     400:	40 e0       	ldi	r20, 0x00	; 0
     402:	50 e0       	ldi	r21, 0x00	; 0
     404:	60 e4       	ldi	r22, 0x40	; 64
     406:	72 e4       	ldi	r23, 0x42	; 66
     408:	8f e0       	ldi	r24, 0x0F	; 15
     40a:	90 e0       	ldi	r25, 0x00	; 0
     40c:	0e 94 52 0b 	call	0x16a4	; 0x16a4 <__udivmodsi4>

00000410 <.Loc.17>:
     410:	21 50       	subi	r18, 0x01	; 1
     412:	31 09       	sbc	r19, r1

00000414 <.Loc.18>:
    UBRR1H = (unsigned char)(ubrr >> 8);
     414:	30 93 cd 00 	sts	0x00CD, r19	; 0x8000cd <__TEXT_REGION_LENGTH__+0x7000cd>

00000418 <.Loc.20>:
    UBRR1L = (unsigned char)ubrr;
     418:	20 93 cc 00 	sts	0x00CC, r18	; 0x8000cc <__TEXT_REGION_LENGTH__+0x7000cc>

0000041c <.Loc.22>:
    UCSR1B = (1 << RXEN1) | (1 << TXEN1);
     41c:	88 e1       	ldi	r24, 0x18	; 24

0000041e <.Loc.24>:
     41e:	80 93 c9 00 	sts	0x00C9, r24	; 0x8000c9 <__TEXT_REGION_LENGTH__+0x7000c9>

00000422 <.Loc.25>:
    UCSR1C = (3 << UCSZ10); // 8-bit data
     422:	86 e0       	ldi	r24, 0x06	; 6
     424:	80 93 ca 00 	sts	0x00CA, r24	; 0x8000ca <__TEXT_REGION_LENGTH__+0x7000ca>

00000428 <.Loc.27>:
}
     428:	08 95       	ret

0000042a <USART0_sendByte>:

// USART0: zend byte naar PC
void USART0_sendByte(uint8_t data) {
    while (!(UCSR0A & (1 << UDRE0)));
     42a:	e0 ec       	ldi	r30, 0xC0	; 192
     42c:	f0 e0       	ldi	r31, 0x00	; 0

0000042e <.L4>:
     42e:	90 81       	ld	r25, Z

00000430 <.Loc.33>:
     430:	95 ff       	sbrs	r25, 5
     432:	fd cf       	rjmp	.-6      	; 0x42e <.L4>

00000434 <.Loc.34>:
    UDR0 = data;
     434:	80 93 c6 00 	sts	0x00C6, r24	; 0x8000c6 <__TEXT_REGION_LENGTH__+0x7000c6>

00000438 <.Loc.36>:
}
     438:	08 95       	ret

0000043a <USART0_sendString>:

// USART0: zend string naar PC
void USART0_sendString(const char* str) {
     43a:	cf 93       	push	r28
     43c:	df 93       	push	r29
     43e:	c8 2f       	mov	r28, r24
     440:	d9 2f       	mov	r29, r25

00000442 <.Loc.39>:
    while (*str) {
     442:	88 81       	ld	r24, Y
     444:	88 23       	and	r24, r24
     446:	31 f0       	breq	.+12     	; 0x454 <.L6>
     448:	21 96       	adiw	r28, 0x01	; 1

0000044a <.L8>:
        USART0_sendByte(*str++);
     44a:	0e 94 15 02 	call	0x42a	; 0x42a <USART0_sendByte>

0000044e <.LVL10>:
    while (*str) {
     44e:	89 91       	ld	r24, Y+

00000450 <.Loc.44>:
     450:	81 11       	cpse	r24, r1
     452:	fb cf       	rjmp	.-10     	; 0x44a <.L8>

00000454 <.L6>:
    }
}
     454:	df 91       	pop	r29
     456:	cf 91       	pop	r28
     458:	08 95       	ret

0000045a <USART0_sendHexByte>:

// USART0: zend hexwaarde als ASCII naar PC
void USART0_sendHexByte(uint8_t byte) {
     45a:	1f 93       	push	r17
     45c:	cf 93       	push	r28
     45e:	df 93       	push	r29
     460:	cd b7       	in	r28, 0x3d	; 61
     462:	de b7       	in	r29, 0x3e	; 62
     464:	61 97       	sbiw	r28, 0x11	; 17
     466:	0f b6       	in	r0, 0x3f	; 63
     468:	f8 94       	cli
     46a:	de bf       	out	0x3e, r29	; 62
     46c:	0f be       	out	0x3f, r0	; 63
     46e:	cd bf       	out	0x3d, r28	; 61
     470:	18 2f       	mov	r17, r24

00000472 <.Loc.48>:
    char hex[] = "0123456789ABCDEF";
     472:	81 e1       	ldi	r24, 0x11	; 17

00000474 <.Loc.50>:
     474:	ed e2       	ldi	r30, 0x2D	; 45
     476:	f2 e0       	ldi	r31, 0x02	; 2
     478:	de 01       	movw	r26, r28
     47a:	11 96       	adiw	r26, 0x01	; 1

0000047c <.L^B1>:
     47c:	01 90       	ld	r0, Z+
     47e:	0d 92       	st	X+, r0
     480:	8a 95       	dec	r24
     482:	e1 f7       	brne	.-8      	; 0x47c <.L^B1>

00000484 <.Loc.51>:
    USART0_sendByte(hex[(byte >> 4) & 0x0F]);
     484:	81 2f       	mov	r24, r17
     486:	82 95       	swap	r24
     488:	8f 70       	andi	r24, 0x0F	; 15

0000048a <.Loc.53>:
     48a:	e1 e0       	ldi	r30, 0x01	; 1
     48c:	f0 e0       	ldi	r31, 0x00	; 0
     48e:	ec 0f       	add	r30, r28
     490:	fd 1f       	adc	r31, r29
     492:	e8 0f       	add	r30, r24
     494:	f1 1d       	adc	r31, r1

00000496 <.Loc.54>:
     496:	80 81       	ld	r24, Z
     498:	0e 94 15 02 	call	0x42a	; 0x42a <USART0_sendByte>

0000049c <.LVL15>:
    USART0_sendByte(hex[byte & 0x0F]);
     49c:	1f 70       	andi	r17, 0x0F	; 15

0000049e <.Loc.57>:
     49e:	e1 e0       	ldi	r30, 0x01	; 1
     4a0:	f0 e0       	ldi	r31, 0x00	; 0
     4a2:	ec 0f       	add	r30, r28
     4a4:	fd 1f       	adc	r31, r29
     4a6:	e1 0f       	add	r30, r17
     4a8:	f1 1d       	adc	r31, r1

000004aa <.Loc.58>:
     4aa:	80 81       	ld	r24, Z
     4ac:	0e 94 15 02 	call	0x42a	; 0x42a <USART0_sendByte>

000004b0 <.LVL17>:
}
     4b0:	61 96       	adiw	r28, 0x11	; 17
     4b2:	0f b6       	in	r0, 0x3f	; 63
     4b4:	f8 94       	cli
     4b6:	de bf       	out	0x3e, r29	; 62
     4b8:	0f be       	out	0x3f, r0	; 63
     4ba:	cd bf       	out	0x3d, r28	; 61
     4bc:	df 91       	pop	r29
     4be:	cf 91       	pop	r28
     4c0:	1f 91       	pop	r17
     4c2:	08 95       	ret

000004c4 <USART1_sendCommand>:

// USART1: zend 4-byte commando naar Slave
void USART1_sendCommand(uint8_t b1, uint8_t b2, uint8_t b3, uint8_t b4) {
     4c4:	0f 93       	push	r16
     4c6:	1f 93       	push	r17
     4c8:	cf 93       	push	r28
     4ca:	df 93       	push	r29
     4cc:	08 2f       	mov	r16, r24
     4ce:	16 2f       	mov	r17, r22
     4d0:	d4 2f       	mov	r29, r20
     4d2:	c2 2f       	mov	r28, r18

000004d4 <.Loc.62>:
    USART0_sendString("MASTER: Sending to Slave: ");
     4d4:	8e e3       	ldi	r24, 0x3E	; 62
     4d6:	92 e0       	ldi	r25, 0x02	; 2

000004d8 <.Loc.63>:
     4d8:	0e 94 1d 02 	call	0x43a	; 0x43a <USART0_sendString>

000004dc <.LVL20>:
    USART0_sendHexByte(b1); USART0_sendByte(' ');
     4dc:	80 2f       	mov	r24, r16
     4de:	0e 94 2d 02 	call	0x45a	; 0x45a <USART0_sendHexByte>

000004e2 <.LVL21>:
     4e2:	80 e2       	ldi	r24, 0x20	; 32
     4e4:	0e 94 15 02 	call	0x42a	; 0x42a <USART0_sendByte>

000004e8 <.LVL22>:
    USART0_sendHexByte(b2); USART0_sendByte(' ');
     4e8:	81 2f       	mov	r24, r17
     4ea:	0e 94 2d 02 	call	0x45a	; 0x45a <USART0_sendHexByte>

000004ee <.LVL23>:
     4ee:	80 e2       	ldi	r24, 0x20	; 32
     4f0:	0e 94 15 02 	call	0x42a	; 0x42a <USART0_sendByte>

000004f4 <.LVL24>:
    USART0_sendHexByte(b3); USART0_sendByte(' ');
     4f4:	8d 2f       	mov	r24, r29
     4f6:	0e 94 2d 02 	call	0x45a	; 0x45a <USART0_sendHexByte>

000004fa <.LVL25>:
     4fa:	80 e2       	ldi	r24, 0x20	; 32
     4fc:	0e 94 15 02 	call	0x42a	; 0x42a <USART0_sendByte>

00000500 <.LVL26>:
    USART0_sendHexByte(b4); USART0_sendString("\r\n");
     500:	8c 2f       	mov	r24, r28
     502:	0e 94 2d 02 	call	0x45a	; 0x45a <USART0_sendHexByte>

00000506 <.LVL27>:
     506:	8e e6       	ldi	r24, 0x6E	; 110
     508:	92 e0       	ldi	r25, 0x02	; 2
     50a:	0e 94 1d 02 	call	0x43a	; 0x43a <USART0_sendString>

0000050e <.LVL28>:

    while (!(UCSR1A & (1 << UDRE1))) {}
     50e:	e8 ec       	ldi	r30, 0xC8	; 200
     510:	f0 e0       	ldi	r31, 0x00	; 0

00000512 <.L12>:
     512:	90 81       	ld	r25, Z

00000514 <.Loc.77>:
     514:	95 ff       	sbrs	r25, 5
     516:	fd cf       	rjmp	.-6      	; 0x512 <.L12>

00000518 <.Loc.78>:
    UDR1 = b1;
     518:	00 93 ce 00 	sts	0x00CE, r16	; 0x8000ce <__TEXT_REGION_LENGTH__+0x7000ce>

0000051c <.Loc.80>:
    while (!(UCSR1A & (1 << UDRE1))) {}
     51c:	e8 ec       	ldi	r30, 0xC8	; 200
     51e:	f0 e0       	ldi	r31, 0x00	; 0

00000520 <.L13>:
     520:	90 81       	ld	r25, Z

00000522 <.Loc.85>:
     522:	95 ff       	sbrs	r25, 5
     524:	fd cf       	rjmp	.-6      	; 0x520 <.L13>

00000526 <.Loc.86>:
    UDR1 = b2;
     526:	10 93 ce 00 	sts	0x00CE, r17	; 0x8000ce <__TEXT_REGION_LENGTH__+0x7000ce>

0000052a <.Loc.88>:
    while (!(UCSR1A & (1 << UDRE1))) {}
     52a:	e8 ec       	ldi	r30, 0xC8	; 200
     52c:	f0 e0       	ldi	r31, 0x00	; 0

0000052e <.L14>:
     52e:	90 81       	ld	r25, Z

00000530 <.Loc.93>:
     530:	95 ff       	sbrs	r25, 5
     532:	fd cf       	rjmp	.-6      	; 0x52e <.L14>

00000534 <.Loc.94>:
    UDR1 = b3;
     534:	d0 93 ce 00 	sts	0x00CE, r29	; 0x8000ce <__TEXT_REGION_LENGTH__+0x7000ce>

00000538 <.Loc.96>:
    while (!(UCSR1A & (1 << UDRE1))) {}
     538:	e8 ec       	ldi	r30, 0xC8	; 200
     53a:	f0 e0       	ldi	r31, 0x00	; 0

0000053c <.L15>:
     53c:	90 81       	ld	r25, Z

0000053e <.Loc.101>:
     53e:	95 ff       	sbrs	r25, 5
     540:	fd cf       	rjmp	.-6      	; 0x53c <.L15>

00000542 <.Loc.102>:
    UDR1 = b4;
     542:	c0 93 ce 00 	sts	0x00CE, r28	; 0x8000ce <__TEXT_REGION_LENGTH__+0x7000ce>

00000546 <.Loc.104>:
    USART0_sendString("MASTER: Command sent.\r\n");
     546:	89 e5       	ldi	r24, 0x59	; 89
     548:	92 e0       	ldi	r25, 0x02	; 2
     54a:	0e 94 1d 02 	call	0x43a	; 0x43a <USART0_sendString>

0000054e <.LVL29>:
}
     54e:	df 91       	pop	r29

00000550 <.Loc.106>:
     550:	cf 91       	pop	r28

00000552 <.Loc.107>:
     552:	1f 91       	pop	r17

00000554 <.Loc.108>:
     554:	0f 91       	pop	r16

00000556 <.Loc.109>:
     556:	08 95       	ret

00000558 <USART1_receiveByte>:

// USART1: ontvang byte van Slave
uint8_t USART1_receiveByte(void) {
    while (!(UCSR1A & (1 << RXC1)));
     558:	e8 ec       	ldi	r30, 0xC8	; 200
     55a:	f0 e0       	ldi	r31, 0x00	; 0

0000055c <.L21>:
     55c:	80 81       	ld	r24, Z

0000055e <.Loc.115>:
     55e:	88 23       	and	r24, r24
     560:	ec f7       	brge	.-6      	; 0x55c <.L21>

00000562 <.Loc.116>:
    return UDR1;
     562:	80 91 ce 00 	lds	r24, 0x00CE	; 0x8000ce <__TEXT_REGION_LENGTH__+0x7000ce>

00000566 <.Loc.118>:
}
     566:	08 95       	ret

00000568 <task_manager>:



void task_manager(tasks_bibo current_task, uint8_t speed, uint8_t acceleration) {
     568:	e8 2f       	mov	r30, r24
     56a:	f9 2f       	mov	r31, r25
     56c:	24 2f       	mov	r18, r20

0000056e <.Loc.121>:
    switch (current_task) {
     56e:	09 97       	sbiw	r24, 0x09	; 9
     570:	d8 f5       	brcc	.+118    	; 0x5e8 <.L23>
     572:	88 27       	eor	r24, r24
     574:	ef 54       	subi	r30, 0x4F	; 79
     576:	f4 4f       	sbci	r31, 0xF4	; 244
     578:	8f 4f       	sbci	r24, 0xFF	; 255
     57a:	0c 94 93 0b 	jmp	0x1726	; 0x1726 <__tablejump2__>

0000057e <.L34>:
        case forward_slow:  USART1_sendCommand(0x01, 0x80, speed, acceleration); break;
     57e:	46 2f       	mov	r20, r22

00000580 <.Loc.123>:
     580:	60 e8       	ldi	r22, 0x80	; 128

00000582 <.Loc.124>:
     582:	81 e0       	ldi	r24, 0x01	; 1
     584:	0e 94 62 02 	call	0x4c4	; 0x4c4 <USART1_sendCommand>

00000588 <.LVL38>:
     588:	08 95       	ret

0000058a <.L33>:
        case forward_fast:  USART1_sendCommand(0x01, 0xFF, speed, acceleration); break;
     58a:	46 2f       	mov	r20, r22
     58c:	6f ef       	ldi	r22, 0xFF	; 255

0000058e <.Loc.127>:
     58e:	81 e0       	ldi	r24, 0x01	; 1
     590:	0e 94 62 02 	call	0x4c4	; 0x4c4 <USART1_sendCommand>

00000594 <.LVL41>:
     594:	08 95       	ret

00000596 <.L32>:
        case backward_slow: USART1_sendCommand(0x01, 0x00, speed, acceleration); break;
     596:	46 2f       	mov	r20, r22
     598:	60 e0       	ldi	r22, 0x00	; 0

0000059a <.Loc.130>:
     59a:	81 e0       	ldi	r24, 0x01	; 1
     59c:	0e 94 62 02 	call	0x4c4	; 0x4c4 <USART1_sendCommand>

000005a0 <.LVL44>:
     5a0:	08 95       	ret

000005a2 <.L31>:
        case backward_fast: USART1_sendCommand(0x01, 0x7E, speed, acceleration); break;
     5a2:	46 2f       	mov	r20, r22
     5a4:	6e e7       	ldi	r22, 0x7E	; 126

000005a6 <.Loc.133>:
     5a6:	81 e0       	ldi	r24, 0x01	; 1
     5a8:	0e 94 62 02 	call	0x4c4	; 0x4c4 <USART1_sendCommand>

000005ac <.LVL47>:
     5ac:	08 95       	ret

000005ae <.L30>:
        case stop:          USART1_sendCommand(0x01, 0x7F, speed, acceleration); break;
     5ae:	46 2f       	mov	r20, r22
     5b0:	6f e7       	ldi	r22, 0x7F	; 127

000005b2 <.Loc.136>:
     5b2:	81 e0       	ldi	r24, 0x01	; 1
     5b4:	0e 94 62 02 	call	0x4c4	; 0x4c4 <USART1_sendCommand>

000005b8 <.LVL50>:
     5b8:	08 95       	ret

000005ba <.L29>:
        case turn_left:     USART1_sendCommand(0x02, 0x01, speed, acceleration); break;
     5ba:	46 2f       	mov	r20, r22
     5bc:	61 e0       	ldi	r22, 0x01	; 1

000005be <.Loc.139>:
     5be:	82 e0       	ldi	r24, 0x02	; 2
     5c0:	0e 94 62 02 	call	0x4c4	; 0x4c4 <USART1_sendCommand>

000005c4 <.LVL53>:
     5c4:	08 95       	ret

000005c6 <.L28>:
        case turn_right:    USART1_sendCommand(0x02, 0x02, speed, acceleration); break;
     5c6:	46 2f       	mov	r20, r22
     5c8:	62 e0       	ldi	r22, 0x02	; 2

000005ca <.Loc.142>:
     5ca:	82 e0       	ldi	r24, 0x02	; 2
     5cc:	0e 94 62 02 	call	0x4c4	; 0x4c4 <USART1_sendCommand>

000005d0 <.LVL56>:
     5d0:	08 95       	ret

000005d2 <.L27>:
        case turn_left_H:   USART1_sendCommand(0x03, 0x01, speed, acceleration); break;
     5d2:	46 2f       	mov	r20, r22
     5d4:	61 e0       	ldi	r22, 0x01	; 1

000005d6 <.Loc.145>:
     5d6:	83 e0       	ldi	r24, 0x03	; 3
     5d8:	0e 94 62 02 	call	0x4c4	; 0x4c4 <USART1_sendCommand>

000005dc <.LVL59>:
     5dc:	08 95       	ret

000005de <.L25>:
        case turn_right_H:  USART1_sendCommand(0x03, 0x02, speed, acceleration); break;
     5de:	46 2f       	mov	r20, r22
     5e0:	62 e0       	ldi	r22, 0x02	; 2

000005e2 <.Loc.148>:
     5e2:	83 e0       	ldi	r24, 0x03	; 3
     5e4:	0e 94 62 02 	call	0x4c4	; 0x4c4 <USART1_sendCommand>

000005e8 <.L23>:
    }
}
     5e8:	08 95       	ret

000005ea <init_gp_timer>:
    init_gp_timer2();
}
// --- Init general purpose timer --- //
void init_gp_timer(void){
    // Mode 4 CTC, prescaler 64
    TCCR1A = 0;
     5ea:	10 92 80 00 	sts	0x0080, r1	; 0x800080 <__TEXT_REGION_LENGTH__+0x700080>

000005ee <.Loc.3>:
    TCCR1B = (1<<WGM12) | (1<<CS11) | (1<<CS10);
     5ee:	8b e0       	ldi	r24, 0x0B	; 11
     5f0:	80 93 81 00 	sts	0x0081, r24	; 0x800081 <__TEXT_REGION_LENGTH__+0x700081>

000005f4 <.Loc.5>:
    // OCR1A is top in mode 4
    OCR1A = GP_TIMER_TOP;
     5f4:	88 ea       	ldi	r24, 0xA8	; 168
     5f6:	91 e6       	ldi	r25, 0x61	; 97
     5f8:	90 93 89 00 	sts	0x0089, r25	; 0x800089 <__TEXT_REGION_LENGTH__+0x700089>
     5fc:	80 93 88 00 	sts	0x0088, r24	; 0x800088 <__TEXT_REGION_LENGTH__+0x700088>

00000600 <.Loc.7>:
}
     600:	08 95       	ret

00000602 <init_gp_timer2>:
void init_gp_timer2(void){
    // Mode 4 CTC, prescaler 64
    TCCR5A = 0;
     602:	10 92 20 01 	sts	0x0120, r1	; 0x800120 <__TEXT_REGION_LENGTH__+0x700120>

00000606 <.Loc.11>:
    TCCR5B = (1<<WGM52) | (1<<CS51) | (1<<CS50);
     606:	8b e0       	ldi	r24, 0x0B	; 11
     608:	80 93 21 01 	sts	0x0121, r24	; 0x800121 <__TEXT_REGION_LENGTH__+0x700121>

0000060c <.Loc.13>:
    // OCR1A is top in mode 4
    OCR5A = GP_TIMER_TOP;
     60c:	88 ea       	ldi	r24, 0xA8	; 168
     60e:	91 e6       	ldi	r25, 0x61	; 97
     610:	90 93 29 01 	sts	0x0129, r25	; 0x800129 <__TEXT_REGION_LENGTH__+0x700129>
     614:	80 93 28 01 	sts	0x0128, r24	; 0x800128 <__TEXT_REGION_LENGTH__+0x700128>

00000618 <.Loc.15>:
}
     618:	08 95       	ret

0000061a <itermediate_control_init>:
    init_gp_timer();
     61a:	0e 94 f5 02 	call	0x5ea	; 0x5ea <init_gp_timer>

0000061e <.LVL0>:
    init_gp_timer2();
     61e:	0e 94 01 03 	call	0x602	; 0x602 <init_gp_timer2>

00000622 <.LVL1>:
}
     622:	08 95       	ret

00000624 <init>:
    basic_io_init();
     624:	0e 94 d6 00 	call	0x1ac	; 0x1ac <basic_io_init>

00000628 <.LVL2>:
    display_init();
     628:	0e 94 f5 09 	call	0x13ea	; 0x13ea <display_init>

0000062c <.LVL3>:
    itermediate_control_init();
     62c:	0e 94 0d 03 	call	0x61a	; 0x61a <itermediate_control_init>

00000630 <.LVL4>:
    music_init();
     630:	0e 94 19 05 	call	0xa32	; 0xa32 <music_init>

00000634 <.LVL5>:
    sei();
     634:	78 94       	sei

00000636 <.Loc.26>:
}
     636:	08 95       	ret

00000638 <gp_timer>:
// --- Genral purpose timer --- //
// Timers only returns 1 after it initially reaches 0. Then it can be set again
char gp_timer(int set_value){
     638:	28 2f       	mov	r18, r24
     63a:	39 2f       	mov	r19, r25

0000063c <.Loc.29>:
    static int count = -1;
    // Reset timer
    if(set_value == -1){
     63c:	2f 3f       	cpi	r18, 0xFF	; 255
     63e:	32 07       	cpc	r19, r18
     640:	c9 f0       	breq	.+50     	; 0x674 <.L6>

00000642 <.Loc.32>:
        count = -1;
    }
    // Set value if not running
    if(count == -1){
     642:	80 91 02 02 	lds	r24, 0x0202	; 0x800202 <count.1>
     646:	90 91 03 02 	lds	r25, 0x0203	; 0x800203 <count.1+0x1>

0000064a <.Loc.34>:
     64a:	8f 3f       	cpi	r24, 0xFF	; 255
     64c:	98 07       	cpc	r25, r24
     64e:	91 f0       	breq	.+36     	; 0x674 <.L6>

00000650 <.Loc.35>:
        count = set_value;
        TIFR1 = (1<<OCF1A);
        TCNT1 = 0;
    }
    // If running, count down on flag
    else if(count > 0){
     650:	18 16       	cp	r1, r24
     652:	19 06       	cpc	r1, r25
     654:	dc f4       	brge	.+54     	; 0x68c <.L9>

00000656 <.Loc.37>:
        if(TIFR1 & (1<<OCF1A)){
     656:	b1 9b       	sbis	0x16, 1	; 22
     658:	25 c0       	rjmp	.+74     	; 0x6a4 <.L10>

0000065a <.Loc.39>:
            TIFR1 = (1<<OCF1A);
     65a:	82 e0       	ldi	r24, 0x02	; 2
     65c:	86 bb       	out	0x16, r24	; 22

0000065e <.Loc.41>:
            count--;
     65e:	80 91 02 02 	lds	r24, 0x0202	; 0x800202 <count.1>
     662:	90 91 03 02 	lds	r25, 0x0203	; 0x800203 <count.1+0x1>
     666:	01 97       	sbiw	r24, 0x01	; 1
     668:	90 93 03 02 	sts	0x0203, r25	; 0x800203 <count.1+0x1>
     66c:	80 93 02 02 	sts	0x0202, r24	; 0x800202 <count.1>

00000670 <.Loc.43>:
    // If 0 is reached, return 1
    else if(count == 0){
        count = -1;
        return 1;
    }
    return 0;
     670:	80 e0       	ldi	r24, 0x00	; 0
     672:	08 95       	ret

00000674 <.L6>:
        count = set_value;
     674:	30 93 03 02 	sts	0x0203, r19	; 0x800203 <count.1+0x1>
     678:	20 93 02 02 	sts	0x0202, r18	; 0x800202 <count.1>

0000067c <.Loc.46>:
        TIFR1 = (1<<OCF1A);
     67c:	82 e0       	ldi	r24, 0x02	; 2
     67e:	86 bb       	out	0x16, r24	; 22

00000680 <.Loc.48>:
        TCNT1 = 0;
     680:	10 92 85 00 	sts	0x0085, r1	; 0x800085 <__TEXT_REGION_LENGTH__+0x700085>
     684:	10 92 84 00 	sts	0x0084, r1	; 0x800084 <__TEXT_REGION_LENGTH__+0x700084>

00000688 <.Loc.50>:
    return 0;
     688:	80 e0       	ldi	r24, 0x00	; 0
     68a:	08 95       	ret

0000068c <.L9>:
    else if(count == 0){
     68c:	89 2b       	or	r24, r25
     68e:	11 f0       	breq	.+4      	; 0x694 <.L12>

00000690 <.Loc.53>:
    return 0;
     690:	80 e0       	ldi	r24, 0x00	; 0

00000692 <.Loc.54>:
}
     692:	08 95       	ret

00000694 <.L12>:
        count = -1;
     694:	8f ef       	ldi	r24, 0xFF	; 255
     696:	9f ef       	ldi	r25, 0xFF	; 255
     698:	90 93 03 02 	sts	0x0203, r25	; 0x800203 <count.1+0x1>
     69c:	80 93 02 02 	sts	0x0202, r24	; 0x800202 <count.1>

000006a0 <.Loc.57>:
        return 1;
     6a0:	81 e0       	ldi	r24, 0x01	; 1
     6a2:	08 95       	ret

000006a4 <.L10>:
    return 0;
     6a4:	80 e0       	ldi	r24, 0x00	; 0
     6a6:	08 95       	ret

000006a8 <gp_timer2>:
char gp_timer2(int set_value){
     6a8:	28 2f       	mov	r18, r24
     6aa:	39 2f       	mov	r19, r25

000006ac <.Loc.62>:
    static int count = -1;
    // Reset timer
    if(set_value == -1){
     6ac:	2f 3f       	cpi	r18, 0xFF	; 255
     6ae:	32 07       	cpc	r19, r18
     6b0:	c9 f0       	breq	.+50     	; 0x6e4 <.L14>

000006b2 <.Loc.65>:
        count = -1;
    }
    // Set value if not running
    if(count == -1){
     6b2:	80 91 00 02 	lds	r24, 0x0200	; 0x800200 <count.0>
     6b6:	90 91 01 02 	lds	r25, 0x0201	; 0x800201 <count.0+0x1>

000006ba <.Loc.67>:
     6ba:	8f 3f       	cpi	r24, 0xFF	; 255
     6bc:	98 07       	cpc	r25, r24
     6be:	91 f0       	breq	.+36     	; 0x6e4 <.L14>

000006c0 <.Loc.68>:
        count = set_value;
        TIFR5 = (1<<OCF5A);
        TCNT5 = 0;
    }
    // If running, count down on flag
    else if(count > 0){
     6c0:	18 16       	cp	r1, r24
     6c2:	19 06       	cpc	r1, r25
     6c4:	dc f4       	brge	.+54     	; 0x6fc <.L17>

000006c6 <.Loc.70>:
        if(TIFR5 & (1<<OCF5A)){
     6c6:	d1 9b       	sbis	0x1a, 1	; 26
     6c8:	25 c0       	rjmp	.+74     	; 0x714 <.L18>

000006ca <.Loc.72>:
            TIFR5 = (1<<OCF5A);
     6ca:	82 e0       	ldi	r24, 0x02	; 2
     6cc:	8a bb       	out	0x1a, r24	; 26

000006ce <.Loc.74>:
            count--;
     6ce:	80 91 00 02 	lds	r24, 0x0200	; 0x800200 <count.0>
     6d2:	90 91 01 02 	lds	r25, 0x0201	; 0x800201 <count.0+0x1>
     6d6:	01 97       	sbiw	r24, 0x01	; 1
     6d8:	90 93 01 02 	sts	0x0201, r25	; 0x800201 <count.0+0x1>
     6dc:	80 93 00 02 	sts	0x0200, r24	; 0x800200 <count.0>

000006e0 <.Loc.76>:
    // If 0 is reached, return 1
    else if(count == 0){
        count = -1;
        return 1;
    }
    return 0;
     6e0:	80 e0       	ldi	r24, 0x00	; 0
     6e2:	08 95       	ret

000006e4 <.L14>:
        count = set_value;
     6e4:	30 93 01 02 	sts	0x0201, r19	; 0x800201 <count.0+0x1>
     6e8:	20 93 00 02 	sts	0x0200, r18	; 0x800200 <count.0>

000006ec <.Loc.79>:
        TIFR5 = (1<<OCF5A);
     6ec:	82 e0       	ldi	r24, 0x02	; 2
     6ee:	8a bb       	out	0x1a, r24	; 26

000006f0 <.Loc.81>:
        TCNT5 = 0;
     6f0:	10 92 25 01 	sts	0x0125, r1	; 0x800125 <__TEXT_REGION_LENGTH__+0x700125>
     6f4:	10 92 24 01 	sts	0x0124, r1	; 0x800124 <__TEXT_REGION_LENGTH__+0x700124>

000006f8 <.Loc.83>:
    return 0;
     6f8:	80 e0       	ldi	r24, 0x00	; 0
     6fa:	08 95       	ret

000006fc <.L17>:
    else if(count == 0){
     6fc:	89 2b       	or	r24, r25
     6fe:	11 f0       	breq	.+4      	; 0x704 <.L20>

00000700 <.Loc.86>:
    return 0;
     700:	80 e0       	ldi	r24, 0x00	; 0

00000702 <.Loc.87>:
}
     702:	08 95       	ret

00000704 <.L20>:
        count = -1;
     704:	8f ef       	ldi	r24, 0xFF	; 255
     706:	9f ef       	ldi	r25, 0xFF	; 255
     708:	90 93 01 02 	sts	0x0201, r25	; 0x800201 <count.0+0x1>
     70c:	80 93 00 02 	sts	0x0200, r24	; 0x800200 <count.0>

00000710 <.Loc.90>:
        return 1;
     710:	81 e0       	ldi	r24, 0x01	; 1
     712:	08 95       	ret

00000714 <.L18>:
    return 0;
     714:	80 e0       	ldi	r24, 0x00	; 0
     716:	08 95       	ret

00000718 <donk_detection>:
// --- detect packages --- //
char donk_detection(char *mem_left, char *mem_right){
     718:	0f 93       	push	r16
     71a:	1f 93       	push	r17
     71c:	cf 93       	push	r28
     71e:	df 93       	push	r29
     720:	c8 2f       	mov	r28, r24
     722:	d9 2f       	mov	r29, r25
     724:	06 2f       	mov	r16, r22
     726:	17 2f       	mov	r17, r23

00000728 <.Loc.95>:
    // Mem can only be reset, not set
    if(!donk_left()){
     728:	0e 94 e8 00 	call	0x1d0	; 0x1d0 <donk_left>

0000072c <.LVL11>:
     72c:	81 11       	cpse	r24, r1
     72e:	01 c0       	rjmp	.+2      	; 0x732 <.L22>

00000730 <.Loc.98>:
        *mem_left = 0;
     730:	18 82       	st	Y, r1

00000732 <.L22>:
    }
    if(!donk_right()){
     732:	0e 94 f0 00 	call	0x1e0	; 0x1e0 <donk_right>

00000736 <.LVL12>:
     736:	81 11       	cpse	r24, r1
     738:	02 c0       	rjmp	.+4      	; 0x73e <.L23>

0000073a <.Loc.103>:
        *mem_right = 0;
     73a:	f8 01       	movw	r30, r16
     73c:	10 82       	st	Z, r1

0000073e <.L23>:
    }
    // Return 1 if detected and not detected before in previous cycle
     if((donk_left() && !*mem_left) ||(donk_right() && !*mem_right)){
     73e:	0e 94 e8 00 	call	0x1d0	; 0x1d0 <donk_left>

00000742 <.LVL13>:
     742:	88 23       	and	r24, r24
     744:	19 f0       	breq	.+6      	; 0x74c <.L24>

00000746 <.Loc.108>:
     746:	88 81       	ld	r24, Y
     748:	88 23       	and	r24, r24
     74a:	51 f0       	breq	.+20     	; 0x760 <.L25>

0000074c <.L24>:
     74c:	0e 94 f0 00 	call	0x1e0	; 0x1e0 <donk_right>

00000750 <.LVL14>:
     750:	88 23       	and	r24, r24
     752:	71 f0       	breq	.+28     	; 0x770 <.L21>

00000754 <.Loc.111>:
     754:	f8 01       	movw	r30, r16
     756:	80 81       	ld	r24, Z
     758:	88 23       	and	r24, r24
     75a:	11 f0       	breq	.+4      	; 0x760 <.L25>

0000075c <.Loc.112>:
        *mem_left = donk_left();
        *mem_right = donk_right();
        return 1;
     }
    return 0;
     75c:	80 e0       	ldi	r24, 0x00	; 0
     75e:	08 c0       	rjmp	.+16     	; 0x770 <.L21>

00000760 <.L25>:
        *mem_left = donk_left();
     760:	0e 94 e8 00 	call	0x1d0	; 0x1d0 <donk_left>

00000764 <.LVL15>:
     764:	88 83       	st	Y, r24

00000766 <.Loc.116>:
        *mem_right = donk_right();
     766:	0e 94 f0 00 	call	0x1e0	; 0x1e0 <donk_right>

0000076a <.LVL16>:
     76a:	f8 01       	movw	r30, r16
     76c:	80 83       	st	Z, r24

0000076e <.Loc.119>:
        return 1;
     76e:	81 e0       	ldi	r24, 0x01	; 1

00000770 <.L21>:
}
     770:	df 91       	pop	r29
     772:	cf 91       	pop	r28
     774:	1f 91       	pop	r17
     776:	0f 91       	pop	r16
     778:	08 95       	ret

0000077a <start_button_init>:


//OPERATOR (MASTER)
void start_button_init(void){
    // Set PD1 startbutton
    DDRD &= ~((1 << PD1));
     77a:	51 98       	cbi	0x0a, 1	; 10

0000077c <.Loc.3>:

    // Optional: Enable pull-up resistors startbutton
    PORTD |= (1 << PD1);
     77c:	59 9a       	sbi	0x0b, 1	; 11

0000077e <.Loc.5>:
}
     77e:	08 95       	ret

00000780 <starting_button>:
//starting button
uint8_t starting_button() {
    return !(PIND & (1 << PD1));
     780:	89 b1       	in	r24, 0x09	; 9

00000782 <.Loc.9>:
     782:	86 95       	lsr	r24
     784:	81 70       	andi	r24, 0x01	; 1

00000786 <.Loc.10>:
}
     786:	91 e0       	ldi	r25, 0x01	; 1
     788:	89 27       	eor	r24, r25
     78a:	08 95       	ret

0000078c <main>:


int main(void)
{
     78c:	cd b7       	in	r28, 0x3d	; 61
     78e:	de b7       	in	r29, 0x3e	; 62
     790:	2c 97       	sbiw	r28, 0x0c	; 12
     792:	0f b6       	in	r0, 0x3f	; 63
     794:	f8 94       	cli
     796:	de bf       	out	0x3e, r29	; 62
     798:	0f be       	out	0x3f, r0	; 63
     79a:	cd bf       	out	0x3d, r28	; 61

0000079c <.Loc.12>:
    enum available_states current_state = wait;
    enum available_substates current_substate = entry;

    int package_tag=          0;
    int package_no_tag=      0;
    char donk_mem_left = 0;
     79c:	19 82       	std	Y+1, r1	; 0x01

0000079e <.Loc.20>:
    char donk_mem_right = 0;
     79e:	1a 82       	std	Y+2, r1	; 0x02

000007a0 <.Loc.22>:
    int scan_time_right = 0;
    char turn_made = 0;

    /// --- Init --- ///
    // Deze twee moet je in de main (of op de plek waar je de functie roept als dat niet in main is)
    start_button_init();
     7a0:	0e 94 bd 03 	call	0x77a	; 0x77a <start_button_init>

000007a4 <.LVL2>:
    spi_device rfid_left = {&PORTB, PB0, &DDRB};
     7a4:	85 e0       	ldi	r24, 0x05	; 5
     7a6:	e4 e0       	ldi	r30, 0x04	; 4
     7a8:	f2 e0       	ldi	r31, 0x02	; 2
     7aa:	de 01       	movw	r26, r28
     7ac:	13 96       	adiw	r26, 0x03	; 3

000007ae <.L^B1>:
     7ae:	01 90       	ld	r0, Z+
     7b0:	0d 92       	st	X+, r0
     7b2:	8a 95       	dec	r24
     7b4:	e1 f7       	brne	.-8      	; 0x7ae <.L^B1>

000007b6 <.Loc.28>:
    spi_device rfid_right = {&PORTL, PL0, &DDRL};
     7b6:	85 e0       	ldi	r24, 0x05	; 5
     7b8:	e9 e0       	ldi	r30, 0x09	; 9
     7ba:	f2 e0       	ldi	r31, 0x02	; 2
     7bc:	de 01       	movw	r26, r28
     7be:	18 96       	adiw	r26, 0x08	; 8

000007c0 <.L^B2>:
     7c0:	01 90       	ld	r0, Z+
     7c2:	0d 92       	st	X+, r0
     7c4:	8a 95       	dec	r24
     7c6:	e1 f7       	brne	.-8      	; 0x7c0 <.L^B2>

000007c8 <.Loc.30>:
    init();
     7c8:	0e 94 12 03 	call	0x624	; 0x624 <init>

000007cc <.LVL3>:
    USART1_init(9600);
     7cc:	80 e8       	ldi	r24, 0x80	; 128
     7ce:	95 e2       	ldi	r25, 0x25	; 37
     7d0:	0e 94 ff 01 	call	0x3fe	; 0x3fe <USART1_init>

000007d4 <.LVL4>:
    USART0_init(9600);
     7d4:	80 e8       	ldi	r24, 0x80	; 128
     7d6:	95 e2       	ldi	r25, 0x25	; 37
     7d8:	0e 94 e9 01 	call	0x3d2	; 0x3d2 <USART0_init>

000007dc <.LVL5>:
    rfid_init(rfid_left);
     7dc:	4b 81       	ldd	r20, Y+3	; 0x03
     7de:	5c 81       	ldd	r21, Y+4	; 0x04
     7e0:	6d 81       	ldd	r22, Y+5	; 0x05
     7e2:	7e 81       	ldd	r23, Y+6	; 0x06
     7e4:	8f 81       	ldd	r24, Y+7	; 0x07
     7e6:	0e 94 9b 07 	call	0xf36	; 0xf36 <rfid_init>

000007ea <.LVL6>:
    rfid_init(rfid_right);
     7ea:	48 85       	ldd	r20, Y+8	; 0x08
     7ec:	59 85       	ldd	r21, Y+9	; 0x09
     7ee:	6a 85       	ldd	r22, Y+10	; 0x0a
     7f0:	7b 85       	ldd	r23, Y+11	; 0x0b
     7f2:	8c 85       	ldd	r24, Y+12	; 0x0c
     7f4:	0e 94 9b 07 	call	0xf36	; 0xf36 <rfid_init>

000007f8 <.LVL7>:
    char turn_made = 0;
     7f8:	31 2c       	mov	r3, r1

000007fa <.Loc.36>:
    int scan_time_right = 0;
     7fa:	61 2c       	mov	r6, r1
     7fc:	71 2c       	mov	r7, r1

000007fe <.Loc.37>:
    int scan_time_left = 0;
     7fe:	81 2c       	mov	r8, r1
     800:	91 2c       	mov	r9, r1

00000802 <.Loc.38>:
    int package_no_tag=      0;
     802:	c1 2c       	mov	r12, r1
     804:	d1 2c       	mov	r13, r1

00000806 <.Loc.39>:
    int package_tag=          0;
     806:	a1 2c       	mov	r10, r1
     808:	b1 2c       	mov	r11, r1

0000080a <.Loc.40>:
    enum available_substates current_substate = entry;
     80a:	e1 2c       	mov	r14, r1
     80c:	f1 2c       	mov	r15, r1

0000080e <.Loc.41>:
    enum available_states current_state = wait;
     80e:	01 e0       	ldi	r16, 0x01	; 1
     810:	10 e0       	ldi	r17, 0x00	; 0

00000812 <.Loc.42>:
                task_manager(stop, standard_speed, standard_acceleration);
                display_end();
                // Reset timer and play song
                gp_timer(-1);
                while(play_song());
                current_substate = running;
     812:	44 24       	eor	r4, r4
     814:	43 94       	inc	r4
     816:	51 2c       	mov	r5, r1

00000818 <.Loc.43>:
                    current_substate = entry;
     818:	21 2c       	mov	r2, r1
     81a:	0c c0       	rjmp	.+24     	; 0x834 <.L41>

0000081c <.L35>:
                    current_state = end;
     81c:	04 e0       	ldi	r16, 0x04	; 4
     81e:	10 e0       	ldi	r17, 0x00	; 0

00000820 <.Loc.45>:
     820:	09 c0       	rjmp	.+18     	; 0x834 <.L41>

00000822 <.L43>:
        switch(current_state){
     822:	01 15       	cp	r16, r1
     824:	11 05       	cpc	r17, r1
     826:	31 f4       	brne	.+12     	; 0x834 <.L41>

00000828 <.Loc.47>:
            if(donk_left() || donk_right()){
     828:	0e 94 e8 00 	call	0x1d0	; 0x1d0 <donk_left>

0000082c <.LVL11>:
     82c:	88 23       	and	r24, r24
     82e:	79 f1       	breq	.+94     	; 0x88e <.L42>

00000830 <.L13>:
                display_fol();
     830:	0e 94 47 0a 	call	0x148e	; 0x148e <display_fol>

00000834 <.L41>:
        switch(current_state){
     834:	03 30       	cpi	r16, 0x03	; 3
     836:	11 05       	cpc	r17, r1
     838:	09 f4       	brne	.+2      	; 0x83c <L0^A+0x2>

0000083a <L0^A>:
     83a:	40 c0       	rjmp	.+128    	; 0x8bc <.L5>
     83c:	90 f4       	brcc	.+36     	; 0x862 <.L6>
     83e:	01 30       	cpi	r16, 0x01	; 1
     840:	11 05       	cpc	r17, r1
     842:	61 f1       	breq	.+88     	; 0x89c <.L7>
     844:	02 30       	cpi	r16, 0x02	; 2
     846:	11 05       	cpc	r17, r1
     848:	61 f7       	brne	.-40     	; 0x822 <.L43>

0000084a <.Loc.53>:
            switch(current_substate){
     84a:	e1 14       	cp	r14, r1
     84c:	f1 04       	cpc	r15, r1
     84e:	09 f4       	brne	.+2      	; 0x852 <.Loc.54>

00000850 <L0^A>:
     850:	99 c0       	rjmp	.+306    	; 0x984 <.L44>

00000852 <.Loc.54>:
                display_metal_and_non_metal(package_tag, package_no_tag);
     852:	b6 01       	movw	r22, r12
     854:	c5 01       	movw	r24, r10
     856:	0e 94 77 09 	call	0x12ee	; 0x12ee <display_metal_and_non_metal>

0000085a <.LVL13>:
                display_brightness(MAX_BRIGHTNESS);
     85a:	87 e0       	ldi	r24, 0x07	; 7
     85c:	0e 94 39 09 	call	0x1272	; 0x1272 <display_brightness>

00000860 <.LVL14>:
                while(play_beep()){
     860:	b4 c0       	rjmp	.+360    	; 0x9ca <.L26>

00000862 <.L6>:
        switch(current_state){
     862:	04 30       	cpi	r16, 0x04	; 4
     864:	11 05       	cpc	r17, r1
     866:	09 f4       	brne	.+2      	; 0x86a <L0^A+0x2>

00000868 <L0^A>:
     868:	cb c0       	rjmp	.+406    	; 0xa00 <.L11>
     86a:	05 30       	cpi	r16, 0x05	; 5
     86c:	11 05       	cpc	r17, r1
     86e:	11 f7       	brne	.-60     	; 0x834 <.L41>

00000870 <.Loc.59>:
            switch(current_substate){
     870:	e1 14       	cp	r14, r1
     872:	f1 04       	cpc	r15, r1
     874:	09 f4       	brne	.+2      	; 0x878 <.Loc.60>

00000876 <L0^A>:
     876:	b9 c0       	rjmp	.+370    	; 0x9ea <.L45>

00000878 <.Loc.60>:
                display_turn();
     878:	0e 94 71 0a 	call	0x14e2	; 0x14e2 <display_turn>

0000087c <.LVL15>:
                if(USART1_receiveByte()==0x01){
     87c:	0e 94 ac 02 	call	0x558	; 0x558 <USART1_receiveByte>

00000880 <.LVL16>:
     880:	81 30       	cpi	r24, 0x01	; 1
     882:	c1 f6       	brne	.-80     	; 0x834 <.L41>

00000884 <.Loc.64>:
                    current_substate = entry;
     884:	e1 2c       	mov	r14, r1

00000886 <.Loc.65>:
     886:	f2 2c       	mov	r15, r2

00000888 <.Loc.66>:
                    current_state = forward;
     888:	03 e0       	ldi	r16, 0x03	; 3

0000088a <.Loc.67>:
     88a:	10 e0       	ldi	r17, 0x00	; 0
     88c:	d3 cf       	rjmp	.-90     	; 0x834 <.L41>

0000088e <.L42>:
            if(donk_left() || donk_right()){
     88e:	0e 94 f0 00 	call	0x1e0	; 0x1e0 <donk_right>

00000892 <.LVL20>:
     892:	81 11       	cpse	r24, r1
     894:	cd cf       	rjmp	.-102    	; 0x830 <.L13>

00000896 <.Loc.70>:
                display_pac();
     896:	0e 94 9b 0a 	call	0x1536	; 0x1536 <display_pac>

0000089a <.LVL21>:
     89a:	cc cf       	rjmp	.-104    	; 0x834 <.L41>

0000089c <.L7>:
            if(starting_button()){
     89c:	0e 94 c0 03 	call	0x780	; 0x780 <starting_button>

000008a0 <.LVL23>:
     8a0:	88 23       	and	r24, r24
     8a2:	41 f2       	breq	.-112    	; 0x834 <.L41>
     8a4:	02 c0       	rjmp	.+4      	; 0x8aa <.L16>

000008a6 <.L17>:
                    display_go();
     8a6:	0e 94 ea 0a 	call	0x15d4	; 0x15d4 <display_go>

000008aa <.L16>:
                while(!gp_timer(TEXT_DISPLAY_TIME)){
     8aa:	85 e0       	ldi	r24, 0x05	; 5
     8ac:	90 e0       	ldi	r25, 0x00	; 0
     8ae:	0e 94 1c 03 	call	0x638	; 0x638 <gp_timer>

000008b2 <.LVL25>:
     8b2:	88 23       	and	r24, r24
     8b4:	c1 f3       	breq	.-16     	; 0x8a6 <.L17>

000008b6 <.Loc.78>:
                current_state = forward;
     8b6:	03 e0       	ldi	r16, 0x03	; 3
     8b8:	10 e0       	ldi	r17, 0x00	; 0
     8ba:	bc cf       	rjmp	.-136    	; 0x834 <.L41>

000008bc <.L5>:
            switch(current_substate){
     8bc:	e1 14       	cp	r14, r1
     8be:	f1 04       	cpc	r15, r1
     8c0:	99 f1       	breq	.+102    	; 0x928 <.L46>

000008c2 <.Loc.80>:
                display_metal_and_non_metal(package_tag, package_no_tag);
     8c2:	b6 01       	movw	r22, r12
     8c4:	c5 01       	movw	r24, r10
     8c6:	0e 94 77 09 	call	0x12ee	; 0x12ee <display_metal_and_non_metal>

000008ca <.LVL27>:
                if (donk_detection(&donk_mem_left, &donk_mem_right)){
     8ca:	be 01       	movw	r22, r28
     8cc:	6e 5f       	subi	r22, 0xFE	; 254
     8ce:	7f 4f       	sbci	r23, 0xFF	; 255
     8d0:	ce 01       	movw	r24, r28
     8d2:	01 96       	adiw	r24, 0x01	; 1
     8d4:	0e 94 8c 03 	call	0x718	; 0x718 <donk_detection>

000008d8 <.LVL28>:
     8d8:	88 23       	and	r24, r24
     8da:	21 f0       	breq	.+8      	; 0x8e4 <.L19>

000008dc <.Loc.84>:
                    current_substate = entry;
     8dc:	e1 2c       	mov	r14, r1

000008de <.Loc.85>:
     8de:	f2 2c       	mov	r15, r2

000008e0 <.Loc.86>:
                    current_state = package_detected;
     8e0:	02 e0       	ldi	r16, 0x02	; 2

000008e2 <.Loc.87>:
     8e2:	10 e0       	ldi	r17, 0x00	; 0

000008e4 <.L19>:
                if(scan_time_left){
     8e4:	81 14       	cp	r8, r1
     8e6:	91 04       	cpc	r9, r1
     8e8:	41 f5       	brne	.+80     	; 0x93a <.L47>

000008ea <.L20>:
                if(scan_time_right){
     8ea:	61 14       	cp	r6, r1
     8ec:	71 04       	cpc	r7, r1
     8ee:	b9 f5       	brne	.+110    	; 0x95e <.L48>

000008f0 <.L21>:
                if(gp_timer2(1)){
     8f0:	84 2d       	mov	r24, r4
     8f2:	95 2d       	mov	r25, r5
     8f4:	0e 94 54 03 	call	0x6a8	; 0x6a8 <gp_timer2>

000008f8 <.LVL34>:
     8f8:	88 23       	and	r24, r24
     8fa:	61 f0       	breq	.+24     	; 0x914 <.L22>

000008fc <.Loc.95>:
                    if(scan_time_left){
     8fc:	81 14       	cp	r8, r1
     8fe:	91 04       	cpc	r9, r1
     900:	19 f0       	breq	.+6      	; 0x908 <.L23>

00000902 <.Loc.97>:
                        scan_time_left--;
     902:	81 e0       	ldi	r24, 0x01	; 1
     904:	88 1a       	sub	r8, r24
     906:	91 08       	sbc	r9, r1

00000908 <.L23>:
                    if(scan_time_right){
     908:	61 14       	cp	r6, r1
     90a:	71 04       	cpc	r7, r1
     90c:	19 f0       	breq	.+6      	; 0x914 <.L22>

0000090e <.Loc.101>:
                        scan_time_right--;
     90e:	81 e0       	ldi	r24, 0x01	; 1
     910:	68 1a       	sub	r6, r24
     912:	71 08       	sbc	r7, r1

00000914 <.L22>:
                if(USART1_receiveByte()==0x01){
     914:	0e 94 ac 02 	call	0x558	; 0x558 <USART1_receiveByte>

00000918 <.LVL37>:
     918:	81 30       	cpi	r24, 0x01	; 1
     91a:	09 f0       	breq	.+2      	; 0x91e <.Loc.106>

0000091c <L0^A>:
     91c:	8b cf       	rjmp	.-234    	; 0x834 <.L41>

0000091e <.Loc.106>:
                    current_substate = entry;
     91e:	e1 2c       	mov	r14, r1

00000920 <.Loc.107>:
     920:	f2 2c       	mov	r15, r2

00000922 <.Loc.108>:
                    current_state = u_turn;
     922:	05 e0       	ldi	r16, 0x05	; 5
     924:	10 e0       	ldi	r17, 0x00	; 0

00000926 <.Loc.109>:
     926:	86 cf       	rjmp	.-244    	; 0x834 <.L41>

00000928 <.L46>:
                task_manager(forward_fast, standard_speed, standard_acceleration);
     928:	4f ef       	ldi	r20, 0xFF	; 255
     92a:	6f ef       	ldi	r22, 0xFF	; 255
     92c:	84 2d       	mov	r24, r4
     92e:	95 2d       	mov	r25, r5
     930:	0e 94 b4 02 	call	0x568	; 0x568 <task_manager>

00000934 <.LVL41>:
                current_substate = running;
     934:	e4 2c       	mov	r14, r4
     936:	f5 2c       	mov	r15, r5

00000938 <.Loc.114>:
                break;
     938:	7d cf       	rjmp	.-262    	; 0x834 <.L41>

0000093a <.L47>:
                    if(rfid_check_tag_present(rfid_left)){
     93a:	4b 81       	ldd	r20, Y+3	; 0x03
     93c:	5c 81       	ldd	r21, Y+4	; 0x04
     93e:	6d 81       	ldd	r22, Y+5	; 0x05
     940:	7e 81       	ldd	r23, Y+6	; 0x06
     942:	8f 81       	ldd	r24, Y+7	; 0x07
     944:	0e 94 4e 08 	call	0x109c	; 0x109c <rfid_check_tag_present>

00000948 <.LVL43>:
     948:	88 23       	and	r24, r24
     94a:	79 f2       	breq	.-98     	; 0x8ea <.L20>

0000094c <.Loc.118>:
                        package_no_tag--;
     94c:	81 e0       	ldi	r24, 0x01	; 1
     94e:	c8 1a       	sub	r12, r24
     950:	d1 08       	sbc	r13, r1

00000952 <.Loc.120>:
                        package_tag++;
     952:	8f ef       	ldi	r24, 0xFF	; 255
     954:	a8 1a       	sub	r10, r24
     956:	b8 0a       	sbc	r11, r24

00000958 <.Loc.122>:
                        scan_time_left = 0;
     958:	81 2c       	mov	r8, r1
     95a:	91 2c       	mov	r9, r1
     95c:	c6 cf       	rjmp	.-116    	; 0x8ea <.L20>

0000095e <.L48>:
                    if(rfid_check_tag_present(rfid_right)){
     95e:	48 85       	ldd	r20, Y+8	; 0x08
     960:	59 85       	ldd	r21, Y+9	; 0x09
     962:	6a 85       	ldd	r22, Y+10	; 0x0a
     964:	7b 85       	ldd	r23, Y+11	; 0x0b
     966:	8c 85       	ldd	r24, Y+12	; 0x0c
     968:	0e 94 4e 08 	call	0x109c	; 0x109c <rfid_check_tag_present>

0000096c <.LVL47>:
     96c:	88 23       	and	r24, r24
     96e:	09 f4       	brne	.+2      	; 0x972 <.Loc.127>

00000970 <L0^A>:
     970:	bf cf       	rjmp	.-130    	; 0x8f0 <.L21>

00000972 <.Loc.127>:
                        package_no_tag--;
     972:	81 e0       	ldi	r24, 0x01	; 1
     974:	c8 1a       	sub	r12, r24
     976:	d1 08       	sbc	r13, r1

00000978 <.Loc.129>:
                        package_tag++;
     978:	8f ef       	ldi	r24, 0xFF	; 255
     97a:	a8 1a       	sub	r10, r24
     97c:	b8 0a       	sbc	r11, r24

0000097e <.Loc.131>:
                        scan_time_right = 0;
     97e:	61 2c       	mov	r6, r1
     980:	71 2c       	mov	r7, r1
     982:	b6 cf       	rjmp	.-148    	; 0x8f0 <.L21>

00000984 <.L44>:
                if(turn_made){
     984:	31 10       	cpse	r3, r1
     986:	4a cf       	rjmp	.-364    	; 0x81c <.L35>

00000988 <.Loc.135>:
                    package_no_tag++;
     988:	8f ef       	ldi	r24, 0xFF	; 255
     98a:	c8 1a       	sub	r12, r24
     98c:	d8 0a       	sbc	r13, r24

0000098e <.Loc.137>:
                    if(donk_mem_left){
     98e:	89 81       	ldd	r24, Y+1	; 0x01
     990:	81 11       	cpse	r24, r1
     992:	09 c0       	rjmp	.+18     	; 0x9a6 <.L36>

00000994 <.Loc.139>:
                    else if(donk_mem_right){
     994:	8a 81       	ldd	r24, Y+2	; 0x02
     996:	88 23       	and	r24, r24
     998:	59 f0       	breq	.+22     	; 0x9b0 <.L25>

0000099a <.Loc.141>:
                        scan_time_right = SCAN_TIME;
     99a:	0f 2e       	mov	r0, r31
     99c:	f4 e1       	ldi	r31, 0x14	; 20
     99e:	6f 2e       	mov	r6, r31
     9a0:	71 2c       	mov	r7, r1
     9a2:	f0 2d       	mov	r31, r0

000009a4 <.Loc.142>:
     9a4:	05 c0       	rjmp	.+10     	; 0x9b0 <.L25>

000009a6 <.L36>:
                        scan_time_left = SCAN_TIME;
     9a6:	0f 2e       	mov	r0, r31
     9a8:	f4 e1       	ldi	r31, 0x14	; 20
     9aa:	8f 2e       	mov	r8, r31
     9ac:	91 2c       	mov	r9, r1
     9ae:	f0 2d       	mov	r31, r0

000009b0 <.L25>:
                    task_manager(stop, standard_speed, standard_acceleration);
     9b0:	4f ef       	ldi	r20, 0xFF	; 255
     9b2:	6f ef       	ldi	r22, 0xFF	; 255
     9b4:	84 e0       	ldi	r24, 0x04	; 4
     9b6:	90 e0       	ldi	r25, 0x00	; 0
     9b8:	0e 94 b4 02 	call	0x568	; 0x568 <task_manager>

000009bc <.LVL55>:
                    current_substate = running;
     9bc:	e4 2c       	mov	r14, r4
     9be:	f5 2c       	mov	r15, r5
     9c0:	39 cf       	rjmp	.-398    	; 0x834 <.L41>

000009c2 <.L27>:
                    display_metal_and_non_metal(package_tag, package_no_tag);
     9c2:	b6 01       	movw	r22, r12
     9c4:	c5 01       	movw	r24, r10
     9c6:	0e 94 77 09 	call	0x12ee	; 0x12ee <display_metal_and_non_metal>

000009ca <.L26>:
                while(play_beep()){
     9ca:	0e 94 7e 05 	call	0xafc	; 0xafc <play_beep>

000009ce <.LVL58>:
     9ce:	81 11       	cpse	r24, r1
     9d0:	f8 cf       	rjmp	.-16     	; 0x9c2 <.L27>
     9d2:	04 c0       	rjmp	.+8      	; 0x9dc <.L28>

000009d4 <.L29>:
                    display_metal_and_non_metal(package_tag, package_no_tag);
     9d4:	b6 01       	movw	r22, r12
     9d6:	c5 01       	movw	r24, r10
     9d8:	0e 94 77 09 	call	0x12ee	; 0x12ee <display_metal_and_non_metal>

000009dc <.L28>:
                while(!gp_timer(DETECTION_STOP_TIME)){
     9dc:	8a e0       	ldi	r24, 0x0A	; 10
     9de:	90 e0       	ldi	r25, 0x00	; 0
     9e0:	0e 94 1c 03 	call	0x638	; 0x638 <gp_timer>

000009e4 <.LVL60>:
     9e4:	88 23       	and	r24, r24
     9e6:	b1 f3       	breq	.-20     	; 0x9d4 <.L29>
     9e8:	25 cf       	rjmp	.-438    	; 0x834 <.L41>

000009ea <.L45>:
                task_manager(turn_right, standard_speed, standard_acceleration);
     9ea:	4f ef       	ldi	r20, 0xFF	; 255
     9ec:	6f ef       	ldi	r22, 0xFF	; 255
     9ee:	86 e0       	ldi	r24, 0x06	; 6
     9f0:	90 e0       	ldi	r25, 0x00	; 0
     9f2:	0e 94 b4 02 	call	0x568	; 0x568 <task_manager>

000009f6 <.LVL61>:
                turn_made = 1;
     9f6:	33 24       	eor	r3, r3
     9f8:	33 94       	inc	r3

000009fa <.Loc.158>:
                current_substate = running;
     9fa:	e4 2c       	mov	r14, r4
     9fc:	f5 2c       	mov	r15, r5

000009fe <.Loc.159>:
                break;
     9fe:	1a cf       	rjmp	.-460    	; 0x834 <.L41>

00000a00 <.L11>:
            switch(current_substate){
     a00:	e1 14       	cp	r14, r1
     a02:	f1 04       	cpc	r15, r1
     a04:	19 f0       	breq	.+6      	; 0xa0c <.L49>

00000a06 <.Loc.161>:
                break;
            case running:
                display_end();
     a06:	0e 94 ff 0a 	call	0x15fe	; 0x15fe <display_end>

00000a0a <.LVL63>:
                break;
     a0a:	14 cf       	rjmp	.-472    	; 0x834 <.L41>

00000a0c <.L49>:
                task_manager(stop, standard_speed, standard_acceleration);
     a0c:	4f ef       	ldi	r20, 0xFF	; 255
     a0e:	6f ef       	ldi	r22, 0xFF	; 255
     a10:	84 e0       	ldi	r24, 0x04	; 4
     a12:	90 e0       	ldi	r25, 0x00	; 0
     a14:	0e 94 b4 02 	call	0x568	; 0x568 <task_manager>

00000a18 <.LVL65>:
                display_end();
     a18:	0e 94 ff 0a 	call	0x15fe	; 0x15fe <display_end>

00000a1c <.LVL66>:
                gp_timer(-1);
     a1c:	8f ef       	ldi	r24, 0xFF	; 255
     a1e:	9f ef       	ldi	r25, 0xFF	; 255
     a20:	0e 94 1c 03 	call	0x638	; 0x638 <gp_timer>

00000a24 <.L32>:
                while(play_song());
     a24:	0e 94 50 06 	call	0xca0	; 0xca0 <play_song>

00000a28 <.LVL68>:
     a28:	81 11       	cpse	r24, r1
     a2a:	fc cf       	rjmp	.-8      	; 0xa24 <.L32>

00000a2c <.Loc.169>:
                current_substate = running;
     a2c:	e4 2c       	mov	r14, r4

00000a2e <.Loc.170>:
     a2e:	f5 2c       	mov	r15, r5
     a30:	01 cf       	rjmp	.-510    	; 0x834 <.L41>

00000a32 <music_init>:
#include "intermediate_control.h"

void music_init(void){
    // Start as high input to prevent noise from voltage fluctuations
    // Set to output in separate function
    DDR_BUZZ &= ~(1<<PIN_BUZZ);
     a32:	6d 98       	cbi	0x0d, 5	; 13

00000a34 <.Loc.3>:
    PORT_BUZZ |= (1<<PIN_BUZZ);
     a34:	75 9a       	sbi	0x0e, 5	; 14

00000a36 <.Loc.5>:
    // OC3C Mode 14, Fast PWM, prescaler 1
    // COM bits are set in separate function
    TCCR3A = (1<<WGM31);
     a36:	82 e0       	ldi	r24, 0x02	; 2
     a38:	80 93 90 00 	sts	0x0090, r24	; 0x800090 <__TEXT_REGION_LENGTH__+0x700090>

00000a3c <.Loc.7>:
    TCCR3B = (1<<CS30) | (1<<WGM33) | (1<<WGM32);
     a3c:	89 e1       	ldi	r24, 0x19	; 25
     a3e:	80 93 91 00 	sts	0x0091, r24	; 0x800091 <__TEXT_REGION_LENGTH__+0x700091>

00000a42 <.Loc.10>:
    OCR3C = 65535*0.02;
     a42:	8e e1       	ldi	r24, 0x1E	; 30
     a44:	95 e0       	ldi	r25, 0x05	; 5
     a46:	90 93 9d 00 	sts	0x009D, r25	; 0x80009d <__TEXT_REGION_LENGTH__+0x70009d>
     a4a:	80 93 9c 00 	sts	0x009C, r24	; 0x80009c <__TEXT_REGION_LENGTH__+0x70009c>

00000a4e <.Loc.11>:
}
     a4e:	08 95       	ret

00000a50 <buzzer_enable>:
// Set buzzer to output and enable COM bits for PWM
void buzzer_enable(char input){
    if(input){
     a50:	88 23       	and	r24, r24
     a52:	39 f0       	breq	.+14     	; 0xa62 <.L3>

00000a54 <.Loc.15>:
        DDR_BUZZ |= (1<<PIN_BUZZ);
     a54:	6d 9a       	sbi	0x0d, 5	; 13

00000a56 <.Loc.17>:
        TCCR3A |= (1<<COM3C1) | (1<<COM3C0);
     a56:	e0 e9       	ldi	r30, 0x90	; 144
     a58:	f0 e0       	ldi	r31, 0x00	; 0
     a5a:	80 81       	ld	r24, Z

00000a5c <.Loc.18>:
     a5c:	8c 60       	ori	r24, 0x0C	; 12
     a5e:	80 83       	st	Z, r24
     a60:	08 95       	ret

00000a62 <.L3>:
    }
    else{
        DDR_BUZZ &= ~(1<<PIN_BUZZ);
     a62:	6d 98       	cbi	0x0d, 5	; 13

00000a64 <.Loc.21>:
        TCCR3A &= ~((1<<COM3C1) | (1<<COM3C0));
     a64:	e0 e9       	ldi	r30, 0x90	; 144
     a66:	f0 e0       	ldi	r31, 0x00	; 0
     a68:	80 81       	ld	r24, Z

00000a6a <.Loc.23>:
     a6a:	83 7f       	andi	r24, 0xF3	; 243
     a6c:	80 83       	st	Z, r24

00000a6e <.Loc.24>:
    }
}
     a6e:	08 95       	ret

00000a70 <hz_to_icr_value>:

int hz_to_icr_value(int hz){
    return (16000000/hz);
     a70:	9c 01       	movw	r18, r24
     a72:	99 0f       	add	r25, r25
     a74:	44 0b       	sbc	r20, r20
     a76:	55 0b       	sbc	r21, r21
     a78:	60 e0       	ldi	r22, 0x00	; 0
     a7a:	74 e2       	ldi	r23, 0x24	; 36
     a7c:	84 ef       	ldi	r24, 0xF4	; 244
     a7e:	90 e0       	ldi	r25, 0x00	; 0
     a80:	0e 94 74 0b 	call	0x16e8	; 0x16e8 <__divmodsi4>

00000a84 <.Loc.28>:
}
     a84:	c9 01       	movw	r24, r18

00000a86 <.Loc.29>:
     a86:	08 95       	ret

00000a88 <play_note>:

void play_note(int note, int beats, int state, int *note_num){
     a88:	ef 92       	push	r14
     a8a:	ff 92       	push	r15
     a8c:	0f 93       	push	r16
     a8e:	1f 93       	push	r17
     a90:	cf 93       	push	r28
     a92:	df 93       	push	r29
     a94:	c8 2f       	mov	r28, r24
     a96:	d9 2f       	mov	r29, r25
     a98:	cb 01       	movw	r24, r22

00000a9a <.Loc.32>:
     a9a:	e4 2e       	mov	r14, r20
     a9c:	f5 2e       	mov	r15, r21
     a9e:	02 2f       	mov	r16, r18
     aa0:	13 2f       	mov	r17, r19

00000aa2 <.Loc.33>:
    // Use GP timer to time beats
    if(!gp_timer(beats)){
     aa2:	0e 94 1c 03 	call	0x638	; 0x638 <gp_timer>

00000aa6 <.LVL8>:
     aa6:	81 11       	cpse	r24, r1
     aa8:	22 c0       	rjmp	.+68     	; 0xaee <.L7>

00000aaa <.LBB5>:
    return (16000000/hz);
     aaa:	9e 01       	movw	r18, r28
     aac:	dd 0f       	add	r29, r29
     aae:	44 0b       	sbc	r20, r20
     ab0:	55 0b       	sbc	r21, r21
     ab2:	60 e0       	ldi	r22, 0x00	; 0
     ab4:	74 e2       	ldi	r23, 0x24	; 36
     ab6:	84 ef       	ldi	r24, 0xF4	; 244
     ab8:	90 e0       	ldi	r25, 0x00	; 0
     aba:	0e 94 74 0b 	call	0x16e8	; 0x16e8 <__divmodsi4>

00000abe <.Loc.43>:
        // Set frequency and volume
        int ICR_value = (hz_to_icr_value(note));
        int OCR_value = 65535*0.01;
        ICR3 =  ICR_value;
     abe:	30 93 97 00 	sts	0x0097, r19	; 0x800097 <__TEXT_REGION_LENGTH__+0x700097>
     ac2:	20 93 96 00 	sts	0x0096, r18	; 0x800096 <__TEXT_REGION_LENGTH__+0x700096>

00000ac6 <.Loc.44>:
        OCR3C = OCR_value*state;
     ac6:	2f e8       	ldi	r18, 0x8F	; 143
     ac8:	32 e0       	ldi	r19, 0x02	; 2
     aca:	e2 9e       	mul	r14, r18
     acc:	c0 01       	movw	r24, r0
     ace:	e3 9e       	mul	r14, r19
     ad0:	90 0d       	add	r25, r0
     ad2:	f2 9e       	mul	r15, r18
     ad4:	90 0d       	add	r25, r0
     ad6:	11 24       	eor	r1, r1

00000ad8 <.Loc.46>:
     ad8:	90 93 9d 00 	sts	0x009D, r25	; 0x80009d <__TEXT_REGION_LENGTH__+0x70009d>
     adc:	80 93 9c 00 	sts	0x009C, r24	; 0x80009c <__TEXT_REGION_LENGTH__+0x70009c>

00000ae0 <.L6>:
    }
    // Next note
    else{
        (*note_num)++;
    }
}
     ae0:	df 91       	pop	r29
     ae2:	cf 91       	pop	r28
     ae4:	1f 91       	pop	r17
     ae6:	0f 91       	pop	r16
     ae8:	ff 90       	pop	r15
     aea:	ef 90       	pop	r14
     aec:	08 95       	ret

00000aee <.L7>:
        (*note_num)++;
     aee:	f8 01       	movw	r30, r16
     af0:	80 81       	ld	r24, Z
     af2:	91 81       	ldd	r25, Z+1	; 0x01
     af4:	01 96       	adiw	r24, 0x01	; 1
     af6:	91 83       	std	Z+1, r25	; 0x01
     af8:	80 83       	st	Z, r24

00000afa <.Loc.51>:
}
     afa:	f2 cf       	rjmp	.-28     	; 0xae0 <.L6>

00000afc <play_beep>:
// Play multiple notes with switch
char play_beep(){
    static int note_number = 0;
    if(!note_number){
     afc:	80 91 7c 02 	lds	r24, 0x027C	; 0x80027c <note_number.2>
     b00:	90 91 7d 02 	lds	r25, 0x027D	; 0x80027d <note_number.2+0x1>
     b04:	89 2b       	or	r24, r25
     b06:	d9 f0       	breq	.+54     	; 0xb3e <.L19>

00000b08 <.L10>:
        buzzer_enable(1);
    }
    switch(note_number){
     b08:	80 91 7c 02 	lds	r24, 0x027C	; 0x80027c <note_number.2>
     b0c:	90 91 7d 02 	lds	r25, 0x027D	; 0x80027d <note_number.2+0x1>
     b10:	83 30       	cpi	r24, 0x03	; 3
     b12:	91 05       	cpc	r25, r1
     b14:	09 f4       	brne	.+2      	; 0xb18 <L0^A+0x2>

00000b16 <L0^A>:
     b16:	43 c0       	rjmp	.+134    	; 0xb9e <.L11>
     b18:	34 f5       	brge	.+76     	; 0xb66 <.L12>
     b1a:	81 30       	cpi	r24, 0x01	; 1
     b1c:	91 05       	cpc	r25, r1
     b1e:	99 f1       	breq	.+102    	; 0xb86 <.L13>
     b20:	82 30       	cpi	r24, 0x02	; 2
     b22:	91 05       	cpc	r25, r1
     b24:	81 f4       	brne	.+32     	; 0xb46 <.L20>

00000b26 <.Loc.57>:
        break;
    case 1:
        play_note(NOTE_3, 1, 0, &note_number);
        break;
    case 2:
        play_note(NOTE_1, 1, 10, &note_number);
     b26:	2c e7       	ldi	r18, 0x7C	; 124
     b28:	32 e0       	ldi	r19, 0x02	; 2
     b2a:	4a e0       	ldi	r20, 0x0A	; 10
     b2c:	50 e0       	ldi	r21, 0x00	; 0
     b2e:	61 e0       	ldi	r22, 0x01	; 1
     b30:	70 e0       	ldi	r23, 0x00	; 0
     b32:	8a e6       	ldi	r24, 0x6A	; 106
     b34:	91 e0       	ldi	r25, 0x01	; 1
     b36:	0e 94 44 05 	call	0xa88	; 0xa88 <play_note>

00000b3a <.LVL11>:
        buzzer_enable(0);
        note_number = 0;
        return 0;
        break;
    }
    return 1;
     b3a:	81 e0       	ldi	r24, 0x01	; 1

00000b3c <.Loc.60>:
        break;
     b3c:	08 95       	ret

00000b3e <.L19>:
        buzzer_enable(1);
     b3e:	81 e0       	ldi	r24, 0x01	; 1
     b40:	0e 94 28 05 	call	0xa50	; 0xa50 <buzzer_enable>

00000b44 <.LVL12>:
     b44:	e1 cf       	rjmp	.-62     	; 0xb08 <.L10>

00000b46 <.L20>:
    switch(note_number){
     b46:	89 2b       	or	r24, r25
     b48:	61 f4       	brne	.+24     	; 0xb62 <.L21>

00000b4a <.Loc.63>:
        play_note(NOTE_5, 1, 10, &note_number);
     b4a:	2c e7       	ldi	r18, 0x7C	; 124
     b4c:	32 e0       	ldi	r19, 0x02	; 2
     b4e:	4a e0       	ldi	r20, 0x0A	; 10
     b50:	50 e0       	ldi	r21, 0x00	; 0
     b52:	61 e0       	ldi	r22, 0x01	; 1
     b54:	70 e0       	ldi	r23, 0x00	; 0
     b56:	8c ee       	ldi	r24, 0xEC	; 236
     b58:	91 e0       	ldi	r25, 0x01	; 1
     b5a:	0e 94 44 05 	call	0xa88	; 0xa88 <play_note>

00000b5e <.LVL13>:
    return 1;
     b5e:	81 e0       	ldi	r24, 0x01	; 1

00000b60 <.Loc.66>:
        break;
     b60:	08 95       	ret

00000b62 <.L21>:
    switch(note_number){
     b62:	81 e0       	ldi	r24, 0x01	; 1
     b64:	08 95       	ret

00000b66 <.L12>:
     b66:	84 30       	cpi	r24, 0x04	; 4
     b68:	91 05       	cpc	r25, r1
     b6a:	29 f1       	breq	.+74     	; 0xbb6 <.L17>
     b6c:	05 97       	sbiw	r24, 0x05	; 5
     b6e:	49 f4       	brne	.+18     	; 0xb82 <.L22>

00000b70 <.Loc.68>:
        buzzer_enable(0);
     b70:	80 e0       	ldi	r24, 0x00	; 0
     b72:	0e 94 28 05 	call	0xa50	; 0xa50 <buzzer_enable>

00000b76 <.LVL14>:
        note_number = 0;
     b76:	10 92 7d 02 	sts	0x027D, r1	; 0x80027d <note_number.2+0x1>
     b7a:	10 92 7c 02 	sts	0x027C, r1	; 0x80027c <note_number.2>

00000b7e <.Loc.71>:
        return 0;
     b7e:	80 e0       	ldi	r24, 0x00	; 0

00000b80 <.Loc.73>:
}
     b80:	08 95       	ret

00000b82 <.L22>:
    switch(note_number){
     b82:	81 e0       	ldi	r24, 0x01	; 1
     b84:	08 95       	ret

00000b86 <.L13>:
        play_note(NOTE_3, 1, 0, &note_number);
     b86:	2c e7       	ldi	r18, 0x7C	; 124
     b88:	32 e0       	ldi	r19, 0x02	; 2
     b8a:	40 e0       	ldi	r20, 0x00	; 0
     b8c:	50 e0       	ldi	r21, 0x00	; 0
     b8e:	61 e0       	ldi	r22, 0x01	; 1
     b90:	70 e0       	ldi	r23, 0x00	; 0
     b92:	8e ea       	ldi	r24, 0xAE	; 174
     b94:	91 e0       	ldi	r25, 0x01	; 1
     b96:	0e 94 44 05 	call	0xa88	; 0xa88 <play_note>

00000b9a <.LVL15>:
    return 1;
     b9a:	81 e0       	ldi	r24, 0x01	; 1

00000b9c <.Loc.78>:
        break;
     b9c:	08 95       	ret

00000b9e <.L11>:
        play_note(NOTE_8, 1, 10, &note_number);
     b9e:	2c e7       	ldi	r18, 0x7C	; 124
     ba0:	32 e0       	ldi	r19, 0x02	; 2
     ba2:	4a e0       	ldi	r20, 0x0A	; 10
     ba4:	50 e0       	ldi	r21, 0x00	; 0
     ba6:	61 e0       	ldi	r22, 0x01	; 1
     ba8:	70 e0       	ldi	r23, 0x00	; 0
     baa:	8f e6       	ldi	r24, 0x6F	; 111
     bac:	92 e0       	ldi	r25, 0x02	; 2
     bae:	0e 94 44 05 	call	0xa88	; 0xa88 <play_note>

00000bb2 <.LVL16>:
    return 1;
     bb2:	81 e0       	ldi	r24, 0x01	; 1

00000bb4 <.Loc.82>:
        break;
     bb4:	08 95       	ret

00000bb6 <.L17>:
        play_note(NOTE_8, 1, 0, &note_number);
     bb6:	2c e7       	ldi	r18, 0x7C	; 124
     bb8:	32 e0       	ldi	r19, 0x02	; 2
     bba:	40 e0       	ldi	r20, 0x00	; 0
     bbc:	50 e0       	ldi	r21, 0x00	; 0
     bbe:	61 e0       	ldi	r22, 0x01	; 1
     bc0:	70 e0       	ldi	r23, 0x00	; 0
     bc2:	8f e6       	ldi	r24, 0x6F	; 111
     bc4:	92 e0       	ldi	r25, 0x02	; 2
     bc6:	0e 94 44 05 	call	0xa88	; 0xa88 <play_note>

00000bca <.LVL17>:
    return 1;
     bca:	81 e0       	ldi	r24, 0x01	; 1

00000bcc <.Loc.86>:
        break;
     bcc:	08 95       	ret

00000bce <play_beep_sad>:
// Slight variation on beep
char play_beep_sad(){
    static int note_number = 0;
    if(!note_number){
     bce:	80 91 7a 02 	lds	r24, 0x027A	; 0x80027a <note_number.1>
     bd2:	90 91 7b 02 	lds	r25, 0x027B	; 0x80027b <note_number.1+0x1>
     bd6:	89 2b       	or	r24, r25
     bd8:	d9 f0       	breq	.+54     	; 0xc10 <.L33>

00000bda <.L24>:
        buzzer_enable(1);
    }
    switch(note_number){
     bda:	80 91 7a 02 	lds	r24, 0x027A	; 0x80027a <note_number.1>
     bde:	90 91 7b 02 	lds	r25, 0x027B	; 0x80027b <note_number.1+0x1>
     be2:	83 30       	cpi	r24, 0x03	; 3
     be4:	91 05       	cpc	r25, r1
     be6:	09 f4       	brne	.+2      	; 0xbea <L0^A+0x2>

00000be8 <L0^A>:
     be8:	43 c0       	rjmp	.+134    	; 0xc70 <.L25>
     bea:	34 f5       	brge	.+76     	; 0xc38 <.L26>
     bec:	81 30       	cpi	r24, 0x01	; 1
     bee:	91 05       	cpc	r25, r1
     bf0:	99 f1       	breq	.+102    	; 0xc58 <.L27>
     bf2:	82 30       	cpi	r24, 0x02	; 2
     bf4:	91 05       	cpc	r25, r1
     bf6:	81 f4       	brne	.+32     	; 0xc18 <.L34>

00000bf8 <.Loc.92>:
        break;
    case 1:
        play_note(NOTE_3, 2, 0, &note_number);
        break;
    case 2:
        play_note(NOTE_2, 3, 1, &note_number);
     bf8:	2a e7       	ldi	r18, 0x7A	; 122
     bfa:	32 e0       	ldi	r19, 0x02	; 2
     bfc:	41 e0       	ldi	r20, 0x01	; 1
     bfe:	50 e0       	ldi	r21, 0x00	; 0
     c00:	63 e0       	ldi	r22, 0x03	; 3
     c02:	70 e0       	ldi	r23, 0x00	; 0
     c04:	8a e8       	ldi	r24, 0x8A	; 138
     c06:	91 e0       	ldi	r25, 0x01	; 1
     c08:	0e 94 44 05 	call	0xa88	; 0xa88 <play_note>

00000c0c <.LVL18>:
        buzzer_enable(0);
        note_number = 0;
        return 0;
        break;
    }
    return 1;
     c0c:	81 e0       	ldi	r24, 0x01	; 1

00000c0e <.Loc.95>:
        break;
     c0e:	08 95       	ret

00000c10 <.L33>:
        buzzer_enable(1);
     c10:	81 e0       	ldi	r24, 0x01	; 1
     c12:	0e 94 28 05 	call	0xa50	; 0xa50 <buzzer_enable>

00000c16 <.LVL19>:
     c16:	e1 cf       	rjmp	.-62     	; 0xbda <.L24>

00000c18 <.L34>:
    switch(note_number){
     c18:	89 2b       	or	r24, r25
     c1a:	61 f4       	brne	.+24     	; 0xc34 <.L35>

00000c1c <.Loc.98>:
        play_note(NOTE_3, 3, 1, &note_number);
     c1c:	2a e7       	ldi	r18, 0x7A	; 122
     c1e:	32 e0       	ldi	r19, 0x02	; 2
     c20:	41 e0       	ldi	r20, 0x01	; 1
     c22:	50 e0       	ldi	r21, 0x00	; 0
     c24:	63 e0       	ldi	r22, 0x03	; 3
     c26:	70 e0       	ldi	r23, 0x00	; 0
     c28:	8e ea       	ldi	r24, 0xAE	; 174
     c2a:	91 e0       	ldi	r25, 0x01	; 1
     c2c:	0e 94 44 05 	call	0xa88	; 0xa88 <play_note>

00000c30 <.LVL20>:
    return 1;
     c30:	81 e0       	ldi	r24, 0x01	; 1

00000c32 <.Loc.101>:
        break;
     c32:	08 95       	ret

00000c34 <.L35>:
    switch(note_number){
     c34:	81 e0       	ldi	r24, 0x01	; 1
     c36:	08 95       	ret

00000c38 <.L26>:
     c38:	84 30       	cpi	r24, 0x04	; 4
     c3a:	91 05       	cpc	r25, r1
     c3c:	29 f1       	breq	.+74     	; 0xc88 <.L31>
     c3e:	05 97       	sbiw	r24, 0x05	; 5
     c40:	49 f4       	brne	.+18     	; 0xc54 <.L36>

00000c42 <.Loc.103>:
        buzzer_enable(0);
     c42:	80 e0       	ldi	r24, 0x00	; 0
     c44:	0e 94 28 05 	call	0xa50	; 0xa50 <buzzer_enable>

00000c48 <.LVL21>:
        note_number = 0;
     c48:	10 92 7b 02 	sts	0x027B, r1	; 0x80027b <note_number.1+0x1>
     c4c:	10 92 7a 02 	sts	0x027A, r1	; 0x80027a <note_number.1>

00000c50 <.Loc.106>:
        return 0;
     c50:	80 e0       	ldi	r24, 0x00	; 0

00000c52 <.Loc.108>:
}
     c52:	08 95       	ret

00000c54 <.L36>:
    switch(note_number){
     c54:	81 e0       	ldi	r24, 0x01	; 1
     c56:	08 95       	ret

00000c58 <.L27>:
        play_note(NOTE_3, 2, 0, &note_number);
     c58:	2a e7       	ldi	r18, 0x7A	; 122
     c5a:	32 e0       	ldi	r19, 0x02	; 2
     c5c:	40 e0       	ldi	r20, 0x00	; 0
     c5e:	50 e0       	ldi	r21, 0x00	; 0
     c60:	62 e0       	ldi	r22, 0x02	; 2
     c62:	70 e0       	ldi	r23, 0x00	; 0
     c64:	8e ea       	ldi	r24, 0xAE	; 174
     c66:	91 e0       	ldi	r25, 0x01	; 1
     c68:	0e 94 44 05 	call	0xa88	; 0xa88 <play_note>

00000c6c <.LVL22>:
    return 1;
     c6c:	81 e0       	ldi	r24, 0x01	; 1

00000c6e <.Loc.113>:
        break;
     c6e:	08 95       	ret

00000c70 <.L25>:
        play_note(NOTE_1, 7, 1, &note_number);
     c70:	2a e7       	ldi	r18, 0x7A	; 122
     c72:	32 e0       	ldi	r19, 0x02	; 2
     c74:	41 e0       	ldi	r20, 0x01	; 1
     c76:	50 e0       	ldi	r21, 0x00	; 0
     c78:	67 e0       	ldi	r22, 0x07	; 7
     c7a:	70 e0       	ldi	r23, 0x00	; 0
     c7c:	8a e6       	ldi	r24, 0x6A	; 106
     c7e:	91 e0       	ldi	r25, 0x01	; 1
     c80:	0e 94 44 05 	call	0xa88	; 0xa88 <play_note>

00000c84 <.LVL23>:
    return 1;
     c84:	81 e0       	ldi	r24, 0x01	; 1

00000c86 <.Loc.117>:
        break;
     c86:	08 95       	ret

00000c88 <.L31>:
        play_note(NOTE_8, 30, 0, &note_number);
     c88:	2a e7       	ldi	r18, 0x7A	; 122
     c8a:	32 e0       	ldi	r19, 0x02	; 2
     c8c:	40 e0       	ldi	r20, 0x00	; 0
     c8e:	50 e0       	ldi	r21, 0x00	; 0
     c90:	6e e1       	ldi	r22, 0x1E	; 30
     c92:	70 e0       	ldi	r23, 0x00	; 0
     c94:	8f e6       	ldi	r24, 0x6F	; 111
     c96:	92 e0       	ldi	r25, 0x02	; 2
     c98:	0e 94 44 05 	call	0xa88	; 0xa88 <play_note>

00000c9c <.LVL24>:
    return 1;
     c9c:	81 e0       	ldi	r24, 0x01	; 1

00000c9e <.Loc.121>:
        break;
     c9e:	08 95       	ret

00000ca0 <play_song>:
// Sounds like old nokia
char play_song(){
    static int note_number = 0;
    if(!note_number){
     ca0:	80 91 78 02 	lds	r24, 0x0278	; 0x800278 <note_number.0>
     ca4:	90 91 79 02 	lds	r25, 0x0279	; 0x800279 <note_number.0+0x1>
     ca8:	89 2b       	or	r24, r25
     caa:	71 f0       	breq	.+28     	; 0xcc8 <.L57>

00000cac <.L38>:
        buzzer_enable(1);
    }
    switch(note_number){
     cac:	e0 91 78 02 	lds	r30, 0x0278	; 0x800278 <note_number.0>
     cb0:	f0 91 79 02 	lds	r31, 0x0279	; 0x800279 <note_number.0+0x1>
     cb4:	ef 30       	cpi	r30, 0x0F	; 15
     cb6:	f1 05       	cpc	r31, r1
     cb8:	08 f0       	brcs	.+2      	; 0xcbc <L0^A+0x2>

00000cba <L0^A>:
     cba:	bb c0       	rjmp	.+374    	; 0xe32 <.L56>
     cbc:	88 27       	eor	r24, r24
     cbe:	e6 54       	subi	r30, 0x46	; 70
     cc0:	f4 4f       	sbci	r31, 0xF4	; 244
     cc2:	8f 4f       	sbci	r24, 0xFF	; 255
     cc4:	0c 94 93 0b 	jmp	0x1726	; 0x1726 <__tablejump2__>

00000cc8 <.L57>:
        buzzer_enable(1);
     cc8:	81 e0       	ldi	r24, 0x01	; 1
     cca:	0e 94 28 05 	call	0xa50	; 0xa50 <buzzer_enable>

00000cce <.LVL25>:
     cce:	ee cf       	rjmp	.-36     	; 0xcac <.L38>

00000cd0 <.L55>:
    case 0:
        play_note(NOTE_8, 1, 1, &note_number);
     cd0:	28 e7       	ldi	r18, 0x78	; 120
     cd2:	32 e0       	ldi	r19, 0x02	; 2
     cd4:	41 e0       	ldi	r20, 0x01	; 1
     cd6:	50 e0       	ldi	r21, 0x00	; 0
     cd8:	61 e0       	ldi	r22, 0x01	; 1
     cda:	70 e0       	ldi	r23, 0x00	; 0
     cdc:	8f e6       	ldi	r24, 0x6F	; 111
     cde:	92 e0       	ldi	r25, 0x02	; 2
     ce0:	0e 94 44 05 	call	0xa88	; 0xa88 <play_note>

00000ce4 <.LVL26>:
        buzzer_enable(0);
        note_number = 0;
        return 0;
        break;
    }
    return 1;
     ce4:	81 e0       	ldi	r24, 0x01	; 1

00000ce6 <.Loc.131>:
        break;
     ce6:	08 95       	ret

00000ce8 <.L54>:
        play_note(NOTE_7, 1, 1, &note_number);
     ce8:	28 e7       	ldi	r18, 0x78	; 120
     cea:	32 e0       	ldi	r19, 0x02	; 2
     cec:	41 e0       	ldi	r20, 0x01	; 1
     cee:	50 e0       	ldi	r21, 0x00	; 0
     cf0:	61 e0       	ldi	r22, 0x01	; 1
     cf2:	70 e0       	ldi	r23, 0x00	; 0
     cf4:	82 e5       	ldi	r24, 0x52	; 82
     cf6:	92 e0       	ldi	r25, 0x02	; 2
     cf8:	0e 94 44 05 	call	0xa88	; 0xa88 <play_note>

00000cfc <.LVL27>:
    return 1;
     cfc:	81 e0       	ldi	r24, 0x01	; 1

00000cfe <.Loc.135>:
        break;
     cfe:	08 95       	ret

00000d00 <.L53>:
        play_note(NOTE_3, 2, 1, &note_number);
     d00:	28 e7       	ldi	r18, 0x78	; 120
     d02:	32 e0       	ldi	r19, 0x02	; 2
     d04:	41 e0       	ldi	r20, 0x01	; 1
     d06:	50 e0       	ldi	r21, 0x00	; 0
     d08:	62 e0       	ldi	r22, 0x02	; 2
     d0a:	70 e0       	ldi	r23, 0x00	; 0
     d0c:	8e ea       	ldi	r24, 0xAE	; 174
     d0e:	91 e0       	ldi	r25, 0x01	; 1
     d10:	0e 94 44 05 	call	0xa88	; 0xa88 <play_note>

00000d14 <.LVL28>:
    return 1;
     d14:	81 e0       	ldi	r24, 0x01	; 1

00000d16 <.Loc.139>:
        break;
     d16:	08 95       	ret

00000d18 <.L52>:
        play_note(NOTE_4, 2, 1, &note_number);
     d18:	28 e7       	ldi	r18, 0x78	; 120
     d1a:	32 e0       	ldi	r19, 0x02	; 2
     d1c:	41 e0       	ldi	r20, 0x01	; 1
     d1e:	50 e0       	ldi	r21, 0x00	; 0
     d20:	62 e0       	ldi	r22, 0x02	; 2
     d22:	70 e0       	ldi	r23, 0x00	; 0
     d24:	81 ec       	ldi	r24, 0xC1	; 193
     d26:	91 e0       	ldi	r25, 0x01	; 1
     d28:	0e 94 44 05 	call	0xa88	; 0xa88 <play_note>

00000d2c <.LVL29>:
    return 1;
     d2c:	81 e0       	ldi	r24, 0x01	; 1

00000d2e <.Loc.143>:
        break;
     d2e:	08 95       	ret

00000d30 <.L51>:
        play_note(NOTE_7, 1, 1, &note_number);
     d30:	28 e7       	ldi	r18, 0x78	; 120
     d32:	32 e0       	ldi	r19, 0x02	; 2
     d34:	41 e0       	ldi	r20, 0x01	; 1
     d36:	50 e0       	ldi	r21, 0x00	; 0
     d38:	61 e0       	ldi	r22, 0x01	; 1
     d3a:	70 e0       	ldi	r23, 0x00	; 0
     d3c:	82 e5       	ldi	r24, 0x52	; 82
     d3e:	92 e0       	ldi	r25, 0x02	; 2
     d40:	0e 94 44 05 	call	0xa88	; 0xa88 <play_note>

00000d44 <.LVL30>:
    return 1;
     d44:	81 e0       	ldi	r24, 0x01	; 1

00000d46 <.Loc.147>:
        break;
     d46:	08 95       	ret

00000d48 <.L50>:
        play_note(NOTE_6, 1, 1, &note_number);
     d48:	28 e7       	ldi	r18, 0x78	; 120
     d4a:	32 e0       	ldi	r19, 0x02	; 2
     d4c:	41 e0       	ldi	r20, 0x01	; 1
     d4e:	50 e0       	ldi	r21, 0x00	; 0
     d50:	61 e0       	ldi	r22, 0x01	; 1
     d52:	70 e0       	ldi	r23, 0x00	; 0
     d54:	8c e1       	ldi	r24, 0x1C	; 28
     d56:	92 e0       	ldi	r25, 0x02	; 2
     d58:	0e 94 44 05 	call	0xa88	; 0xa88 <play_note>

00000d5c <.LVL31>:
    return 1;
     d5c:	81 e0       	ldi	r24, 0x01	; 1

00000d5e <.Loc.151>:
        break;
     d5e:	08 95       	ret

00000d60 <.L49>:
        play_note(NOTE_1, 2, 1, &note_number);
     d60:	28 e7       	ldi	r18, 0x78	; 120
     d62:	32 e0       	ldi	r19, 0x02	; 2
     d64:	41 e0       	ldi	r20, 0x01	; 1
     d66:	50 e0       	ldi	r21, 0x00	; 0
     d68:	62 e0       	ldi	r22, 0x02	; 2
     d6a:	70 e0       	ldi	r23, 0x00	; 0
     d6c:	8a e6       	ldi	r24, 0x6A	; 106
     d6e:	91 e0       	ldi	r25, 0x01	; 1
     d70:	0e 94 44 05 	call	0xa88	; 0xa88 <play_note>

00000d74 <.LVL32>:
    return 1;
     d74:	81 e0       	ldi	r24, 0x01	; 1

00000d76 <.Loc.155>:
        break;
     d76:	08 95       	ret

00000d78 <.L48>:
        play_note(NOTE_2, 2, 1, &note_number);
     d78:	28 e7       	ldi	r18, 0x78	; 120
     d7a:	32 e0       	ldi	r19, 0x02	; 2
     d7c:	41 e0       	ldi	r20, 0x01	; 1
     d7e:	50 e0       	ldi	r21, 0x00	; 0
     d80:	62 e0       	ldi	r22, 0x02	; 2
     d82:	70 e0       	ldi	r23, 0x00	; 0
     d84:	8a e8       	ldi	r24, 0x8A	; 138
     d86:	91 e0       	ldi	r25, 0x01	; 1
     d88:	0e 94 44 05 	call	0xa88	; 0xa88 <play_note>

00000d8c <.LVL33>:
    return 1;
     d8c:	81 e0       	ldi	r24, 0x01	; 1

00000d8e <.Loc.159>:
        break;
     d8e:	08 95       	ret

00000d90 <.L47>:
        play_note(NOTE_6, 1, 1, &note_number);
     d90:	28 e7       	ldi	r18, 0x78	; 120
     d92:	32 e0       	ldi	r19, 0x02	; 2
     d94:	41 e0       	ldi	r20, 0x01	; 1
     d96:	50 e0       	ldi	r21, 0x00	; 0
     d98:	61 e0       	ldi	r22, 0x01	; 1
     d9a:	70 e0       	ldi	r23, 0x00	; 0
     d9c:	8c e1       	ldi	r24, 0x1C	; 28
     d9e:	92 e0       	ldi	r25, 0x02	; 2
     da0:	0e 94 44 05 	call	0xa88	; 0xa88 <play_note>

00000da4 <.LVL34>:
    return 1;
     da4:	81 e0       	ldi	r24, 0x01	; 1

00000da6 <.Loc.163>:
        break;
     da6:	08 95       	ret

00000da8 <.L46>:
        play_note(NOTE_5, 1, 1, &note_number);
     da8:	28 e7       	ldi	r18, 0x78	; 120
     daa:	32 e0       	ldi	r19, 0x02	; 2
     dac:	41 e0       	ldi	r20, 0x01	; 1
     dae:	50 e0       	ldi	r21, 0x00	; 0
     db0:	61 e0       	ldi	r22, 0x01	; 1
     db2:	70 e0       	ldi	r23, 0x00	; 0
     db4:	8c ee       	ldi	r24, 0xEC	; 236
     db6:	91 e0       	ldi	r25, 0x01	; 1
     db8:	0e 94 44 05 	call	0xa88	; 0xa88 <play_note>

00000dbc <.LVL35>:
    return 1;
     dbc:	81 e0       	ldi	r24, 0x01	; 1

00000dbe <.Loc.167>:
        break;
     dbe:	08 95       	ret

00000dc0 <.L45>:
        play_note(NOTE_1, 2, 1, &note_number);
     dc0:	28 e7       	ldi	r18, 0x78	; 120
     dc2:	32 e0       	ldi	r19, 0x02	; 2
     dc4:	41 e0       	ldi	r20, 0x01	; 1
     dc6:	50 e0       	ldi	r21, 0x00	; 0
     dc8:	62 e0       	ldi	r22, 0x02	; 2
     dca:	70 e0       	ldi	r23, 0x00	; 0
     dcc:	8a e6       	ldi	r24, 0x6A	; 106
     dce:	91 e0       	ldi	r25, 0x01	; 1
     dd0:	0e 94 44 05 	call	0xa88	; 0xa88 <play_note>

00000dd4 <.LVL36>:
    return 1;
     dd4:	81 e0       	ldi	r24, 0x01	; 1

00000dd6 <.Loc.171>:
        break;
     dd6:	08 95       	ret

00000dd8 <.L44>:
        play_note(NOTE_2, 2, 1, &note_number);
     dd8:	28 e7       	ldi	r18, 0x78	; 120
     dda:	32 e0       	ldi	r19, 0x02	; 2
     ddc:	41 e0       	ldi	r20, 0x01	; 1
     dde:	50 e0       	ldi	r21, 0x00	; 0
     de0:	62 e0       	ldi	r22, 0x02	; 2
     de2:	70 e0       	ldi	r23, 0x00	; 0
     de4:	8a e8       	ldi	r24, 0x8A	; 138
     de6:	91 e0       	ldi	r25, 0x01	; 1
     de8:	0e 94 44 05 	call	0xa88	; 0xa88 <play_note>

00000dec <.LVL37>:
    return 1;
     dec:	81 e0       	ldi	r24, 0x01	; 1

00000dee <.Loc.175>:
        break;
     dee:	08 95       	ret

00000df0 <.L43>:
        play_note(NOTE_3, 5, 1, &note_number);
     df0:	28 e7       	ldi	r18, 0x78	; 120
     df2:	32 e0       	ldi	r19, 0x02	; 2
     df4:	41 e0       	ldi	r20, 0x01	; 1
     df6:	50 e0       	ldi	r21, 0x00	; 0
     df8:	65 e0       	ldi	r22, 0x05	; 5
     dfa:	70 e0       	ldi	r23, 0x00	; 0
     dfc:	8e ea       	ldi	r24, 0xAE	; 174
     dfe:	91 e0       	ldi	r25, 0x01	; 1
     e00:	0e 94 44 05 	call	0xa88	; 0xa88 <play_note>

00000e04 <.LVL38>:
    return 1;
     e04:	81 e0       	ldi	r24, 0x01	; 1

00000e06 <.Loc.179>:
        break;
     e06:	08 95       	ret

00000e08 <.L42>:
        play_note(NOTE_1, 5, 0, &note_number);
     e08:	28 e7       	ldi	r18, 0x78	; 120
     e0a:	32 e0       	ldi	r19, 0x02	; 2
     e0c:	40 e0       	ldi	r20, 0x00	; 0
     e0e:	50 e0       	ldi	r21, 0x00	; 0
     e10:	65 e0       	ldi	r22, 0x05	; 5
     e12:	70 e0       	ldi	r23, 0x00	; 0
     e14:	8a e6       	ldi	r24, 0x6A	; 106
     e16:	91 e0       	ldi	r25, 0x01	; 1
     e18:	0e 94 44 05 	call	0xa88	; 0xa88 <play_note>

00000e1c <.LVL39>:
    return 1;
     e1c:	81 e0       	ldi	r24, 0x01	; 1

00000e1e <.Loc.183>:
        break;
     e1e:	08 95       	ret

00000e20 <.L40>:
        buzzer_enable(0);
     e20:	80 e0       	ldi	r24, 0x00	; 0
     e22:	0e 94 28 05 	call	0xa50	; 0xa50 <buzzer_enable>

00000e26 <.LVL40>:
        note_number = 0;
     e26:	10 92 79 02 	sts	0x0279, r1	; 0x800279 <note_number.0+0x1>
     e2a:	10 92 78 02 	sts	0x0278, r1	; 0x800278 <note_number.0>

00000e2e <.Loc.187>:
        return 0;
     e2e:	80 e0       	ldi	r24, 0x00	; 0
     e30:	08 95       	ret

00000e32 <.L56>:
    switch(note_number){
     e32:	81 e0       	ldi	r24, 0x01	; 1

00000e34 <.Loc.190>:
}
     e34:	08 95       	ret

00000e36 <spi_init>:
     e36:	84 b1       	in	r24, 0x04	; 4

00000e38 <.Loc.2>:
     e38:	87 60       	ori	r24, 0x07	; 7
     e3a:	84 b9       	out	0x04, r24	; 4

00000e3c <.Loc.3>:
     e3c:	23 98       	cbi	0x04, 3	; 4

00000e3e <.Loc.5>:
     e3e:	81 e5       	ldi	r24, 0x51	; 81
     e40:	8c bd       	out	0x2c, r24	; 44

00000e42 <.Loc.7>:
     e42:	08 95       	ret

00000e44 <spi_transfer>:
     e44:	8e bd       	out	0x2e, r24	; 46

00000e46 <.L3>:
     e46:	0d b4       	in	r0, 0x2d	; 45
     e48:	07 fe       	sbrs	r0, 7
     e4a:	fd cf       	rjmp	.-6      	; 0xe46 <.L3>

00000e4c <.Loc.13>:
     e4c:	8e b5       	in	r24, 0x2e	; 46

00000e4e <.Loc.15>:
     e4e:	08 95       	ret

00000e50 <read_register>:
     e50:	ef 92       	push	r14
     e52:	ff 92       	push	r15
     e54:	0f 93       	push	r16
     e56:	1f 93       	push	r17
     e58:	cf 93       	push	r28
     e5a:	df 93       	push	r29
     e5c:	00 d0       	rcall	.+0      	; 0xe5e <L0^A>

00000e5e <L0^A>:
     e5e:	0f 92       	push	r0
     e60:	0f 92       	push	r0
     e62:	cd b7       	in	r28, 0x3d	; 61
     e64:	de b7       	in	r29, 0x3e	; 62
     e66:	49 83       	std	Y+1, r20	; 0x01
     e68:	5a 83       	std	Y+2, r21	; 0x02
     e6a:	6b 83       	std	Y+3, r22	; 0x03
     e6c:	7c 83       	std	Y+4, r23	; 0x04
     e6e:	8d 83       	std	Y+5, r24	; 0x05
     e70:	82 2f       	mov	r24, r18
     e72:	09 81       	ldd	r16, Y+1	; 0x01
     e74:	1a 81       	ldd	r17, Y+2	; 0x02

00000e76 <.Loc.18>:
     e76:	f8 01       	movw	r30, r16
     e78:	40 81       	ld	r20, Z

00000e7a <.Loc.20>:
     e7a:	21 e0       	ldi	r18, 0x01	; 1
     e7c:	30 e0       	ldi	r19, 0x00	; 0

00000e7e <.Loc.21>:
     e7e:	79 01       	movw	r14, r18
     e80:	02 c0       	rjmp	.+4      	; 0xe86 <.L2^B1>

00000e82 <.L1^B1>:
     e82:	ee 0c       	add	r14, r14
     e84:	ff 1c       	adc	r15, r15

00000e86 <.L2^B1>:
     e86:	6a 95       	dec	r22
     e88:	e2 f7       	brpl	.-8      	; 0xe82 <.L1^B1>

00000e8a <.Loc.22>:
     e8a:	9e 2d       	mov	r25, r14
     e8c:	90 95       	com	r25
     e8e:	94 23       	and	r25, r20
     e90:	90 83       	st	Z, r25

00000e92 <.Loc.23>:
     e92:	88 0f       	add	r24, r24

00000e94 <.Loc.25>:
     e94:	8e 77       	andi	r24, 0x7E	; 126

00000e96 <.Loc.26>:
     e96:	80 68       	ori	r24, 0x80	; 128
     e98:	0e 94 22 07 	call	0xe44	; 0xe44 <spi_transfer>

00000e9c <.LVL6>:
     e9c:	80 e0       	ldi	r24, 0x00	; 0
     e9e:	0e 94 22 07 	call	0xe44	; 0xe44 <spi_transfer>

00000ea2 <.LVL7>:
     ea2:	f8 01       	movw	r30, r16
     ea4:	90 81       	ld	r25, Z

00000ea6 <.Loc.30>:
     ea6:	9e 29       	or	r25, r14
     ea8:	90 83       	st	Z, r25

00000eaa <.Loc.31>:
     eaa:	0f 90       	pop	r0
     eac:	0f 90       	pop	r0
     eae:	0f 90       	pop	r0
     eb0:	0f 90       	pop	r0
     eb2:	0f 90       	pop	r0
     eb4:	df 91       	pop	r29
     eb6:	cf 91       	pop	r28
     eb8:	1f 91       	pop	r17
     eba:	0f 91       	pop	r16

00000ebc <.Loc.33>:
     ebc:	ff 90       	pop	r15
     ebe:	ef 90       	pop	r14
     ec0:	08 95       	ret

00000ec2 <write_register>:
     ec2:	cf 92       	push	r12
     ec4:	df 92       	push	r13
     ec6:	ef 92       	push	r14
     ec8:	ff 92       	push	r15
     eca:	0f 93       	push	r16
     ecc:	cf 93       	push	r28
     ece:	df 93       	push	r29
     ed0:	00 d0       	rcall	.+0      	; 0xed2 <L0^A>

00000ed2 <L0^A>:
     ed2:	0f 92       	push	r0
     ed4:	0f 92       	push	r0
     ed6:	cd b7       	in	r28, 0x3d	; 61
     ed8:	de b7       	in	r29, 0x3e	; 62
     eda:	49 83       	std	Y+1, r20	; 0x01
     edc:	5a 83       	std	Y+2, r21	; 0x02
     ede:	6b 83       	std	Y+3, r22	; 0x03
     ee0:	7c 83       	std	Y+4, r23	; 0x04
     ee2:	8d 83       	std	Y+5, r24	; 0x05
     ee4:	e9 80       	ldd	r14, Y+1	; 0x01
     ee6:	fa 80       	ldd	r15, Y+2	; 0x02

00000ee8 <.Loc.36>:
     ee8:	f7 01       	movw	r30, r14
     eea:	90 81       	ld	r25, Z

00000eec <.Loc.37>:
     eec:	41 e0       	ldi	r20, 0x01	; 1
     eee:	50 e0       	ldi	r21, 0x00	; 0
     ef0:	6a 01       	movw	r12, r20
     ef2:	02 c0       	rjmp	.+4      	; 0xef8 <.L2^B2>

00000ef4 <.L1^B2>:
     ef4:	cc 0c       	add	r12, r12
     ef6:	dd 1c       	adc	r13, r13

00000ef8 <.L2^B2>:
     ef8:	6a 95       	dec	r22
     efa:	e2 f7       	brpl	.-8      	; 0xef4 <.L1^B2>

00000efc <.Loc.38>:
     efc:	8c 2d       	mov	r24, r12
     efe:	80 95       	com	r24
     f00:	89 23       	and	r24, r25
     f02:	80 83       	st	Z, r24

00000f04 <.Loc.39>:
     f04:	82 2f       	mov	r24, r18
     f06:	88 0f       	add	r24, r24

00000f08 <.Loc.41>:
     f08:	8e 77       	andi	r24, 0x7E	; 126
     f0a:	0e 94 22 07 	call	0xe44	; 0xe44 <spi_transfer>

00000f0e <.LVL11>:
     f0e:	80 2f       	mov	r24, r16
     f10:	0e 94 22 07 	call	0xe44	; 0xe44 <spi_transfer>

00000f14 <.LVL12>:
     f14:	f7 01       	movw	r30, r14
     f16:	80 81       	ld	r24, Z

00000f18 <.Loc.44>:
     f18:	8c 29       	or	r24, r12
     f1a:	80 83       	st	Z, r24

00000f1c <.Loc.45>:
     f1c:	0f 90       	pop	r0
     f1e:	0f 90       	pop	r0
     f20:	0f 90       	pop	r0
     f22:	0f 90       	pop	r0
     f24:	0f 90       	pop	r0
     f26:	df 91       	pop	r29
     f28:	cf 91       	pop	r28
     f2a:	0f 91       	pop	r16

00000f2c <.Loc.46>:
     f2c:	ff 90       	pop	r15
     f2e:	ef 90       	pop	r14

00000f30 <.Loc.47>:
     f30:	df 90       	pop	r13
     f32:	cf 90       	pop	r12
     f34:	08 95       	ret

00000f36 <rfid_init>:
     f36:	af 92       	push	r10
     f38:	bf 92       	push	r11
     f3a:	df 92       	push	r13
     f3c:	ef 92       	push	r14
     f3e:	ff 92       	push	r15
     f40:	0f 93       	push	r16
     f42:	1f 93       	push	r17
     f44:	cf 93       	push	r28
     f46:	df 93       	push	r29
     f48:	00 d0       	rcall	.+0      	; 0xf4a <L0^A>

00000f4a <L0^A>:
     f4a:	0f 92       	push	r0
     f4c:	0f 92       	push	r0
     f4e:	cd b7       	in	r28, 0x3d	; 61
     f50:	de b7       	in	r29, 0x3e	; 62
     f52:	49 83       	std	Y+1, r20	; 0x01
     f54:	5a 83       	std	Y+2, r21	; 0x02
     f56:	d6 2e       	mov	r13, r22
     f58:	6b 83       	std	Y+3, r22	; 0x03
     f5a:	7c 83       	std	Y+4, r23	; 0x04
     f5c:	8d 83       	std	Y+5, r24	; 0x05
     f5e:	09 81       	ldd	r16, Y+1	; 0x01
     f60:	1a 81       	ldd	r17, Y+2	; 0x02

00000f62 <.Loc.49>:
     f62:	ec 80       	ldd	r14, Y+4	; 0x04
     f64:	fd 80       	ldd	r15, Y+5	; 0x05

00000f66 <.Loc.50>:
     f66:	f7 01       	movw	r30, r14
     f68:	20 81       	ld	r18, Z

00000f6a <.Loc.51>:
     f6a:	81 e0       	ldi	r24, 0x01	; 1
     f6c:	90 e0       	ldi	r25, 0x00	; 0
     f6e:	02 c0       	rjmp	.+4      	; 0xf74 <.L2^B3>

00000f70 <.L1^B3>:
     f70:	88 0f       	add	r24, r24
     f72:	99 1f       	adc	r25, r25

00000f74 <.L2^B3>:
     f74:	6a 95       	dec	r22
     f76:	e2 f7       	brpl	.-8      	; 0xf70 <.L1^B3>

00000f78 <.Loc.52>:
     f78:	92 2f       	mov	r25, r18
     f7a:	98 2b       	or	r25, r24
     f7c:	90 83       	st	Z, r25

00000f7e <.Loc.53>:
     f7e:	e1 e0       	ldi	r30, 0x01	; 1
     f80:	f1 e0       	ldi	r31, 0x01	; 1
     f82:	90 81       	ld	r25, Z

00000f84 <.Loc.54>:
     f84:	90 64       	ori	r25, 0x40	; 64
     f86:	90 83       	st	Z, r25

00000f88 <.Loc.55>:
     f88:	f8 01       	movw	r30, r16
     f8a:	90 81       	ld	r25, Z

00000f8c <.Loc.56>:
     f8c:	89 2b       	or	r24, r25
     f8e:	80 83       	st	Z, r24

00000f90 <.Loc.57>:
     f90:	68 94       	set
     f92:	aa 24       	eor	r10, r10
     f94:	a1 f8       	bld	r10, 1
     f96:	bb 24       	eor	r11, r11
     f98:	b3 94       	inc	r11
     f9a:	f5 01       	movw	r30, r10
     f9c:	80 81       	ld	r24, Z

00000f9e <.Loc.58>:
     f9e:	80 64       	ori	r24, 0x40	; 64
     fa0:	80 83       	st	Z, r24

00000fa2 <.Loc.59>:
     fa2:	0e 94 1b 07 	call	0xe36	; 0xe36 <spi_init>

00000fa6 <.LVL17>:
     fa6:	f5 01       	movw	r30, r10
     fa8:	80 81       	ld	r24, Z
     faa:	8f 7b       	andi	r24, 0xBF	; 191
     fac:	80 83       	st	Z, r24

00000fae <.Loc.62>:
     fae:	80 81       	ld	r24, Z

00000fb0 <.Loc.63>:
     fb0:	80 64       	ori	r24, 0x40	; 64
     fb2:	80 83       	st	Z, r24

00000fb4 <.L8>:
     fb4:	40 2f       	mov	r20, r16
     fb6:	51 2f       	mov	r21, r17
     fb8:	1a 83       	std	Y+2, r17	; 0x02
     fba:	09 83       	std	Y+1, r16	; 0x01
     fbc:	db 82       	std	Y+3, r13	; 0x03
     fbe:	7e 2d       	mov	r23, r14
     fc0:	fd 82       	std	Y+5, r15	; 0x05
     fc2:	ec 82       	std	Y+4, r14	; 0x04
     fc4:	27 e3       	ldi	r18, 0x37	; 55
     fc6:	6d 2d       	mov	r22, r13
     fc8:	8f 2d       	mov	r24, r15
     fca:	0e 94 28 07 	call	0xe50	; 0xe50 <read_register>

00000fce <.LVL18>:
     fce:	82 39       	cpi	r24, 0x92	; 146
     fd0:	89 f7       	brne	.-30     	; 0xfb4 <.L8>

00000fd2 <.Loc.68>:
     fd2:	00 e7       	ldi	r16, 0x70	; 112

00000fd4 <.Loc.69>:
     fd4:	26 e2       	ldi	r18, 0x26	; 38
     fd6:	49 81       	ldd	r20, Y+1	; 0x01
     fd8:	5a 81       	ldd	r21, Y+2	; 0x02
     fda:	6b 81       	ldd	r22, Y+3	; 0x03
     fdc:	7c 81       	ldd	r23, Y+4	; 0x04
     fde:	8d 81       	ldd	r24, Y+5	; 0x05
     fe0:	0e 94 61 07 	call	0xec2	; 0xec2 <write_register>

00000fe4 <.LVL20>:
     fe4:	00 e8       	ldi	r16, 0x80	; 128
     fe6:	2a e2       	ldi	r18, 0x2A	; 42
     fe8:	49 81       	ldd	r20, Y+1	; 0x01
     fea:	5a 81       	ldd	r21, Y+2	; 0x02
     fec:	6b 81       	ldd	r22, Y+3	; 0x03
     fee:	7c 81       	ldd	r23, Y+4	; 0x04
     ff0:	8d 81       	ldd	r24, Y+5	; 0x05
     ff2:	0e 94 61 07 	call	0xec2	; 0xec2 <write_register>

00000ff6 <.LVL21>:
     ff6:	09 ea       	ldi	r16, 0xA9	; 169
     ff8:	2b e2       	ldi	r18, 0x2B	; 43
     ffa:	49 81       	ldd	r20, Y+1	; 0x01
     ffc:	5a 81       	ldd	r21, Y+2	; 0x02
     ffe:	6b 81       	ldd	r22, Y+3	; 0x03
    1000:	7c 81       	ldd	r23, Y+4	; 0x04
    1002:	8d 81       	ldd	r24, Y+5	; 0x05
    1004:	0e 94 61 07 	call	0xec2	; 0xec2 <write_register>

00001008 <.LVL22>:
    1008:	08 ee       	ldi	r16, 0xE8	; 232
    100a:	2d e2       	ldi	r18, 0x2D	; 45
    100c:	49 81       	ldd	r20, Y+1	; 0x01
    100e:	5a 81       	ldd	r21, Y+2	; 0x02
    1010:	6b 81       	ldd	r22, Y+3	; 0x03
    1012:	7c 81       	ldd	r23, Y+4	; 0x04
    1014:	8d 81       	ldd	r24, Y+5	; 0x05
    1016:	0e 94 61 07 	call	0xec2	; 0xec2 <write_register>

0000101a <.LVL23>:
    101a:	03 e0       	ldi	r16, 0x03	; 3
    101c:	2c e2       	ldi	r18, 0x2C	; 44
    101e:	49 81       	ldd	r20, Y+1	; 0x01
    1020:	5a 81       	ldd	r21, Y+2	; 0x02
    1022:	6b 81       	ldd	r22, Y+3	; 0x03
    1024:	7c 81       	ldd	r23, Y+4	; 0x04
    1026:	8d 81       	ldd	r24, Y+5	; 0x05
    1028:	0e 94 61 07 	call	0xec2	; 0xec2 <write_register>

0000102c <.LVL24>:
    102c:	00 e4       	ldi	r16, 0x40	; 64
    102e:	25 e1       	ldi	r18, 0x15	; 21
    1030:	49 81       	ldd	r20, Y+1	; 0x01
    1032:	5a 81       	ldd	r21, Y+2	; 0x02
    1034:	6b 81       	ldd	r22, Y+3	; 0x03
    1036:	7c 81       	ldd	r23, Y+4	; 0x04
    1038:	8d 81       	ldd	r24, Y+5	; 0x05
    103a:	0e 94 61 07 	call	0xec2	; 0xec2 <write_register>

0000103e <.LVL25>:
    103e:	0d e3       	ldi	r16, 0x3D	; 61
    1040:	21 e1       	ldi	r18, 0x11	; 17
    1042:	49 81       	ldd	r20, Y+1	; 0x01
    1044:	5a 81       	ldd	r21, Y+2	; 0x02
    1046:	6b 81       	ldd	r22, Y+3	; 0x03
    1048:	7c 81       	ldd	r23, Y+4	; 0x04
    104a:	8d 81       	ldd	r24, Y+5	; 0x05
    104c:	0e 94 61 07 	call	0xec2	; 0xec2 <write_register>

00001050 <.LVL26>:
    1050:	24 e1       	ldi	r18, 0x14	; 20
    1052:	49 81       	ldd	r20, Y+1	; 0x01
    1054:	5a 81       	ldd	r21, Y+2	; 0x02
    1056:	6b 81       	ldd	r22, Y+3	; 0x03
    1058:	7c 81       	ldd	r23, Y+4	; 0x04
    105a:	8d 81       	ldd	r24, Y+5	; 0x05
    105c:	0e 94 28 07 	call	0xe50	; 0xe50 <read_register>

00001060 <.LVL27>:
    1060:	98 2f       	mov	r25, r24
    1062:	93 70       	andi	r25, 0x03	; 3
    1064:	99 23       	and	r25, r25
    1066:	79 f0       	breq	.+30     	; 0x1086 <.L11>

00001068 <.L7>:
    1068:	0f 90       	pop	r0
    106a:	0f 90       	pop	r0
    106c:	0f 90       	pop	r0
    106e:	0f 90       	pop	r0
    1070:	0f 90       	pop	r0
    1072:	df 91       	pop	r29
    1074:	cf 91       	pop	r28
    1076:	1f 91       	pop	r17
    1078:	0f 91       	pop	r16
    107a:	ff 90       	pop	r15
    107c:	ef 90       	pop	r14

0000107e <.Loc.81>:
    107e:	df 90       	pop	r13

00001080 <.Loc.82>:
    1080:	bf 90       	pop	r11
    1082:	af 90       	pop	r10
    1084:	08 95       	ret

00001086 <.L11>:
    1086:	08 2f       	mov	r16, r24
    1088:	03 60       	ori	r16, 0x03	; 3
    108a:	24 e1       	ldi	r18, 0x14	; 20
    108c:	49 81       	ldd	r20, Y+1	; 0x01
    108e:	5a 81       	ldd	r21, Y+2	; 0x02
    1090:	6b 81       	ldd	r22, Y+3	; 0x03
    1092:	7c 81       	ldd	r23, Y+4	; 0x04
    1094:	8d 81       	ldd	r24, Y+5	; 0x05

00001096 <.Loc.84>:
    1096:	0e 94 61 07 	call	0xec2	; 0xec2 <write_register>

0000109a <.LVL33>:
    109a:	e6 cf       	rjmp	.-52     	; 0x1068 <.L7>

0000109c <rfid_check_tag_present>:
    109c:	0f 93       	push	r16
    109e:	1f 93       	push	r17
    10a0:	cf 93       	push	r28
    10a2:	df 93       	push	r29
    10a4:	00 d0       	rcall	.+0      	; 0x10a6 <L0^A>

000010a6 <L0^A>:
    10a6:	0f 92       	push	r0
    10a8:	0f 92       	push	r0
    10aa:	cd b7       	in	r28, 0x3d	; 61
    10ac:	de b7       	in	r29, 0x3e	; 62
    10ae:	49 83       	std	Y+1, r20	; 0x01
    10b0:	5a 83       	std	Y+2, r21	; 0x02
    10b2:	6b 83       	std	Y+3, r22	; 0x03
    10b4:	7c 83       	std	Y+4, r23	; 0x04
    10b6:	8d 83       	std	Y+5, r24	; 0x05

000010b8 <.Loc.87>:
    10b8:	07 e0       	ldi	r16, 0x07	; 7
    10ba:	2d e0       	ldi	r18, 0x0D	; 13
    10bc:	0e 94 61 07 	call	0xec2	; 0xec2 <write_register>

000010c0 <.LVL34>:
    10c0:	00 e0       	ldi	r16, 0x00	; 0
    10c2:	21 e0       	ldi	r18, 0x01	; 1
    10c4:	49 81       	ldd	r20, Y+1	; 0x01
    10c6:	5a 81       	ldd	r21, Y+2	; 0x02
    10c8:	6b 81       	ldd	r22, Y+3	; 0x03
    10ca:	7c 81       	ldd	r23, Y+4	; 0x04
    10cc:	8d 81       	ldd	r24, Y+5	; 0x05
    10ce:	0e 94 61 07 	call	0xec2	; 0xec2 <write_register>

000010d2 <.LVL35>:
    10d2:	06 e2       	ldi	r16, 0x26	; 38
    10d4:	29 e0       	ldi	r18, 0x09	; 9
    10d6:	49 81       	ldd	r20, Y+1	; 0x01
    10d8:	5a 81       	ldd	r21, Y+2	; 0x02
    10da:	6b 81       	ldd	r22, Y+3	; 0x03
    10dc:	7c 81       	ldd	r23, Y+4	; 0x04
    10de:	8d 81       	ldd	r24, Y+5	; 0x05
    10e0:	0e 94 61 07 	call	0xec2	; 0xec2 <write_register>

000010e4 <.LVL36>:
    10e4:	0c e0       	ldi	r16, 0x0C	; 12
    10e6:	21 e0       	ldi	r18, 0x01	; 1
    10e8:	49 81       	ldd	r20, Y+1	; 0x01
    10ea:	5a 81       	ldd	r21, Y+2	; 0x02
    10ec:	6b 81       	ldd	r22, Y+3	; 0x03
    10ee:	7c 81       	ldd	r23, Y+4	; 0x04
    10f0:	8d 81       	ldd	r24, Y+5	; 0x05
    10f2:	0e 94 61 07 	call	0xec2	; 0xec2 <write_register>

000010f6 <.LVL37>:
    10f6:	07 e8       	ldi	r16, 0x87	; 135
    10f8:	2d e0       	ldi	r18, 0x0D	; 13
    10fa:	49 81       	ldd	r20, Y+1	; 0x01
    10fc:	5a 81       	ldd	r21, Y+2	; 0x02
    10fe:	6b 81       	ldd	r22, Y+3	; 0x03
    1100:	7c 81       	ldd	r23, Y+4	; 0x04
    1102:	8d 81       	ldd	r24, Y+5	; 0x05
    1104:	0e 94 61 07 	call	0xec2	; 0xec2 <write_register>

00001108 <.LVL38>:
    1108:	18 ec       	ldi	r17, 0xC8	; 200

0000110a <.L14>:
    110a:	24 e0       	ldi	r18, 0x04	; 4
    110c:	49 81       	ldd	r20, Y+1	; 0x01
    110e:	5a 81       	ldd	r21, Y+2	; 0x02
    1110:	6b 81       	ldd	r22, Y+3	; 0x03
    1112:	7c 81       	ldd	r23, Y+4	; 0x04
    1114:	8d 81       	ldd	r24, Y+5	; 0x05
    1116:	0e 94 28 07 	call	0xe50	; 0xe50 <read_register>

0000111a <.LVL40>:
    111a:	80 73       	andi	r24, 0x30	; 48

0000111c <.Loc.100>:
    111c:	81 11       	cpse	r24, r1
    111e:	03 c0       	rjmp	.+6      	; 0x1126 <.L13>

00001120 <.LBE5>:
    1120:	11 50       	subi	r17, 0x01	; 1

00001122 <.Loc.103>:
    1122:	11 11       	cpse	r17, r1
    1124:	f2 cf       	rjmp	.-28     	; 0x110a <.L14>

00001126 <.L13>:
    1126:	26 e0       	ldi	r18, 0x06	; 6
    1128:	49 81       	ldd	r20, Y+1	; 0x01
    112a:	5a 81       	ldd	r21, Y+2	; 0x02
    112c:	6b 81       	ldd	r22, Y+3	; 0x03
    112e:	7c 81       	ldd	r23, Y+4	; 0x04
    1130:	8d 81       	ldd	r24, Y+5	; 0x05
    1132:	0e 94 28 07 	call	0xe50	; 0xe50 <read_register>

00001136 <.LVL45>:
    1136:	8b 71       	andi	r24, 0x1B	; 27

00001138 <.Loc.108>:
    1138:	88 23       	and	r24, r24
    113a:	59 f0       	breq	.+22     	; 0x1152 <.L19>

0000113c <.Loc.109>:
    113c:	80 e0       	ldi	r24, 0x00	; 0

0000113e <.L12>:
    113e:	0f 90       	pop	r0
    1140:	0f 90       	pop	r0
    1142:	0f 90       	pop	r0
    1144:	0f 90       	pop	r0
    1146:	0f 90       	pop	r0
    1148:	df 91       	pop	r29
    114a:	cf 91       	pop	r28
    114c:	1f 91       	pop	r17
    114e:	0f 91       	pop	r16
    1150:	08 95       	ret

00001152 <.L19>:
    1152:	2a e0       	ldi	r18, 0x0A	; 10
    1154:	49 81       	ldd	r20, Y+1	; 0x01
    1156:	5a 81       	ldd	r21, Y+2	; 0x02
    1158:	6b 81       	ldd	r22, Y+3	; 0x03
    115a:	7c 81       	ldd	r23, Y+4	; 0x04
    115c:	8d 81       	ldd	r24, Y+5	; 0x05
    115e:	0e 94 28 07 	call	0xe50	; 0xe50 <read_register>

00001162 <.LVL47>:
    1162:	18 2f       	mov	r17, r24

00001164 <.Loc.113>:
    1164:	00 e8       	ldi	r16, 0x80	; 128
    1166:	2a e0       	ldi	r18, 0x0A	; 10
    1168:	49 81       	ldd	r20, Y+1	; 0x01
    116a:	5a 81       	ldd	r21, Y+2	; 0x02
    116c:	6b 81       	ldd	r22, Y+3	; 0x03
    116e:	7c 81       	ldd	r23, Y+4	; 0x04
    1170:	8d 81       	ldd	r24, Y+5	; 0x05
    1172:	0e 94 61 07 	call	0xec2	; 0xec2 <write_register>

00001176 <.LVL49>:
    1176:	81 e0       	ldi	r24, 0x01	; 1
    1178:	11 11       	cpse	r17, r1
    117a:	e1 cf       	rjmp	.-62     	; 0x113e <.L12>
    117c:	80 e0       	ldi	r24, 0x00	; 0
    117e:	df cf       	rjmp	.-66     	; 0x113e <.L12>

00001180 <rfid_tag_detected>:
    1180:	cf 93       	push	r28
    1182:	df 93       	push	r29
    1184:	00 d0       	rcall	.+0      	; 0x1186 <L0^A>

00001186 <L0^A>:
    1186:	0f 92       	push	r0
    1188:	0f 92       	push	r0
    118a:	cd b7       	in	r28, 0x3d	; 61
    118c:	de b7       	in	r29, 0x3e	; 62
    118e:	49 83       	std	Y+1, r20	; 0x01
    1190:	5a 83       	std	Y+2, r21	; 0x02
    1192:	6b 83       	std	Y+3, r22	; 0x03
    1194:	7c 83       	std	Y+4, r23	; 0x04
    1196:	8d 83       	std	Y+5, r24	; 0x05

00001198 <.Loc.117>:
    1198:	0e 94 4e 08 	call	0x109c	; 0x109c <rfid_check_tag_present>

0000119c <.LVL51>:
    119c:	81 11       	cpse	r24, r1
    119e:	1d c0       	rjmp	.+58     	; 0x11da <.L21>

000011a0 <.LBI7>:
    11a0:	8f e9       	ldi	r24, 0x9F	; 159
    11a2:	9f e0       	ldi	r25, 0x0F	; 15

000011a4 <.L1^B4>:
    11a4:	01 97       	sbiw	r24, 0x01	; 1
    11a6:	f1 f7       	brne	.-4      	; 0x11a4 <.L1^B4>
    11a8:	00 c0       	rjmp	.+0      	; 0x11aa <L0^A>

000011aa <L0^A>:
	...

000011ac <.Loc.131>:
    11ac:	49 81       	ldd	r20, Y+1	; 0x01
    11ae:	5a 81       	ldd	r21, Y+2	; 0x02
    11b0:	6b 81       	ldd	r22, Y+3	; 0x03
    11b2:	7c 81       	ldd	r23, Y+4	; 0x04
    11b4:	8d 81       	ldd	r24, Y+5	; 0x05
    11b6:	0e 94 4e 08 	call	0x109c	; 0x109c <rfid_check_tag_present>

000011ba <.LVL54>:
    11ba:	81 11       	cpse	r24, r1
    11bc:	0e c0       	rjmp	.+28     	; 0x11da <.L21>

000011be <.Loc.137>:
    11be:	ef e9       	ldi	r30, 0x9F	; 159
    11c0:	ff e0       	ldi	r31, 0x0F	; 15

000011c2 <.L1^B5>:
    11c2:	31 97       	sbiw	r30, 0x01	; 1
    11c4:	f1 f7       	brne	.-4      	; 0x11c2 <.L1^B5>
    11c6:	00 c0       	rjmp	.+0      	; 0x11c8 <L0^A>

000011c8 <L0^A>:
	...

000011ca <.L20>:
    11ca:	0f 90       	pop	r0
    11cc:	0f 90       	pop	r0
    11ce:	0f 90       	pop	r0
    11d0:	0f 90       	pop	r0
    11d2:	0f 90       	pop	r0
    11d4:	df 91       	pop	r29
    11d6:	cf 91       	pop	r28
    11d8:	08 95       	ret

000011da <.L21>:
    11da:	81 e0       	ldi	r24, 0x01	; 1
    11dc:	f6 cf       	rjmp	.-20     	; 0x11ca <.L20>

000011de <display_start>:
    0b00000000      // BLANK 19
};

// Start Condition
void display_start(void){
    DDR_DIO |= (1<<PIN_DIO);
    11de:	ea e0       	ldi	r30, 0x0A	; 10
    11e0:	f1 e0       	ldi	r31, 0x01	; 1
    11e2:	80 81       	ld	r24, Z

000011e4 <.Loc.2>:
    11e4:	80 68       	ori	r24, 0x80	; 128
    11e6:	80 83       	st	Z, r24

000011e8 <.Loc.3>:
    PORT_DIO |= (1<<PIN_DIO);
    11e8:	eb e0       	ldi	r30, 0x0B	; 11
    11ea:	f1 e0       	ldi	r31, 0x01	; 1
    11ec:	80 81       	ld	r24, Z

000011ee <.Loc.4>:
    11ee:	80 68       	ori	r24, 0x80	; 128
    11f0:	80 83       	st	Z, r24

000011f2 <.Loc.5>:
    PORT_CLK |= (1<<PIN_CLK);
    11f2:	80 81       	ld	r24, Z

000011f4 <.Loc.6>:
    11f4:	80 62       	ori	r24, 0x20	; 32
    11f6:	80 83       	st	Z, r24

000011f8 <.Loc.7>:
    PORT_DIO &= ~(1<<PIN_DIO);
    11f8:	80 81       	ld	r24, Z
    11fa:	8f 77       	andi	r24, 0x7F	; 127
    11fc:	80 83       	st	Z, r24

000011fe <.Loc.9>:
}
    11fe:	08 95       	ret

00001200 <display_stop>:

// Stop Condition
void display_stop(void){
    DDR_DIO |= (1<<PIN_DIO);
    1200:	ea e0       	ldi	r30, 0x0A	; 10
    1202:	f1 e0       	ldi	r31, 0x01	; 1
    1204:	80 81       	ld	r24, Z

00001206 <.Loc.12>:
    1206:	80 68       	ori	r24, 0x80	; 128
    1208:	80 83       	st	Z, r24

0000120a <.Loc.13>:
    PORT_CLK &= ~(1<<PIN_CLK);
    120a:	eb e0       	ldi	r30, 0x0B	; 11
    120c:	f1 e0       	ldi	r31, 0x01	; 1
    120e:	80 81       	ld	r24, Z
    1210:	8f 7d       	andi	r24, 0xDF	; 223
    1212:	80 83       	st	Z, r24

00001214 <.Loc.15>:
    PORT_CLK |= (1<<PIN_CLK);
    1214:	80 81       	ld	r24, Z

00001216 <.Loc.16>:
    1216:	80 62       	ori	r24, 0x20	; 32
    1218:	80 83       	st	Z, r24

0000121a <.Loc.17>:
    PORT_DIO |= (1<<PIN_DIO);
    121a:	80 81       	ld	r24, Z

0000121c <.Loc.18>:
    121c:	80 68       	ori	r24, 0x80	; 128
    121e:	80 83       	st	Z, r24

00001220 <.Loc.19>:
}
    1220:	08 95       	ret

00001222 <display_sendbyte>:

// Write One Byte (LSB first)
void display_sendbyte(unsigned char data){
    DDR_DIO |= (1<<PIN_DIO);
    1222:	ea e0       	ldi	r30, 0x0A	; 10
    1224:	f1 e0       	ldi	r31, 0x01	; 1
    1226:	90 81       	ld	r25, Z

00001228 <.Loc.22>:
    1228:	90 68       	ori	r25, 0x80	; 128
    122a:	90 83       	st	Z, r25

0000122c <.Loc.23>:
    122c:	28 e0       	ldi	r18, 0x08	; 8
    122e:	30 e0       	ldi	r19, 0x00	; 0

00001230 <.Loc.27>:
    for(int i = 0; i < 8; i++){
        PORT_CLK &= ~(1<<PIN_CLK);
    1230:	eb e0       	ldi	r30, 0x0B	; 11
    1232:	f1 e0       	ldi	r31, 0x01	; 1
    1234:	0c c0       	rjmp	.+24     	; 0x124e <.L6>

00001236 <.L4>:
        if(data & 0x01){
            PORT_DIO |= (1<<PIN_DIO);
        }
        else{
            PORT_DIO &= ~(1<<PIN_DIO);
    1236:	90 81       	ld	r25, Z
    1238:	9f 77       	andi	r25, 0x7F	; 127
    123a:	90 83       	st	Z, r25

0000123c <.L5>:
        }
        PORT_CLK |= (1<<PIN_CLK);
    123c:	90 81       	ld	r25, Z

0000123e <.Loc.31>:
    123e:	90 62       	ori	r25, 0x20	; 32
    1240:	90 83       	st	Z, r25

00001242 <.Loc.32>:
        data >>= 1;
    1242:	86 95       	lsr	r24

00001244 <.Loc.34>:
    for(int i = 0; i < 8; i++){
    1244:	21 50       	subi	r18, 0x01	; 1
    1246:	31 09       	sbc	r19, r1

00001248 <.Loc.36>:
    1248:	21 15       	cp	r18, r1
    124a:	31 05       	cpc	r19, r1
    124c:	49 f0       	breq	.+18     	; 0x1260 <.L8>

0000124e <.L6>:
        PORT_CLK &= ~(1<<PIN_CLK);
    124e:	90 81       	ld	r25, Z
    1250:	9f 7d       	andi	r25, 0xDF	; 223
    1252:	90 83       	st	Z, r25

00001254 <.Loc.39>:
        if(data & 0x01){
    1254:	80 ff       	sbrs	r24, 0
    1256:	ef cf       	rjmp	.-34     	; 0x1236 <.L4>

00001258 <.Loc.41>:
            PORT_DIO |= (1<<PIN_DIO);
    1258:	90 81       	ld	r25, Z

0000125a <.Loc.42>:
    125a:	90 68       	ori	r25, 0x80	; 128
    125c:	90 83       	st	Z, r25
    125e:	ee cf       	rjmp	.-36     	; 0x123c <.L5>

00001260 <.L8>:
    }
    // Let IC ACK without polling
    PORT_CLK &= ~(1<<PIN_CLK);
    1260:	eb e0       	ldi	r30, 0x0B	; 11
    1262:	f1 e0       	ldi	r31, 0x01	; 1
    1264:	80 81       	ld	r24, Z

00001266 <.Loc.46>:
    1266:	8f 7d       	andi	r24, 0xDF	; 223
    1268:	80 83       	st	Z, r24

0000126a <.Loc.47>:
    PORT_CLK |= (1<<PIN_CLK);
    126a:	80 81       	ld	r24, Z

0000126c <.Loc.48>:
    126c:	80 62       	ori	r24, 0x20	; 32
    126e:	80 83       	st	Z, r24

00001270 <.Loc.49>:
}
    1270:	08 95       	ret

00001272 <display_brightness>:

// Set Brightness
void display_brightness(unsigned char brightness){
    1272:	cf 93       	push	r28
    1274:	c8 2f       	mov	r28, r24

00001276 <.Loc.52>:
    display_start();
    1276:	0e 94 ef 08 	call	0x11de	; 0x11de <display_start>

0000127a <.LVL8>:
    display_sendbyte(0x88 | (brightness & 0x07));
    127a:	8c 2f       	mov	r24, r28
    127c:	87 70       	andi	r24, 0x07	; 7
    127e:	88 68       	ori	r24, 0x88	; 136
    1280:	0e 94 11 09 	call	0x1222	; 0x1222 <display_sendbyte>

00001284 <.LVL9>:
    display_stop();
    1284:	0e 94 00 09 	call	0x1200	; 0x1200 <display_stop>

00001288 <.LVL10>:
}
    1288:	cf 91       	pop	r28

0000128a <.Loc.56>:
    128a:	08 95       	ret

0000128c <display_number>:

// Display 4 digit integer
void display_number(int number){
    128c:	ef 92       	push	r14
    128e:	ff 92       	push	r15
    1290:	1f 93       	push	r17
    1292:	cf 93       	push	r28
    1294:	df 93       	push	r29
    1296:	d8 2f       	mov	r29, r24
    1298:	c9 2f       	mov	r28, r25

0000129a <.Loc.59>:
    display_start();
    129a:	0e 94 ef 08 	call	0x11de	; 0x11de <display_start>

0000129e <.LVL13>:
    display_sendbyte(0x40);
    129e:	80 e4       	ldi	r24, 0x40	; 64
    12a0:	0e 94 11 09 	call	0x1222	; 0x1222 <display_sendbyte>

000012a4 <.LVL14>:
    display_stop();
    12a4:	0e 94 00 09 	call	0x1200	; 0x1200 <display_stop>

000012a8 <.LVL15>:
    12a8:	13 ec       	ldi	r17, 0xC3	; 195

000012aa <.Loc.66>:
    // Write each digit separate
    for (int i = 0; i < 4; i++) {
        display_start();
        display_sendbyte(0xC0 + (3 - i));
        display_sendbyte(digits[number%10]);
    12aa:	0f 2e       	mov	r0, r31
    12ac:	fa e0       	ldi	r31, 0x0A	; 10
    12ae:	ef 2e       	mov	r14, r31
    12b0:	f1 2c       	mov	r15, r1
    12b2:	f0 2d       	mov	r31, r0

000012b4 <.L11>:
        display_start();
    12b4:	0e 94 ef 08 	call	0x11de	; 0x11de <display_start>

000012b8 <.LVL17>:
        display_sendbyte(0xC0 + (3 - i));
    12b8:	81 2f       	mov	r24, r17
    12ba:	0e 94 11 09 	call	0x1222	; 0x1222 <display_sendbyte>

000012be <.LVL18>:
        display_sendbyte(digits[number%10]);
    12be:	8d 2f       	mov	r24, r29
    12c0:	9c 2f       	mov	r25, r28
    12c2:	b7 01       	movw	r22, r14
    12c4:	0e 94 3e 0b 	call	0x167c	; 0x167c <__divmodhi4>
    12c8:	d6 2f       	mov	r29, r22

000012ca <.Loc.71>:
    12ca:	c7 2f       	mov	r28, r23

000012cc <.Loc.72>:
    12cc:	fc 01       	movw	r30, r24
    12ce:	ee 5d       	subi	r30, 0xDE	; 222
    12d0:	fd 4f       	sbci	r31, 0xFD	; 253

000012d2 <.Loc.73>:
    12d2:	80 81       	ld	r24, Z
    12d4:	0e 94 11 09 	call	0x1222	; 0x1222 <display_sendbyte>

000012d8 <.LVL20>:
        number /= 10;
        display_stop();
    12d8:	0e 94 00 09 	call	0x1200	; 0x1200 <display_stop>

000012dc <.LVL21>:
    for (int i = 0; i < 4; i++) {
    12dc:	11 50       	subi	r17, 0x01	; 1
    12de:	1f 3b       	cpi	r17, 0xBF	; 191
    12e0:	49 f7       	brne	.-46     	; 0x12b4 <.L11>

000012e2 <.Loc.78>:
    }
}
    12e2:	df 91       	pop	r29

000012e4 <.Loc.79>:
    12e4:	cf 91       	pop	r28
    12e6:	1f 91       	pop	r17
    12e8:	ff 90       	pop	r15
    12ea:	ef 90       	pop	r14
    12ec:	08 95       	ret

000012ee <display_metal_and_non_metal>:
void display_metal_and_non_metal(int metal, int non_metal){
    12ee:	ef 92       	push	r14
    12f0:	ff 92       	push	r15
    12f2:	0f 93       	push	r16
    12f4:	1f 93       	push	r17
    12f6:	cf 93       	push	r28
    12f8:	df 93       	push	r29
    12fa:	00 d0       	rcall	.+0      	; 0x12fc <L0^A>

000012fc <L0^A>:
    12fc:	00 d0       	rcall	.+0      	; 0x12fe <L0^A>

000012fe <L0^A>:
    12fe:	0f 92       	push	r0
    1300:	0f 92       	push	r0
    1302:	cd b7       	in	r28, 0x3d	; 61
    1304:	de b7       	in	r29, 0x3e	; 62

00001306 <.Loc.82>:
    // Ensure values are within range 099
    if (metal < 0) metal = 0;
    if (metal > 99) metal = 99;
    1306:	e8 2e       	mov	r14, r24
    1308:	f9 2e       	mov	r15, r25
    130a:	84 e6       	ldi	r24, 0x64	; 100
    130c:	e8 16       	cp	r14, r24
    130e:	f1 04       	cpc	r15, r1

00001310 <.Loc.84>:
    1310:	2c f0       	brlt	.+10     	; 0x131c <.L14>
    1312:	0f 2e       	mov	r0, r31
    1314:	f3 e6       	ldi	r31, 0x63	; 99
    1316:	ef 2e       	mov	r14, r31
    1318:	f1 2c       	mov	r15, r1
    131a:	f0 2d       	mov	r31, r0

0000131c <.L14>:
    131c:	ff 20       	and	r15, r15
    131e:	0c f4       	brge	.+2      	; 0x1322 <.L15>

00001320 <L0^A>:
    1320:	47 c0       	rjmp	.+142    	; 0x13b0 <.L20>

00001322 <.L15>:
    if (non_metal < 0) non_metal = 0;
    if (non_metal > 99) non_metal = 99;
    1322:	06 2f       	mov	r16, r22
    1324:	17 2f       	mov	r17, r23
    1326:	04 36       	cpi	r16, 0x64	; 100
    1328:	11 05       	cpc	r17, r1
    132a:	14 f0       	brlt	.+4      	; 0x1330 <.L16>
    132c:	03 e6       	ldi	r16, 0x63	; 99
    132e:	10 e0       	ldi	r17, 0x00	; 0

00001330 <.L16>:
    1330:	11 23       	and	r17, r17
    1332:	0c f4       	brge	.+2      	; 0x1336 <.L17>

00001334 <L0^A>:
    1334:	40 c0       	rjmp	.+128    	; 0x13b6 <.L21>

00001336 <.L17>:

    // Start communication
    display_start();
    1336:	0e 94 ef 08 	call	0x11de	; 0x11de <display_start>

0000133a <.LVL27>:
    display_sendbyte(0x40); // Set auto-increment mode
    133a:	80 e4       	ldi	r24, 0x40	; 64
    133c:	0e 94 11 09 	call	0x1222	; 0x1222 <display_sendbyte>

00001340 <.LVL28>:
    display_stop();
    1340:	0e 94 00 09 	call	0x1200	; 0x1200 <display_stop>

00001344 <.LVL29>:

    // Combine into one 4-digit number: MMNN
    int display_digits[4];
    display_digits[0] = metal / 10;        // Tens place of metal
    1344:	2a e0       	ldi	r18, 0x0A	; 10
    1346:	30 e0       	ldi	r19, 0x00	; 0
    1348:	c7 01       	movw	r24, r14
    134a:	b9 01       	movw	r22, r18
    134c:	0e 94 3e 0b 	call	0x167c	; 0x167c <__divmodhi4>

00001350 <.Loc.93>:
    1350:	7a 83       	std	Y+2, r23	; 0x02
    1352:	69 83       	std	Y+1, r22	; 0x01

00001354 <.Loc.94>:
    display_digits[1] = metal % 10;        // Units place of metal
    1354:	9c 83       	std	Y+4, r25	; 0x04
    1356:	8b 83       	std	Y+3, r24	; 0x03

00001358 <.Loc.96>:
    display_digits[2] = non_metal / 10;    // Tens place of non_metal
    1358:	c8 01       	movw	r24, r16
    135a:	b9 01       	movw	r22, r18
    135c:	0e 94 3e 0b 	call	0x167c	; 0x167c <__divmodhi4>

00001360 <.Loc.98>:
    1360:	7e 83       	std	Y+6, r23	; 0x06
    1362:	6d 83       	std	Y+5, r22	; 0x05

00001364 <.Loc.100>:
    display_digits[3] = non_metal % 10;    // Units place of non_metal
    1364:	98 87       	std	Y+8, r25	; 0x08
    1366:	8f 83       	std	Y+7, r24	; 0x07

00001368 <.Loc.101>:

    // Send digits to display
    for (int i = 0; i < 4; i++) {
    1368:	de 01       	movw	r26, r28
    136a:	11 96       	adiw	r26, 0x01	; 1
    136c:	7d 01       	movw	r14, r26

0000136e <.Loc.104>:
    display_digits[3] = non_metal % 10;    // Units place of non_metal
    136e:	10 ec       	ldi	r17, 0xC0	; 192

00001370 <.L18>:
        display_start();
    1370:	0e 94 ef 08 	call	0x11de	; 0x11de <display_start>

00001374 <.LVL33>:
        display_sendbyte(0xC0 + i); // Address for digit i
    1374:	81 2f       	mov	r24, r17
    1376:	0e 94 11 09 	call	0x1222	; 0x1222 <display_sendbyte>

0000137a <.LVL34>:
        display_sendbyte(digits[display_digits[i]]);
    137a:	d7 01       	movw	r26, r14
    137c:	ed 91       	ld	r30, X+
    137e:	fd 91       	ld	r31, X+
    1380:	7d 01       	movw	r14, r26

00001382 <.Loc.110>:
    1382:	ee 5d       	subi	r30, 0xDE	; 222
    1384:	fd 4f       	sbci	r31, 0xFD	; 253

00001386 <.Loc.111>:
    1386:	80 81       	ld	r24, Z
    1388:	0e 94 11 09 	call	0x1222	; 0x1222 <display_sendbyte>

0000138c <.LVL35>:
        display_stop();
    138c:	0e 94 00 09 	call	0x1200	; 0x1200 <display_stop>

00001390 <.LVL36>:
    for (int i = 0; i < 4; i++) {
    1390:	1f 5f       	subi	r17, 0xFF	; 255
    1392:	14 3c       	cpi	r17, 0xC4	; 196
    1394:	69 f7       	brne	.-38     	; 0x1370 <.L18>

00001396 <.Loc.115>:
    }
}
    1396:	28 96       	adiw	r28, 0x08	; 8
    1398:	0f b6       	in	r0, 0x3f	; 63
    139a:	f8 94       	cli
    139c:	de bf       	out	0x3e, r29	; 62
    139e:	0f be       	out	0x3f, r0	; 63
    13a0:	cd bf       	out	0x3d, r28	; 61
    13a2:	df 91       	pop	r29
    13a4:	cf 91       	pop	r28
    13a6:	1f 91       	pop	r17
    13a8:	0f 91       	pop	r16

000013aa <.Loc.116>:
    13aa:	ff 90       	pop	r15
    13ac:	ef 90       	pop	r14
    13ae:	08 95       	ret

000013b0 <.L20>:
    13b0:	e1 2c       	mov	r14, r1
    13b2:	f1 2c       	mov	r15, r1
    13b4:	b6 cf       	rjmp	.-148    	; 0x1322 <.L15>

000013b6 <.L21>:
    13b6:	00 e0       	ldi	r16, 0x00	; 0
    13b8:	10 e0       	ldi	r17, 0x00	; 0
    13ba:	bd cf       	rjmp	.-134    	; 0x1336 <.L17>

000013bc <display_letter>:
// Write a single letter
void display_letter(unsigned int letter, unsigned char position){
    13bc:	1f 93       	push	r17
    13be:	cf 93       	push	r28
    13c0:	df 93       	push	r29
    13c2:	c8 2f       	mov	r28, r24
    13c4:	d9 2f       	mov	r29, r25
    13c6:	16 2f       	mov	r17, r22

000013c8 <.Loc.121>:
    display_start();
    13c8:	0e 94 ef 08 	call	0x11de	; 0x11de <display_start>

000013cc <.LVL41>:
    // Send command before writing
    display_sendbyte(0xC0 + position);
    13cc:	80 ec       	ldi	r24, 0xC0	; 192
    13ce:	81 0f       	add	r24, r17
    13d0:	0e 94 11 09 	call	0x1222	; 0x1222 <display_sendbyte>

000013d4 <.LVL42>:
    // Send letter
    display_sendbyte(letters[letter]);
    13d4:	c2 5f       	subi	r28, 0xF2	; 242
    13d6:	dd 4f       	sbci	r29, 0xFD	; 253

000013d8 <.Loc.125>:
    13d8:	88 81       	ld	r24, Y
    13da:	0e 94 11 09 	call	0x1222	; 0x1222 <display_sendbyte>

000013de <.LVL43>:
    display_stop();
    13de:	0e 94 00 09 	call	0x1200	; 0x1200 <display_stop>

000013e2 <.LVL44>:
}
    13e2:	df 91       	pop	r29
    13e4:	cf 91       	pop	r28
    13e6:	1f 91       	pop	r17

000013e8 <.Loc.128>:
    13e8:	08 95       	ret

000013ea <display_init>:



// **Initialize TM1637**
void display_init(void){
    DDR_DIO |= (1<<PIN_DIO);
    13ea:	ea e0       	ldi	r30, 0x0A	; 10
    13ec:	f1 e0       	ldi	r31, 0x01	; 1
    13ee:	80 81       	ld	r24, Z

000013f0 <.Loc.131>:
    13f0:	80 68       	ori	r24, 0x80	; 128
    13f2:	80 83       	st	Z, r24

000013f4 <.Loc.132>:
    DDR_CLK |= (1<<PIN_CLK);
    13f4:	80 81       	ld	r24, Z

000013f6 <.Loc.133>:
    13f6:	80 62       	ori	r24, 0x20	; 32
    13f8:	80 83       	st	Z, r24

000013fa <.Loc.134>:
    PORT_DIO |= (1<<PIN_DIO);
    13fa:	eb e0       	ldi	r30, 0x0B	; 11
    13fc:	f1 e0       	ldi	r31, 0x01	; 1
    13fe:	80 81       	ld	r24, Z

00001400 <.Loc.135>:
    1400:	80 68       	ori	r24, 0x80	; 128
    1402:	80 83       	st	Z, r24

00001404 <.Loc.136>:
    PORT_CLK |= (1<<PIN_CLK);
    1404:	80 81       	ld	r24, Z

00001406 <.Loc.137>:
    1406:	80 62       	ori	r24, 0x20	; 32
    1408:	80 83       	st	Z, r24

0000140a <.Loc.138>:
    display_brightness(NORMAL_BRIGHTNESS); // 7 is max brightness
    140a:	82 e0       	ldi	r24, 0x02	; 2
    140c:	0e 94 39 09 	call	0x1272	; 0x1272 <display_brightness>

00001410 <.LVL46>:
}
    1410:	08 95       	ret

00001412 <display_cfg>:
        display_left();
    }
}
// --- Various things to display --- //
void display_cfg(void){
    display_letter(19, 0);
    1412:	60 e0       	ldi	r22, 0x00	; 0
    1414:	83 e1       	ldi	r24, 0x13	; 19
    1416:	90 e0       	ldi	r25, 0x00	; 0
    1418:	0e 94 de 09 	call	0x13bc	; 0x13bc <display_letter>

0000141c <.LVL47>:
    display_letter(3, 1);
    141c:	61 e0       	ldi	r22, 0x01	; 1
    141e:	83 e0       	ldi	r24, 0x03	; 3
    1420:	90 e0       	ldi	r25, 0x00	; 0
    1422:	0e 94 de 09 	call	0x13bc	; 0x13bc <display_letter>

00001426 <.LVL48>:
    display_letter(6, 2);
    1426:	62 e0       	ldi	r22, 0x02	; 2
    1428:	86 e0       	ldi	r24, 0x06	; 6
    142a:	90 e0       	ldi	r25, 0x00	; 0
    142c:	0e 94 de 09 	call	0x13bc	; 0x13bc <display_letter>

00001430 <.LVL49>:
    display_letter(7, 3);
    1430:	63 e0       	ldi	r22, 0x03	; 3
    1432:	87 e0       	ldi	r24, 0x07	; 7
    1434:	90 e0       	ldi	r25, 0x00	; 0
    1436:	0e 94 de 09 	call	0x13bc	; 0x13bc <display_letter>

0000143a <.LVL50>:
}
    143a:	08 95       	ret

0000143c <display_heavy>:

void display_heavy(void){
    display_number(4);
    143c:	84 e0       	ldi	r24, 0x04	; 4
    143e:	90 e0       	ldi	r25, 0x00	; 0
    1440:	0e 94 46 09 	call	0x128c	; 0x128c <display_number>

00001444 <.LVL51>:
    display_letter(1, 1);
    1444:	61 e0       	ldi	r22, 0x01	; 1
    1446:	81 e0       	ldi	r24, 0x01	; 1
    1448:	90 e0       	ldi	r25, 0x00	; 0
    144a:	0e 94 de 09 	call	0x13bc	; 0x13bc <display_letter>

0000144e <.LVL52>:
    display_letter(5, 2);
    144e:	62 e0       	ldi	r22, 0x02	; 2
    1450:	85 e0       	ldi	r24, 0x05	; 5
    1452:	90 e0       	ldi	r25, 0x00	; 0
    1454:	0e 94 de 09 	call	0x13bc	; 0x13bc <display_letter>

00001458 <.LVL53>:
    display_letter(8, 3);
    1458:	63 e0       	ldi	r22, 0x03	; 3
    145a:	88 e0       	ldi	r24, 0x08	; 8
    145c:	90 e0       	ldi	r25, 0x00	; 0
    145e:	0e 94 de 09 	call	0x13bc	; 0x13bc <display_letter>

00001462 <.LVL54>:
}
    1462:	08 95       	ret

00001464 <display_light>:

void display_light(void){
    display_letter(17, 0);
    1464:	60 e0       	ldi	r22, 0x00	; 0
    1466:	81 e1       	ldi	r24, 0x11	; 17
    1468:	90 e0       	ldi	r25, 0x00	; 0
    146a:	0e 94 de 09 	call	0x13bc	; 0x13bc <display_letter>

0000146e <.LVL55>:
    display_letter(8, 1);
    146e:	61 e0       	ldi	r22, 0x01	; 1
    1470:	88 e0       	ldi	r24, 0x08	; 8
    1472:	90 e0       	ldi	r25, 0x00	; 0
    1474:	0e 94 de 09 	call	0x13bc	; 0x13bc <display_letter>

00001478 <.LVL56>:
    display_letter(7, 2);
    1478:	62 e0       	ldi	r22, 0x02	; 2
    147a:	87 e0       	ldi	r24, 0x07	; 7
    147c:	90 e0       	ldi	r25, 0x00	; 0
    147e:	0e 94 de 09 	call	0x13bc	; 0x13bc <display_letter>

00001482 <.LVL57>:
    display_letter(11, 3);
    1482:	63 e0       	ldi	r22, 0x03	; 3
    1484:	8b e0       	ldi	r24, 0x0B	; 11
    1486:	90 e0       	ldi	r25, 0x00	; 0
    1488:	0e 94 de 09 	call	0x13bc	; 0x13bc <display_letter>

0000148c <.LVL58>:
}
    148c:	08 95       	ret

0000148e <display_fol>:

void display_fol(void){
    display_letter(19, 0);
    148e:	60 e0       	ldi	r22, 0x00	; 0
    1490:	83 e1       	ldi	r24, 0x13	; 19
    1492:	90 e0       	ldi	r25, 0x00	; 0
    1494:	0e 94 de 09 	call	0x13bc	; 0x13bc <display_letter>

00001498 <.LVL59>:
    display_letter(6, 1);
    1498:	61 e0       	ldi	r22, 0x01	; 1
    149a:	86 e0       	ldi	r24, 0x06	; 6
    149c:	90 e0       	ldi	r25, 0x00	; 0
    149e:	0e 94 de 09 	call	0x13bc	; 0x13bc <display_letter>

000014a2 <.LVL60>:
    display_letter(13, 2);
    14a2:	62 e0       	ldi	r22, 0x02	; 2
    14a4:	8d e0       	ldi	r24, 0x0D	; 13
    14a6:	90 e0       	ldi	r25, 0x00	; 0
    14a8:	0e 94 de 09 	call	0x13bc	; 0x13bc <display_letter>

000014ac <.LVL61>:
    display_letter(11, 3);
    14ac:	63 e0       	ldi	r22, 0x03	; 3
    14ae:	8b e0       	ldi	r24, 0x0B	; 11
    14b0:	90 e0       	ldi	r25, 0x00	; 0
    14b2:	0e 94 de 09 	call	0x13bc	; 0x13bc <display_letter>

000014b6 <.LVL62>:
}
    14b6:	08 95       	ret

000014b8 <display_cnt>:

void display_cnt(void){
    display_letter(19, 0);
    14b8:	60 e0       	ldi	r22, 0x00	; 0
    14ba:	83 e1       	ldi	r24, 0x13	; 19
    14bc:	90 e0       	ldi	r25, 0x00	; 0
    14be:	0e 94 de 09 	call	0x13bc	; 0x13bc <display_letter>

000014c2 <.LVL63>:
    display_letter(3, 1);
    14c2:	61 e0       	ldi	r22, 0x01	; 1
    14c4:	83 e0       	ldi	r24, 0x03	; 3
    14c6:	90 e0       	ldi	r25, 0x00	; 0
    14c8:	0e 94 de 09 	call	0x13bc	; 0x13bc <display_letter>

000014cc <.LVL64>:
    display_letter(12, 2);
    14cc:	62 e0       	ldi	r22, 0x02	; 2
    14ce:	8c e0       	ldi	r24, 0x0C	; 12
    14d0:	90 e0       	ldi	r25, 0x00	; 0
    14d2:	0e 94 de 09 	call	0x13bc	; 0x13bc <display_letter>

000014d6 <.LVL65>:
    display_letter(17, 3);
    14d6:	63 e0       	ldi	r22, 0x03	; 3
    14d8:	81 e1       	ldi	r24, 0x11	; 17
    14da:	90 e0       	ldi	r25, 0x00	; 0
    14dc:	0e 94 de 09 	call	0x13bc	; 0x13bc <display_letter>

000014e0 <.LVL66>:
}
    14e0:	08 95       	ret

000014e2 <display_turn>:

void display_turn(void){
    display_letter(17, 0);
    14e2:	60 e0       	ldi	r22, 0x00	; 0
    14e4:	81 e1       	ldi	r24, 0x11	; 17
    14e6:	90 e0       	ldi	r25, 0x00	; 0
    14e8:	0e 94 de 09 	call	0x13bc	; 0x13bc <display_letter>

000014ec <.LVL67>:
    display_letter(18, 1);
    14ec:	61 e0       	ldi	r22, 0x01	; 1
    14ee:	82 e1       	ldi	r24, 0x12	; 18
    14f0:	90 e0       	ldi	r25, 0x00	; 0
    14f2:	0e 94 de 09 	call	0x13bc	; 0x13bc <display_letter>

000014f6 <.LVL68>:
    display_letter(15, 2);
    14f6:	62 e0       	ldi	r22, 0x02	; 2
    14f8:	8f e0       	ldi	r24, 0x0F	; 15
    14fa:	90 e0       	ldi	r25, 0x00	; 0
    14fc:	0e 94 de 09 	call	0x13bc	; 0x13bc <display_letter>

00001500 <.LVL69>:
    display_letter(12, 3);
    1500:	63 e0       	ldi	r22, 0x03	; 3
    1502:	8c e0       	ldi	r24, 0x0C	; 12
    1504:	90 e0       	ldi	r25, 0x00	; 0
    1506:	0e 94 de 09 	call	0x13bc	; 0x13bc <display_letter>

0000150a <.LVL70>:
}
    150a:	08 95       	ret

0000150c <display_dist>:

void display_dist(void){
    display_letter(4, 0);
    150c:	60 e0       	ldi	r22, 0x00	; 0
    150e:	84 e0       	ldi	r24, 0x04	; 4
    1510:	90 e0       	ldi	r25, 0x00	; 0
    1512:	0e 94 de 09 	call	0x13bc	; 0x13bc <display_letter>

00001516 <.LVL71>:
    display_letter(9, 1);
    1516:	61 e0       	ldi	r22, 0x01	; 1
    1518:	89 e0       	ldi	r24, 0x09	; 9
    151a:	90 e0       	ldi	r25, 0x00	; 0
    151c:	0e 94 de 09 	call	0x13bc	; 0x13bc <display_letter>

00001520 <.LVL72>:
    display_letter(16, 2);
    1520:	62 e0       	ldi	r22, 0x02	; 2
    1522:	80 e1       	ldi	r24, 0x10	; 16
    1524:	90 e0       	ldi	r25, 0x00	; 0
    1526:	0e 94 de 09 	call	0x13bc	; 0x13bc <display_letter>

0000152a <.LVL73>:
    display_letter(17, 3);
    152a:	63 e0       	ldi	r22, 0x03	; 3
    152c:	81 e1       	ldi	r24, 0x11	; 17
    152e:	90 e0       	ldi	r25, 0x00	; 0
    1530:	0e 94 de 09 	call	0x13bc	; 0x13bc <display_letter>

00001534 <.LVL74>:
}
    1534:	08 95       	ret

00001536 <display_pac>:

void display_pac(void){
    display_letter(19, 0);
    1536:	60 e0       	ldi	r22, 0x00	; 0
    1538:	83 e1       	ldi	r24, 0x13	; 19
    153a:	90 e0       	ldi	r25, 0x00	; 0
    153c:	0e 94 de 09 	call	0x13bc	; 0x13bc <display_letter>

00001540 <.LVL75>:
    display_letter(14, 1);
    1540:	61 e0       	ldi	r22, 0x01	; 1
    1542:	8e e0       	ldi	r24, 0x0E	; 14
    1544:	90 e0       	ldi	r25, 0x00	; 0
    1546:	0e 94 de 09 	call	0x13bc	; 0x13bc <display_letter>

0000154a <.LVL76>:
    display_letter(1, 2);
    154a:	62 e0       	ldi	r22, 0x02	; 2
    154c:	81 e0       	ldi	r24, 0x01	; 1
    154e:	90 e0       	ldi	r25, 0x00	; 0
    1550:	0e 94 de 09 	call	0x13bc	; 0x13bc <display_letter>

00001554 <.LVL77>:
    display_letter(3, 3);
    1554:	63 e0       	ldi	r22, 0x03	; 3
    1556:	83 e0       	ldi	r24, 0x03	; 3
    1558:	90 e0       	ldi	r25, 0x00	; 0
    155a:	0e 94 de 09 	call	0x13bc	; 0x13bc <display_letter>

0000155e <.LVL78>:
}
    155e:	08 95       	ret

00001560 <display_mode>:
    if(mode){
    1560:	88 23       	and	r24, r24
    1562:	19 f0       	breq	.+6      	; 0x156a <.L33>

00001564 <.Loc.191>:
        display_fol();
    1564:	0e 94 47 0a 	call	0x148e	; 0x148e <display_fol>

00001568 <.LVL80>:
    1568:	08 95       	ret

0000156a <.L33>:
        display_pac();
    156a:	0e 94 9b 0a 	call	0x1536	; 0x1536 <display_pac>

0000156e <.LVL82>:
}
    156e:	08 95       	ret

00001570 <display_left>:

void display_left(void){
    display_letter(11, 0);
    1570:	60 e0       	ldi	r22, 0x00	; 0
    1572:	8b e0       	ldi	r24, 0x0B	; 11
    1574:	90 e0       	ldi	r25, 0x00	; 0
    1576:	0e 94 de 09 	call	0x13bc	; 0x13bc <display_letter>

0000157a <.LVL83>:
    display_letter(5, 1);
    157a:	61 e0       	ldi	r22, 0x01	; 1
    157c:	85 e0       	ldi	r24, 0x05	; 5
    157e:	90 e0       	ldi	r25, 0x00	; 0
    1580:	0e 94 de 09 	call	0x13bc	; 0x13bc <display_letter>

00001584 <.LVL84>:
    display_letter(6, 2);
    1584:	62 e0       	ldi	r22, 0x02	; 2
    1586:	86 e0       	ldi	r24, 0x06	; 6
    1588:	90 e0       	ldi	r25, 0x00	; 0
    158a:	0e 94 de 09 	call	0x13bc	; 0x13bc <display_letter>

0000158e <.LVL85>:
    display_letter(17, 3);
    158e:	63 e0       	ldi	r22, 0x03	; 3
    1590:	81 e1       	ldi	r24, 0x11	; 17
    1592:	90 e0       	ldi	r25, 0x00	; 0
    1594:	0e 94 de 09 	call	0x13bc	; 0x13bc <display_letter>

00001598 <.LVL86>:
}
    1598:	08 95       	ret

0000159a <display_rght>:

void display_rght(void){
    display_letter(15, 0);
    159a:	60 e0       	ldi	r22, 0x00	; 0
    159c:	8f e0       	ldi	r24, 0x0F	; 15
    159e:	90 e0       	ldi	r25, 0x00	; 0
    15a0:	0e 94 de 09 	call	0x13bc	; 0x13bc <display_letter>

000015a4 <.LVL87>:
    display_letter(7, 1);
    15a4:	61 e0       	ldi	r22, 0x01	; 1
    15a6:	87 e0       	ldi	r24, 0x07	; 7
    15a8:	90 e0       	ldi	r25, 0x00	; 0
    15aa:	0e 94 de 09 	call	0x13bc	; 0x13bc <display_letter>

000015ae <.LVL88>:
    display_letter(8, 2);
    15ae:	62 e0       	ldi	r22, 0x02	; 2
    15b0:	88 e0       	ldi	r24, 0x08	; 8
    15b2:	90 e0       	ldi	r25, 0x00	; 0
    15b4:	0e 94 de 09 	call	0x13bc	; 0x13bc <display_letter>

000015b8 <.LVL89>:
    display_letter(17, 3);
    15b8:	63 e0       	ldi	r22, 0x03	; 3
    15ba:	81 e1       	ldi	r24, 0x11	; 17
    15bc:	90 e0       	ldi	r25, 0x00	; 0
    15be:	0e 94 de 09 	call	0x13bc	; 0x13bc <display_letter>

000015c2 <.LVL90>:
}
    15c2:	08 95       	ret

000015c4 <display_direction>:
    if(dir){
    15c4:	88 23       	and	r24, r24
    15c6:	19 f0       	breq	.+6      	; 0x15ce <.L38>

000015c8 <.Loc.210>:
        display_rght();
    15c8:	0e 94 cd 0a 	call	0x159a	; 0x159a <display_rght>

000015cc <.LVL92>:
    15cc:	08 95       	ret

000015ce <.L38>:
        display_left();
    15ce:	0e 94 b8 0a 	call	0x1570	; 0x1570 <display_left>

000015d2 <.LVL94>:
}
    15d2:	08 95       	ret

000015d4 <display_go>:

void display_go(void){
    display_letter(19, 0);
    15d4:	60 e0       	ldi	r22, 0x00	; 0
    15d6:	83 e1       	ldi	r24, 0x13	; 19
    15d8:	90 e0       	ldi	r25, 0x00	; 0
    15da:	0e 94 de 09 	call	0x13bc	; 0x13bc <display_letter>

000015de <.LVL95>:
    display_letter(19, 1);
    15de:	61 e0       	ldi	r22, 0x01	; 1
    15e0:	83 e1       	ldi	r24, 0x13	; 19
    15e2:	90 e0       	ldi	r25, 0x00	; 0
    15e4:	0e 94 de 09 	call	0x13bc	; 0x13bc <display_letter>

000015e8 <.LVL96>:
    display_letter(7, 2);
    15e8:	62 e0       	ldi	r22, 0x02	; 2
    15ea:	87 e0       	ldi	r24, 0x07	; 7
    15ec:	90 e0       	ldi	r25, 0x00	; 0
    15ee:	0e 94 de 09 	call	0x13bc	; 0x13bc <display_letter>

000015f2 <.LVL97>:
    display_letter(13, 3);
    15f2:	63 e0       	ldi	r22, 0x03	; 3
    15f4:	8d e0       	ldi	r24, 0x0D	; 13
    15f6:	90 e0       	ldi	r25, 0x00	; 0
    15f8:	0e 94 de 09 	call	0x13bc	; 0x13bc <display_letter>

000015fc <.LVL98>:
}
    15fc:	08 95       	ret

000015fe <display_end>:

void display_end(void){
    display_letter(19, 0);
    15fe:	60 e0       	ldi	r22, 0x00	; 0
    1600:	83 e1       	ldi	r24, 0x13	; 19
    1602:	90 e0       	ldi	r25, 0x00	; 0
    1604:	0e 94 de 09 	call	0x13bc	; 0x13bc <display_letter>

00001608 <.LVL99>:
    display_letter(5, 1);
    1608:	61 e0       	ldi	r22, 0x01	; 1
    160a:	85 e0       	ldi	r24, 0x05	; 5
    160c:	90 e0       	ldi	r25, 0x00	; 0
    160e:	0e 94 de 09 	call	0x13bc	; 0x13bc <display_letter>

00001612 <.LVL100>:
    display_letter(12, 2);
    1612:	62 e0       	ldi	r22, 0x02	; 2
    1614:	8c e0       	ldi	r24, 0x0C	; 12
    1616:	90 e0       	ldi	r25, 0x00	; 0
    1618:	0e 94 de 09 	call	0x13bc	; 0x13bc <display_letter>

0000161c <.LVL101>:
    display_letter(4, 3);
    161c:	63 e0       	ldi	r22, 0x03	; 3
    161e:	84 e0       	ldi	r24, 0x04	; 4
    1620:	90 e0       	ldi	r25, 0x00	; 0
    1622:	0e 94 de 09 	call	0x13bc	; 0x13bc <display_letter>

00001626 <.LVL102>:
}
    1626:	08 95       	ret

00001628 <display_srch>:

void display_srch(void){
    display_letter(16, 0);
    1628:	60 e0       	ldi	r22, 0x00	; 0
    162a:	80 e1       	ldi	r24, 0x10	; 16
    162c:	90 e0       	ldi	r25, 0x00	; 0
    162e:	0e 94 de 09 	call	0x13bc	; 0x13bc <display_letter>

00001632 <.LVL103>:
    display_letter(15, 1);
    1632:	61 e0       	ldi	r22, 0x01	; 1
    1634:	8f e0       	ldi	r24, 0x0F	; 15
    1636:	90 e0       	ldi	r25, 0x00	; 0
    1638:	0e 94 de 09 	call	0x13bc	; 0x13bc <display_letter>

0000163c <.LVL104>:
    display_letter(3, 2);
    163c:	62 e0       	ldi	r22, 0x02	; 2
    163e:	83 e0       	ldi	r24, 0x03	; 3
    1640:	90 e0       	ldi	r25, 0x00	; 0
    1642:	0e 94 de 09 	call	0x13bc	; 0x13bc <display_letter>

00001646 <.LVL105>:
    display_letter(8, 3);
    1646:	63 e0       	ldi	r22, 0x03	; 3
    1648:	88 e0       	ldi	r24, 0x08	; 8
    164a:	90 e0       	ldi	r25, 0x00	; 0
    164c:	0e 94 de 09 	call	0x13bc	; 0x13bc <display_letter>

00001650 <.LVL106>:
}
    1650:	08 95       	ret

00001652 <display_txt_stop>:

void display_txt_stop(void){
    display_letter(16, 0);
    1652:	60 e0       	ldi	r22, 0x00	; 0
    1654:	80 e1       	ldi	r24, 0x10	; 16
    1656:	90 e0       	ldi	r25, 0x00	; 0
    1658:	0e 94 de 09 	call	0x13bc	; 0x13bc <display_letter>

0000165c <.LVL107>:
    display_letter(17, 1);
    165c:	61 e0       	ldi	r22, 0x01	; 1
    165e:	81 e1       	ldi	r24, 0x11	; 17
    1660:	90 e0       	ldi	r25, 0x00	; 0
    1662:	0e 94 de 09 	call	0x13bc	; 0x13bc <display_letter>

00001666 <.LVL108>:
    display_letter(13, 2);
    1666:	62 e0       	ldi	r22, 0x02	; 2
    1668:	8d e0       	ldi	r24, 0x0D	; 13
    166a:	90 e0       	ldi	r25, 0x00	; 0
    166c:	0e 94 de 09 	call	0x13bc	; 0x13bc <display_letter>

00001670 <.LVL109>:
    display_letter(14, 3);
    1670:	63 e0       	ldi	r22, 0x03	; 3
    1672:	8e e0       	ldi	r24, 0x0E	; 14
    1674:	90 e0       	ldi	r25, 0x00	; 0
    1676:	0e 94 de 09 	call	0x13bc	; 0x13bc <display_letter>

0000167a <.LVL110>:
}
    167a:	08 95       	ret

0000167c <__divmodhi4>:
    167c:	97 fb       	bst	r25, 7

0000167e <.Loc.1>:
    167e:	07 2e       	mov	r0, r23

00001680 <.Loc.2>:
    1680:	16 f4       	brtc	.+4      	; 0x1686 <.L^B1>

00001682 <.Loc.3>:
    1682:	00 94       	com	r0

00001684 <.Loc.4>:
    1684:	07 d0       	rcall	.+14     	; 0x1694 <__divmodhi4_neg1>

00001686 <.L^B1>:
    1686:	77 fd       	sbrc	r23, 7

00001688 <.Loc.6>:
    1688:	09 d0       	rcall	.+18     	; 0x169c <__divmodhi4_neg2>

0000168a <.Loc.7>:
    168a:	0e 94 9b 0b 	call	0x1736	; 0x1736 <__udivmodhi4>

0000168e <.Loc.8>:
    168e:	07 fc       	sbrc	r0, 7

00001690 <.Loc.9>:
    1690:	05 d0       	rcall	.+10     	; 0x169c <__divmodhi4_neg2>

00001692 <.Loc.10>:
    1692:	3e f4       	brtc	.+14     	; 0x16a2 <__divmodhi4_exit>

00001694 <__divmodhi4_neg1>:
    1694:	90 95       	com	r25

00001696 <.Loc.12>:
    1696:	81 95       	neg	r24

00001698 <.Loc.13>:
    1698:	9f 4f       	sbci	r25, 0xFF	; 255

0000169a <.Loc.14>:
    169a:	08 95       	ret

0000169c <__divmodhi4_neg2>:
    169c:	70 95       	com	r23

0000169e <.Loc.16>:
    169e:	61 95       	neg	r22

000016a0 <.Loc.17>:
    16a0:	7f 4f       	sbci	r23, 0xFF	; 255

000016a2 <__divmodhi4_exit>:
    16a2:	08 95       	ret

000016a4 <__udivmodsi4>:
    16a4:	a1 e2       	ldi	r26, 0x21	; 33

000016a6 <.Loc.1>:
    16a6:	1a 2e       	mov	r1, r26

000016a8 <.Loc.2>:
    16a8:	aa 1b       	sub	r26, r26

000016aa <.Loc.3>:
    16aa:	bb 1b       	sub	r27, r27

000016ac <.Loc.4>:
    16ac:	fd 01       	movw	r30, r26

000016ae <.Loc.5>:
    16ae:	0d c0       	rjmp	.+26     	; 0x16ca <__udivmodsi4_ep>

000016b0 <__udivmodsi4_loop>:
    16b0:	aa 1f       	adc	r26, r26

000016b2 <.Loc.7>:
    16b2:	bb 1f       	adc	r27, r27

000016b4 <.Loc.8>:
    16b4:	ee 1f       	adc	r30, r30

000016b6 <.Loc.9>:
    16b6:	ff 1f       	adc	r31, r31

000016b8 <.Loc.10>:
    16b8:	a2 17       	cp	r26, r18

000016ba <.Loc.11>:
    16ba:	b3 07       	cpc	r27, r19

000016bc <.Loc.12>:
    16bc:	e4 07       	cpc	r30, r20

000016be <.Loc.13>:
    16be:	f5 07       	cpc	r31, r21

000016c0 <.Loc.14>:
    16c0:	20 f0       	brcs	.+8      	; 0x16ca <__udivmodsi4_ep>

000016c2 <.Loc.15>:
    16c2:	a2 1b       	sub	r26, r18

000016c4 <.Loc.16>:
    16c4:	b3 0b       	sbc	r27, r19

000016c6 <.Loc.17>:
    16c6:	e4 0b       	sbc	r30, r20

000016c8 <.Loc.18>:
    16c8:	f5 0b       	sbc	r31, r21

000016ca <__udivmodsi4_ep>:
    16ca:	66 1f       	adc	r22, r22

000016cc <.Loc.20>:
    16cc:	77 1f       	adc	r23, r23

000016ce <.Loc.21>:
    16ce:	88 1f       	adc	r24, r24

000016d0 <.Loc.22>:
    16d0:	99 1f       	adc	r25, r25

000016d2 <.Loc.23>:
    16d2:	1a 94       	dec	r1

000016d4 <.Loc.24>:
    16d4:	69 f7       	brne	.-38     	; 0x16b0 <__udivmodsi4_loop>

000016d6 <.Loc.25>:
    16d6:	60 95       	com	r22

000016d8 <.Loc.26>:
    16d8:	70 95       	com	r23

000016da <.Loc.27>:
    16da:	80 95       	com	r24

000016dc <.Loc.28>:
    16dc:	90 95       	com	r25

000016de <.Loc.29>:
    16de:	9b 01       	movw	r18, r22

000016e0 <.Loc.30>:
    16e0:	ac 01       	movw	r20, r24

000016e2 <.Loc.31>:
    16e2:	bd 01       	movw	r22, r26

000016e4 <.Loc.32>:
    16e4:	cf 01       	movw	r24, r30

000016e6 <.Loc.33>:
    16e6:	08 95       	ret

000016e8 <__divmodsi4>:
    16e8:	05 2e       	mov	r0, r21

000016ea <.Loc.1>:
    16ea:	97 fb       	bst	r25, 7

000016ec <.Loc.2>:
    16ec:	1e f4       	brtc	.+6      	; 0x16f4 <.L^B1>

000016ee <.Loc.3>:
    16ee:	00 94       	com	r0

000016f0 <.Loc.4>:
    16f0:	0e 94 8b 0b 	call	0x1716	; 0x1716 <__negsi2>

000016f4 <.L^B1>:
    16f4:	57 fd       	sbrc	r21, 7

000016f6 <.Loc.6>:
    16f6:	07 d0       	rcall	.+14     	; 0x1706 <__divmodsi4_neg2>

000016f8 <.Loc.7>:
    16f8:	0e 94 52 0b 	call	0x16a4	; 0x16a4 <__udivmodsi4>

000016fc <.Loc.8>:
    16fc:	07 fc       	sbrc	r0, 7

000016fe <.Loc.9>:
    16fe:	03 d0       	rcall	.+6      	; 0x1706 <__divmodsi4_neg2>

00001700 <.Loc.10>:
    1700:	4e f4       	brtc	.+18     	; 0x1714 <__divmodsi4_exit>

00001702 <.Loc.11>:
    1702:	0c 94 8b 0b 	jmp	0x1716	; 0x1716 <__negsi2>

00001706 <__divmodsi4_neg2>:
    1706:	50 95       	com	r21

00001708 <.Loc.13>:
    1708:	40 95       	com	r20

0000170a <.Loc.14>:
    170a:	30 95       	com	r19

0000170c <.Loc.15>:
    170c:	21 95       	neg	r18

0000170e <.Loc.16>:
    170e:	3f 4f       	sbci	r19, 0xFF	; 255

00001710 <.Loc.17>:
    1710:	4f 4f       	sbci	r20, 0xFF	; 255

00001712 <.Loc.18>:
    1712:	5f 4f       	sbci	r21, 0xFF	; 255

00001714 <__divmodsi4_exit>:
    1714:	08 95       	ret

00001716 <__negsi2>:
    1716:	90 95       	com	r25
    1718:	80 95       	com	r24
    171a:	70 95       	com	r23
    171c:	61 95       	neg	r22
    171e:	7f 4f       	sbci	r23, 0xFF	; 255
    1720:	8f 4f       	sbci	r24, 0xFF	; 255
    1722:	9f 4f       	sbci	r25, 0xFF	; 255

00001724 <.Loc.1>:
    1724:	08 95       	ret

00001726 <__tablejump2__>:
    1726:	ee 0f       	add	r30, r30

00001728 <.Loc.1>:
    1728:	ff 1f       	adc	r31, r31

0000172a <.Loc.2>:
    172a:	88 1f       	adc	r24, r24

0000172c <.Loc.3>:
    172c:	8b bf       	out	0x3b, r24	; 59

0000172e <.Loc.4>:
    172e:	07 90       	elpm	r0, Z+

00001730 <.Loc.5>:
    1730:	f6 91       	elpm	r31, Z

00001732 <.Loc.6>:
    1732:	e0 2d       	mov	r30, r0

00001734 <.Loc.7>:
    1734:	19 94       	eijmp

00001736 <__udivmodhi4>:
    1736:	aa 1b       	sub	r26, r26

00001738 <.Loc.1>:
    1738:	bb 1b       	sub	r27, r27

0000173a <.Loc.2>:
    173a:	51 e1       	ldi	r21, 0x11	; 17

0000173c <.Loc.3>:
    173c:	07 c0       	rjmp	.+14     	; 0x174c <__udivmodhi4_ep>

0000173e <__udivmodhi4_loop>:
    173e:	aa 1f       	adc	r26, r26

00001740 <.Loc.5>:
    1740:	bb 1f       	adc	r27, r27

00001742 <.Loc.6>:
    1742:	a6 17       	cp	r26, r22

00001744 <.Loc.7>:
    1744:	b7 07       	cpc	r27, r23

00001746 <.Loc.8>:
    1746:	10 f0       	brcs	.+4      	; 0x174c <__udivmodhi4_ep>

00001748 <.Loc.9>:
    1748:	a6 1b       	sub	r26, r22

0000174a <.Loc.10>:
    174a:	b7 0b       	sbc	r27, r23

0000174c <__udivmodhi4_ep>:
    174c:	88 1f       	adc	r24, r24

0000174e <.Loc.12>:
    174e:	99 1f       	adc	r25, r25

00001750 <.Loc.13>:
    1750:	5a 95       	dec	r21

00001752 <.Loc.14>:
    1752:	a9 f7       	brne	.-22     	; 0x173e <__udivmodhi4_loop>

00001754 <.Loc.15>:
    1754:	80 95       	com	r24

00001756 <.Loc.16>:
    1756:	90 95       	com	r25

00001758 <.Loc.17>:
    1758:	bc 01       	movw	r22, r24

0000175a <.Loc.18>:
    175a:	cd 01       	movw	r24, r26

0000175c <.Loc.19>:
    175c:	08 95       	ret

0000175e <_exit>:
    175e:	f8 94       	cli

00001760 <__stop_program>:
    1760:	ff cf       	rjmp	.-2      	; 0x1760 <__stop_program>

00001762 <L0^A>:
    1762:	bf 02       	muls	r27, r31
    1764:	c5 02       	muls	r28, r21
    1766:	cb 02       	muls	r28, r27
    1768:	d1 02       	muls	r29, r17
    176a:	d7 02       	muls	r29, r23
    176c:	dd 02       	muls	r29, r29
    176e:	e3 02       	muls	r30, r19
    1770:	e9 02       	muls	r30, r25
    1772:	ef 02       	muls	r30, r31

00001774 <.L41>:
    1774:	68 06       	cpc	r6, r24
    1776:	74 06       	cpc	r7, r20
    1778:	80 06       	cpc	r8, r16
    177a:	8c 06       	cpc	r8, r28
    177c:	98 06       	cpc	r9, r24
    177e:	a4 06       	cpc	r10, r20
    1780:	b0 06       	cpc	r11, r16
    1782:	bc 06       	cpc	r11, r28
    1784:	c8 06       	cpc	r12, r24
    1786:	d4 06       	cpc	r13, r20
    1788:	e0 06       	cpc	r14, r16
    178a:	ec 06       	cpc	r14, r28
    178c:	f8 06       	cpc	r15, r24
    178e:	04 07       	cpc	r16, r20
    1790:	10 07       	cpc	r17, r16
