
bin\Debug\Bibo.elf:     file format elf32-avr

Sections:
Idx Name          Size      VMA       LMA       File off  Algn
  0 .data         00000066  00800200  00001210  000012c4  2**0
                  CONTENTS, ALLOC, LOAD, DATA
  1 .text         00001210  00000000  00000000  000000b4  2**1
                  CONTENTS, ALLOC, LOAD, READONLY, CODE
  2 .bss          00000006  00800266  00800266  0000132a  2**0
                  ALLOC
  3 .fuse         00000003  00820000  00820000  0000132a  2**0
                  CONTENTS, ALLOC, LOAD, DATA
  4 .comment      00000012  00000000  00000000  0000132d  2**0
                  CONTENTS, READONLY
  5 .note.gnu.avr.deviceinfo 00000040  00000000  00000000  00001340  2**2
                  CONTENTS, READONLY, OCTETS
  6 .debug_aranges 000001f8  00000000  00000000  00001380  2**3
                  CONTENTS, READONLY, DEBUGGING, OCTETS
  7 .debug_info   00002f3c  00000000  00000000  00001578  2**0
                  CONTENTS, READONLY, DEBUGGING, OCTETS
  8 .debug_abbrev 000013f7  00000000  00000000  000044b4  2**0
                  CONTENTS, READONLY, DEBUGGING, OCTETS
  9 .debug_line   0000242d  00000000  00000000  000058ab  2**0
                  CONTENTS, READONLY, DEBUGGING, OCTETS
 10 .debug_frame  000004c0  00000000  00000000  00007cd8  2**2
                  CONTENTS, READONLY, DEBUGGING, OCTETS
 11 .debug_str    000009c4  00000000  00000000  00008198  2**0
                  CONTENTS, READONLY, DEBUGGING, OCTETS
 12 .debug_line_str 0000021e  00000000  00000000  00008b5c  2**0
                  CONTENTS, READONLY, DEBUGGING, OCTETS
 13 .debug_loclists 000007df  00000000  00000000  00008d7a  2**0
                  CONTENTS, READONLY, DEBUGGING, OCTETS
 14 .debug_rnglists 00000051  00000000  00000000  00009559  2**0
                  CONTENTS, READONLY, DEBUGGING, OCTETS

Disassembly of section .text:

00000000 <__vectors>:
       0:	0c 94 b0 00 	jmp	0x160	; 0x160 <__ctors_end>
       4:	0c 94 d3 00 	jmp	0x1a6	; 0x1a6 <__vector_1>
       8:	0c 94 d1 00 	jmp	0x1a2	; 0x1a2 <__bad_interrupt>
       c:	0c 94 d1 00 	jmp	0x1a2	; 0x1a2 <__bad_interrupt>
      10:	0c 94 d1 00 	jmp	0x1a2	; 0x1a2 <__bad_interrupt>
      14:	0c 94 d1 00 	jmp	0x1a2	; 0x1a2 <__bad_interrupt>
      18:	0c 94 d1 00 	jmp	0x1a2	; 0x1a2 <__bad_interrupt>
      1c:	0c 94 d1 00 	jmp	0x1a2	; 0x1a2 <__bad_interrupt>
      20:	0c 94 d1 00 	jmp	0x1a2	; 0x1a2 <__bad_interrupt>
      24:	0c 94 d1 00 	jmp	0x1a2	; 0x1a2 <__bad_interrupt>
      28:	0c 94 d1 00 	jmp	0x1a2	; 0x1a2 <__bad_interrupt>
      2c:	0c 94 d1 00 	jmp	0x1a2	; 0x1a2 <__bad_interrupt>
      30:	0c 94 d1 00 	jmp	0x1a2	; 0x1a2 <__bad_interrupt>
      34:	0c 94 d1 00 	jmp	0x1a2	; 0x1a2 <__bad_interrupt>
      38:	0c 94 d1 00 	jmp	0x1a2	; 0x1a2 <__bad_interrupt>
      3c:	0c 94 d1 00 	jmp	0x1a2	; 0x1a2 <__bad_interrupt>
      40:	0c 94 d1 00 	jmp	0x1a2	; 0x1a2 <__bad_interrupt>
      44:	0c 94 d1 00 	jmp	0x1a2	; 0x1a2 <__bad_interrupt>
      48:	0c 94 d1 00 	jmp	0x1a2	; 0x1a2 <__bad_interrupt>
      4c:	0c 94 d1 00 	jmp	0x1a2	; 0x1a2 <__bad_interrupt>
      50:	0c 94 d1 00 	jmp	0x1a2	; 0x1a2 <__bad_interrupt>
      54:	0c 94 d1 00 	jmp	0x1a2	; 0x1a2 <__bad_interrupt>
      58:	0c 94 d1 00 	jmp	0x1a2	; 0x1a2 <__bad_interrupt>
      5c:	0c 94 d1 00 	jmp	0x1a2	; 0x1a2 <__bad_interrupt>
      60:	0c 94 d1 00 	jmp	0x1a2	; 0x1a2 <__bad_interrupt>
      64:	0c 94 d1 00 	jmp	0x1a2	; 0x1a2 <__bad_interrupt>
      68:	0c 94 d1 00 	jmp	0x1a2	; 0x1a2 <__bad_interrupt>
      6c:	0c 94 d1 00 	jmp	0x1a2	; 0x1a2 <__bad_interrupt>
      70:	0c 94 d1 00 	jmp	0x1a2	; 0x1a2 <__bad_interrupt>
      74:	0c 94 d1 00 	jmp	0x1a2	; 0x1a2 <__bad_interrupt>
      78:	0c 94 d1 00 	jmp	0x1a2	; 0x1a2 <__bad_interrupt>
      7c:	0c 94 d1 00 	jmp	0x1a2	; 0x1a2 <__bad_interrupt>
      80:	0c 94 d1 00 	jmp	0x1a2	; 0x1a2 <__bad_interrupt>
      84:	0c 94 d1 00 	jmp	0x1a2	; 0x1a2 <__bad_interrupt>
      88:	0c 94 d1 00 	jmp	0x1a2	; 0x1a2 <__bad_interrupt>
      8c:	0c 94 d1 00 	jmp	0x1a2	; 0x1a2 <__bad_interrupt>
      90:	0c 94 d1 00 	jmp	0x1a2	; 0x1a2 <__bad_interrupt>
      94:	0c 94 d1 00 	jmp	0x1a2	; 0x1a2 <__bad_interrupt>
      98:	0c 94 d1 00 	jmp	0x1a2	; 0x1a2 <__bad_interrupt>
      9c:	0c 94 d1 00 	jmp	0x1a2	; 0x1a2 <__bad_interrupt>
      a0:	0c 94 d1 00 	jmp	0x1a2	; 0x1a2 <__bad_interrupt>
      a4:	0c 94 d1 00 	jmp	0x1a2	; 0x1a2 <__bad_interrupt>
      a8:	0c 94 d1 00 	jmp	0x1a2	; 0x1a2 <__bad_interrupt>
      ac:	0c 94 d1 00 	jmp	0x1a2	; 0x1a2 <__bad_interrupt>
      b0:	0c 94 d1 00 	jmp	0x1a2	; 0x1a2 <__bad_interrupt>
      b4:	0c 94 d1 00 	jmp	0x1a2	; 0x1a2 <__bad_interrupt>
      b8:	0c 94 d1 00 	jmp	0x1a2	; 0x1a2 <__bad_interrupt>
      bc:	0c 94 d1 00 	jmp	0x1a2	; 0x1a2 <__bad_interrupt>
      c0:	0c 94 d1 00 	jmp	0x1a2	; 0x1a2 <__bad_interrupt>
      c4:	0c 94 d1 00 	jmp	0x1a2	; 0x1a2 <__bad_interrupt>
      c8:	0c 94 d1 00 	jmp	0x1a2	; 0x1a2 <__bad_interrupt>
      cc:	0c 94 d1 00 	jmp	0x1a2	; 0x1a2 <__bad_interrupt>
      d0:	0c 94 d1 00 	jmp	0x1a2	; 0x1a2 <__bad_interrupt>
      d4:	0c 94 d1 00 	jmp	0x1a2	; 0x1a2 <__bad_interrupt>
      d8:	0c 94 d1 00 	jmp	0x1a2	; 0x1a2 <__bad_interrupt>
      dc:	0c 94 d1 00 	jmp	0x1a2	; 0x1a2 <__bad_interrupt>
      e0:	0c 94 d1 00 	jmp	0x1a2	; 0x1a2 <__bad_interrupt>

000000e4 <__trampolines_start>:
      e4:	0c 94 45 02 	jmp	0x48a	; 0x48a <.L28>
      e8:	0c 94 bc 05 	jmp	0xb78	; 0xb78 <.L49>
      ec:	0c 94 c8 05 	jmp	0xb90	; 0xb90 <.L48>
      f0:	0c 94 2d 02 	jmp	0x45a	; 0x45a <.L32>
      f4:	0c 94 e0 05 	jmp	0xbc0	; 0xbc0 <.L46>
      f8:	0c 94 39 02 	jmp	0x472	; 0x472 <.L30>
      fc:	0c 94 44 03 	jmp	0x688	; 0x688 <.L6>
     100:	0c 94 1c 06 	jmp	0xc38	; 0xc38 <.L40>
     104:	0c 94 8c 05 	jmp	0xb18	; 0xb18 <.L53>
     108:	0c 94 a4 05 	jmp	0xb48	; 0xb48 <.L51>
     10c:	0c 94 27 02 	jmp	0x44e	; 0x44e <.L33>
     110:	0c 94 02 03 	jmp	0x604	; 0x604 <.L9>
     114:	0c 94 5f 03 	jmp	0x6be	; 0x6be <.L8>
     118:	0c 94 b0 05 	jmp	0xb60	; 0xb60 <.L50>
     11c:	0c 94 e6 02 	jmp	0x5cc	; 0x5cc <.L10>
     120:	0c 94 f8 05 	jmp	0xbf0	; 0xbf0 <.L44>
     124:	0c 94 33 02 	jmp	0x466	; 0x466 <.L31>
     128:	0c 94 10 06 	jmp	0xc20	; 0xc20 <.L42>
     12c:	0c 94 80 05 	jmp	0xb00	; 0xb00 <.L54>
     130:	0c 94 98 05 	jmp	0xb30	; 0xb30 <.L52>
     134:	0c 94 3f 02 	jmp	0x47e	; 0x47e <.L29>
     138:	0c 94 21 02 	jmp	0x442	; 0x442 <.L34>
     13c:	0c 94 4b 02 	jmp	0x496	; 0x496 <.L27>
     140:	0c 94 d5 02 	jmp	0x5aa	; 0x5aa <.L11>
     144:	0c 94 d4 05 	jmp	0xba8	; 0xba8 <.L47>
     148:	0c 94 74 05 	jmp	0xae8	; 0xae8 <.L55>
     14c:	0c 94 bc 03 	jmp	0x778	; 0x778 <.L7>
     150:	0c 94 ec 05 	jmp	0xbd8	; 0xbd8 <.L45>
     154:	0c 94 51 02 	jmp	0x4a2	; 0x4a2 <.L25>
     158:	0c 94 e9 03 	jmp	0x7d2	; 0x7d2 <.L4>
     15c:	0c 94 04 06 	jmp	0xc08	; 0xc08 <.L43>

00000160 <__ctors_end>:
     160:	11 24       	eor	r1, r1
     162:	1f be       	out	0x3f, r1	; 63
     164:	cf ef       	ldi	r28, 0xFF	; 255
     166:	d1 e2       	ldi	r29, 0x21	; 33
     168:	de bf       	out	0x3e, r29	; 62
     16a:	cd bf       	out	0x3d, r28	; 61
     16c:	00 e0       	ldi	r16, 0x00	; 0
     16e:	0c bf       	out	0x3c, r16	; 60

00000170 <__do_copy_data>:
     170:	12 e0       	ldi	r17, 0x02	; 2

00000172 <.Loc.1>:
     172:	a0 e0       	ldi	r26, 0x00	; 0

00000174 <.Loc.2>:
     174:	b2 e0       	ldi	r27, 0x02	; 2

00000176 <.Loc.3>:
     176:	e0 e1       	ldi	r30, 0x10	; 16

00000178 <.Loc.4>:
     178:	f2 e1       	ldi	r31, 0x12	; 18

0000017a <.Loc.5>:
     17a:	00 e0       	ldi	r16, 0x00	; 0

0000017c <.Loc.6>:
     17c:	0b bf       	out	0x3b, r16	; 59

0000017e <.Loc.7>:
     17e:	02 c0       	rjmp	.+4      	; 0x184 <.L__do_copy_data_start>

00000180 <.L__do_copy_data_loop>:
     180:	07 90       	elpm	r0, Z+

00000182 <.Loc.9>:
     182:	0d 92       	st	X+, r0

00000184 <.L__do_copy_data_start>:
     184:	a6 36       	cpi	r26, 0x66	; 102

00000186 <.Loc.11>:
     186:	b1 07       	cpc	r27, r17

00000188 <.Loc.12>:
     188:	d9 f7       	brne	.-10     	; 0x180 <.L__do_copy_data_loop>

0000018a <__do_clear_bss>:
     18a:	22 e0       	ldi	r18, 0x02	; 2

0000018c <.Loc.1>:
     18c:	a6 e6       	ldi	r26, 0x66	; 102

0000018e <.Loc.2>:
     18e:	b2 e0       	ldi	r27, 0x02	; 2

00000190 <.Loc.3>:
     190:	01 c0       	rjmp	.+2      	; 0x194 <.Loc.5>

00000192 <.Loc.4>:
     192:	1d 92       	st	X+, r1

00000194 <.Loc.5>:
     194:	ac 36       	cpi	r26, 0x6C	; 108

00000196 <.Loc.6>:
     196:	b2 07       	cpc	r27, r18

00000198 <.Loc.7>:
     198:	e1 f7       	brne	.-8      	; 0x192 <.Loc.4>

0000019a <L0^A>:
     19a:	0e 94 b0 02 	call	0x560	; 0x560 <main>
     19e:	0c 94 e7 08 	jmp	0x11ce	; 0x11ce <_exit>

000001a2 <__bad_interrupt>:
     1a2:	0c 94 00 00 	jmp	0	; 0x0 <__vectors>

000001a6 <__vector_1>:
#include "config.h"
#include "stepper.h"
#include "music.h"

// --- STOP KNOP --- //
ISR(INT0_vect){
     1a6:	1f 92       	push	r1
     1a8:	0f 92       	push	r0
     1aa:	0f b6       	in	r0, 0x3f	; 63
     1ac:	0f 92       	push	r0
     1ae:	11 24       	eor	r1, r1
     1b0:	0b b6       	in	r0, 0x3b	; 59
     1b2:	0f 92       	push	r0
     1b4:	2f 93       	push	r18
     1b6:	3f 93       	push	r19
     1b8:	4f 93       	push	r20
     1ba:	5f 93       	push	r21
     1bc:	6f 93       	push	r22
     1be:	7f 93       	push	r23
     1c0:	8f 93       	push	r24
     1c2:	9f 93       	push	r25
     1c4:	af 93       	push	r26
     1c6:	bf 93       	push	r27
     1c8:	cf 93       	push	r28
     1ca:	df 93       	push	r29
     1cc:	ef 93       	push	r30
     1ce:	ff 93       	push	r31

000001d0 <.LBB10>:
    if(stop_pressed()){
     1d0:	48 9b       	sbis	0x09, 0	; 9
     1d2:	20 c0       	rjmp	.+64     	; 0x214 <.L1>

000001d4 <.LBI12>:
        while(stop_pressed()){
     1d4:	48 9b       	sbis	0x09, 0	; 9
     1d6:	18 c0       	rjmp	.+48     	; 0x208 <.L3>

000001d8 <.Loc.9>:
            // Stop steppers
            DDR_ST1_STEP &= ~(1<<PIN_ST1_STEP);
            DDR_ST2_STEP &= ~(1<<PIN_ST2_STEP);
     1d8:	c1 e0       	ldi	r28, 0x01	; 1
     1da:	d1 e0       	ldi	r29, 0x01	; 1
     1dc:	04 c0       	rjmp	.+8      	; 0x1e6 <.L7>

000001de <.L4>:
            buzzer_enable(0);
            if(stop_pressed()){
                display_txt_stop();
            }
            else{
                if(!stop_pressed()){
     1de:	48 9b       	sbis	0x09, 0	; 9
     1e0:	0e c0       	rjmp	.+28     	; 0x1fe <.L9>

000001e2 <.L5>:
        while(stop_pressed()){
     1e2:	48 9b       	sbis	0x09, 0	; 9
     1e4:	11 c0       	rjmp	.+34     	; 0x208 <.L3>

000001e6 <.L7>:
            DDR_ST1_STEP &= ~(1<<PIN_ST1_STEP);
     1e6:	9d 98       	cbi	0x13, 5	; 19

000001e8 <.Loc.20>:
            DDR_ST2_STEP &= ~(1<<PIN_ST2_STEP);
     1e8:	88 81       	ld	r24, Y
     1ea:	8f 7b       	andi	r24, 0xBF	; 191
     1ec:	88 83       	st	Y, r24

000001ee <.Loc.22>:
            buzzer_enable(0);
     1ee:	80 e0       	ldi	r24, 0x00	; 0
     1f0:	0e 94 34 04 	call	0x868	; 0x868 <buzzer_enable>

000001f4 <.LBB18>:
            if(stop_pressed()){
     1f4:	48 9b       	sbis	0x09, 0	; 9
     1f6:	f3 cf       	rjmp	.-26     	; 0x1de <.L4>

000001f8 <.Loc.27>:
                display_txt_stop();
     1f8:	0e 94 61 08 	call	0x10c2	; 0x10c2 <display_txt_stop>

000001fc <.LVL1>:
     1fc:	f2 cf       	rjmp	.-28     	; 0x1e2 <.L5>

000001fe <.L9>:
                    // RESET arduino
                    cli();
     1fe:	f8 94       	cli

00000200 <.Loc.29>:
                    // Enable Watchdog Timer and set minimum timeout
                    WDTCSR = (1 << WDE) | (1 << WDCE);
     200:	88 e1       	ldi	r24, 0x18	; 24
     202:	80 93 60 00 	sts	0x0060, r24	; 0x800060 <__TEXT_REGION_LENGTH__+0x700060>

00000206 <.L6>:
                    // Wait for the watchdog timer to reset the system
                    while (1) {}
     206:	ff cf       	rjmp	.-2      	; 0x206 <.L6>

00000208 <.L3>:
                }
            }
        }
        // Re-enable steppers
        DDR_ST1_STEP |= (1<<PIN_ST1_STEP);
     208:	9d 9a       	sbi	0x13, 5	; 19

0000020a <.Loc.36>:
        DDR_ST2_STEP |= (1<<PIN_ST2_STEP);
     20a:	e1 e0       	ldi	r30, 0x01	; 1
     20c:	f1 e0       	ldi	r31, 0x01	; 1
     20e:	80 81       	ld	r24, Z

00000210 <.Loc.37>:
     210:	80 64       	ori	r24, 0x40	; 64
     212:	80 83       	st	Z, r24

00000214 <.L1>:
    }
}
     214:	ff 91       	pop	r31
     216:	ef 91       	pop	r30
     218:	df 91       	pop	r29
     21a:	cf 91       	pop	r28
     21c:	bf 91       	pop	r27
     21e:	af 91       	pop	r26
     220:	9f 91       	pop	r25
     222:	8f 91       	pop	r24
     224:	7f 91       	pop	r23
     226:	6f 91       	pop	r22
     228:	5f 91       	pop	r21
     22a:	4f 91       	pop	r20
     22c:	3f 91       	pop	r19
     22e:	2f 91       	pop	r18
     230:	0f 90       	pop	r0
     232:	0b be       	out	0x3b, r0	; 59
     234:	0f 90       	pop	r0
     236:	0f be       	out	0x3f, r0	; 63
     238:	0f 90       	pop	r0
     23a:	1f 90       	pop	r1
     23c:	18 95       	reti

0000023e <init_stop_button>:
    init_limit_switches();
}

// --- INIT INTERRUPT FOR STOP BUTTON --- //
void init_stop_button(void){
    DDR_STOP &= ~(1<<PIN_STOP);
     23e:	50 98       	cbi	0x0a, 0	; 10

00000240 <.Loc.42>:
    EICRA |= (1<<ISC01) | (1<<ISC00);  // Rising edge
     240:	e9 e6       	ldi	r30, 0x69	; 105
     242:	f0 e0       	ldi	r31, 0x00	; 0
     244:	80 81       	ld	r24, Z

00000246 <.Loc.43>:
     246:	83 60       	ori	r24, 0x03	; 3
     248:	80 83       	st	Z, r24

0000024a <.Loc.44>:
    EIMSK |= (1<<INT0);
     24a:	e8 9a       	sbi	0x1d, 0	; 29

0000024c <.Loc.46>:
}
     24c:	08 95       	ret

0000024e <stop_pressed>:
// --- Functions for reading buttons and sensors --- //
char stop_pressed(void) {
    return (REG_STOP & (1 << PIN_STOP));
     24e:	89 b1       	in	r24, 0x09	; 9

00000250 <.Loc.50>:
}
     250:	81 70       	andi	r24, 0x01	; 1
     252:	08 95       	ret

00000254 <init_limit_switches>:

/// --- limit_switches---///
void init_limit_switches(void) {
    // Set PD0 and PD1 (pins 25, 26) as input
    DDRA &= ~((1 << PA3) | (1 << PA4));
     254:	81 b1       	in	r24, 0x01	; 1
     256:	87 7e       	andi	r24, 0xE7	; 231
     258:	81 b9       	out	0x01, r24	; 1

0000025a <.Loc.54>:

    // Optional: Enable pull-up resistors
    PORTA |= (1 << PA3) | (1 << PA4);
     25a:	82 b1       	in	r24, 0x02	; 2

0000025c <.Loc.55>:
     25c:	88 61       	ori	r24, 0x18	; 24
     25e:	82 b9       	out	0x02, r24	; 2

00000260 <.Loc.56>:
    // Set PD1 startbutton
    DDRD &= ~((1 << PD1));
     260:	51 98       	cbi	0x0a, 1	; 10

00000262 <.Loc.58>:

    // Optional: Enable pull-up resistors startbutton
    PORTD |= (1 << PD1);
     262:	59 9a       	sbi	0x0b, 1	; 11

00000264 <.Loc.60>:
}
     264:	08 95       	ret

00000266 <basic_io_init>:
    init_stop_button();
     266:	0e 94 1f 01 	call	0x23e	; 0x23e <init_stop_button>

0000026a <.LVL2>:
    init_limit_switches();
     26a:	0e 94 2a 01 	call	0x254	; 0x254 <init_limit_switches>

0000026e <.LVL3>:
}
     26e:	08 95       	ret

00000270 <light_limit_switch_25>:

uint8_t light_limit_switch_25(void) {
    return !(PINA & (1 << PA3));
     270:	80 b1       	in	r24, 0x00	; 0

00000272 <.Loc.68>:
     272:	83 fb       	bst	r24, 3
     274:	88 27       	eor	r24, r24
     276:	80 f9       	bld	r24, 0

00000278 <.Loc.69>:
}
     278:	91 e0       	ldi	r25, 0x01	; 1
     27a:	89 27       	eor	r24, r25
     27c:	08 95       	ret

0000027e <heavy_limit_switch_26>:

uint8_t heavy_limit_switch_26(void) {
    return !(PINA & (1 << PA4));
     27e:	80 b1       	in	r24, 0x00	; 0

00000280 <.Loc.73>:
     280:	82 95       	swap	r24
     282:	81 70       	andi	r24, 0x01	; 1

00000284 <.Loc.74>:
}
     284:	91 e0       	ldi	r25, 0x01	; 1
     286:	89 27       	eor	r24, r25
     288:	08 95       	ret

0000028a <starting_button>:
//starting button
uint8_t starting_button(void) {
    return !(PIND & (1 << PD1));
     28a:	89 b1       	in	r24, 0x09	; 9

0000028c <.Loc.78>:
     28c:	86 95       	lsr	r24
     28e:	81 70       	andi	r24, 0x01	; 1

00000290 <.Loc.79>:
}
     290:	91 e0       	ldi	r25, 0x01	; 1
     292:	89 27       	eor	r24, r25
     294:	08 95       	ret

00000296 <USART0_init>:
#include "config.h"


// Init USART0 (USB naar PC - voor PuTTY)
void USART0_init(unsigned int baud) {
    unsigned int ubrr = F_CPU / 16 / baud - 1;
     296:	9c 01       	movw	r18, r24
     298:	40 e0       	ldi	r20, 0x00	; 0
     29a:	50 e0       	ldi	r21, 0x00	; 0
     29c:	60 e4       	ldi	r22, 0x40	; 64
     29e:	72 e4       	ldi	r23, 0x42	; 66
     2a0:	8f e0       	ldi	r24, 0x0F	; 15
     2a2:	90 e0       	ldi	r25, 0x00	; 0
     2a4:	0e 94 8a 08 	call	0x1114	; 0x1114 <__udivmodsi4>

000002a8 <.Loc.3>:
     2a8:	21 50       	subi	r18, 0x01	; 1
     2aa:	31 09       	sbc	r19, r1

000002ac <.Loc.4>:
    UBRR0H = (unsigned char)(ubrr >> 8);
     2ac:	30 93 c5 00 	sts	0x00C5, r19	; 0x8000c5 <__TEXT_REGION_LENGTH__+0x7000c5>

000002b0 <.Loc.6>:
    UBRR0L = (unsigned char)ubrr;
     2b0:	20 93 c4 00 	sts	0x00C4, r18	; 0x8000c4 <__TEXT_REGION_LENGTH__+0x7000c4>

000002b4 <.Loc.8>:
    UCSR0B = (1 << RXEN0) | (1 << TXEN0);
     2b4:	88 e1       	ldi	r24, 0x18	; 24

000002b6 <.Loc.10>:
     2b6:	80 93 c1 00 	sts	0x00C1, r24	; 0x8000c1 <__TEXT_REGION_LENGTH__+0x7000c1>

000002ba <.Loc.11>:
    UCSR0C = (3 << UCSZ00); // 8-bit data
     2ba:	86 e0       	ldi	r24, 0x06	; 6
     2bc:	80 93 c2 00 	sts	0x00C2, r24	; 0x8000c2 <__TEXT_REGION_LENGTH__+0x7000c2>

000002c0 <.Loc.13>:
}
     2c0:	08 95       	ret

000002c2 <USART1_init>:

// Init USART1 (naar Slave)
void USART1_init(unsigned int baud) {
    unsigned int ubrr = F_CPU / 16 / baud - 1;
     2c2:	9c 01       	movw	r18, r24
     2c4:	40 e0       	ldi	r20, 0x00	; 0
     2c6:	50 e0       	ldi	r21, 0x00	; 0
     2c8:	60 e4       	ldi	r22, 0x40	; 64
     2ca:	72 e4       	ldi	r23, 0x42	; 66
     2cc:	8f e0       	ldi	r24, 0x0F	; 15
     2ce:	90 e0       	ldi	r25, 0x00	; 0
     2d0:	0e 94 8a 08 	call	0x1114	; 0x1114 <__udivmodsi4>

000002d4 <.Loc.17>:
     2d4:	21 50       	subi	r18, 0x01	; 1
     2d6:	31 09       	sbc	r19, r1

000002d8 <.Loc.18>:
    UBRR1H = (unsigned char)(ubrr >> 8);
     2d8:	30 93 cd 00 	sts	0x00CD, r19	; 0x8000cd <__TEXT_REGION_LENGTH__+0x7000cd>

000002dc <.Loc.20>:
    UBRR1L = (unsigned char)ubrr;
     2dc:	20 93 cc 00 	sts	0x00CC, r18	; 0x8000cc <__TEXT_REGION_LENGTH__+0x7000cc>

000002e0 <.Loc.22>:
    UCSR1B = (1 << RXEN1) | (1 << TXEN1);
     2e0:	88 e1       	ldi	r24, 0x18	; 24

000002e2 <.Loc.24>:
     2e2:	80 93 c9 00 	sts	0x00C9, r24	; 0x8000c9 <__TEXT_REGION_LENGTH__+0x7000c9>

000002e6 <.Loc.25>:
    UCSR1C = (3 << UCSZ10); // 8-bit data
     2e6:	86 e0       	ldi	r24, 0x06	; 6
     2e8:	80 93 ca 00 	sts	0x00CA, r24	; 0x8000ca <__TEXT_REGION_LENGTH__+0x7000ca>

000002ec <.Loc.27>:
}
     2ec:	08 95       	ret

000002ee <USART0_sendByte>:

// USART0: zend byte naar PC
void USART0_sendByte(uint8_t data) {
    while (!(UCSR0A & (1 << UDRE0)));
     2ee:	e0 ec       	ldi	r30, 0xC0	; 192
     2f0:	f0 e0       	ldi	r31, 0x00	; 0

000002f2 <.L4>:
     2f2:	90 81       	ld	r25, Z

000002f4 <.Loc.33>:
     2f4:	95 ff       	sbrs	r25, 5
     2f6:	fd cf       	rjmp	.-6      	; 0x2f2 <.L4>

000002f8 <.Loc.34>:
    UDR0 = data;
     2f8:	80 93 c6 00 	sts	0x00C6, r24	; 0x8000c6 <__TEXT_REGION_LENGTH__+0x7000c6>

000002fc <.Loc.36>:
}
     2fc:	08 95       	ret

000002fe <USART0_sendString>:

// USART0: zend string naar PC
void USART0_sendString(const char* str) {
     2fe:	cf 93       	push	r28
     300:	df 93       	push	r29
     302:	c8 2f       	mov	r28, r24
     304:	d9 2f       	mov	r29, r25

00000306 <.Loc.39>:
    while (*str) {
     306:	88 81       	ld	r24, Y
     308:	88 23       	and	r24, r24
     30a:	31 f0       	breq	.+12     	; 0x318 <.L6>
     30c:	21 96       	adiw	r28, 0x01	; 1

0000030e <.L8>:
        USART0_sendByte(*str++);
     30e:	0e 94 77 01 	call	0x2ee	; 0x2ee <USART0_sendByte>

00000312 <.LVL10>:
    while (*str) {
     312:	89 91       	ld	r24, Y+

00000314 <.Loc.44>:
     314:	81 11       	cpse	r24, r1
     316:	fb cf       	rjmp	.-10     	; 0x30e <.L8>

00000318 <.L6>:
    }
}
     318:	df 91       	pop	r29
     31a:	cf 91       	pop	r28
     31c:	08 95       	ret

0000031e <USART0_sendHexByte>:

// USART0: zend hexwaarde als ASCII naar PC
void USART0_sendHexByte(uint8_t byte) {
     31e:	1f 93       	push	r17
     320:	cf 93       	push	r28
     322:	df 93       	push	r29
     324:	cd b7       	in	r28, 0x3d	; 61
     326:	de b7       	in	r29, 0x3e	; 62
     328:	61 97       	sbiw	r28, 0x11	; 17
     32a:	0f b6       	in	r0, 0x3f	; 63
     32c:	f8 94       	cli
     32e:	de bf       	out	0x3e, r29	; 62
     330:	0f be       	out	0x3f, r0	; 63
     332:	cd bf       	out	0x3d, r28	; 61
     334:	18 2f       	mov	r17, r24

00000336 <.Loc.48>:
    char hex[] = "0123456789ABCDEF";
     336:	81 e1       	ldi	r24, 0x11	; 17

00000338 <.Loc.50>:
     338:	e1 e2       	ldi	r30, 0x21	; 33
     33a:	f2 e0       	ldi	r31, 0x02	; 2
     33c:	de 01       	movw	r26, r28
     33e:	11 96       	adiw	r26, 0x01	; 1

00000340 <.L^B1>:
     340:	01 90       	ld	r0, Z+
     342:	0d 92       	st	X+, r0
     344:	8a 95       	dec	r24
     346:	e1 f7       	brne	.-8      	; 0x340 <.L^B1>

00000348 <.Loc.51>:
    USART0_sendByte(hex[(byte >> 4) & 0x0F]);
     348:	81 2f       	mov	r24, r17
     34a:	82 95       	swap	r24
     34c:	8f 70       	andi	r24, 0x0F	; 15

0000034e <.Loc.53>:
     34e:	e1 e0       	ldi	r30, 0x01	; 1
     350:	f0 e0       	ldi	r31, 0x00	; 0
     352:	ec 0f       	add	r30, r28
     354:	fd 1f       	adc	r31, r29
     356:	e8 0f       	add	r30, r24
     358:	f1 1d       	adc	r31, r1

0000035a <.Loc.54>:
     35a:	80 81       	ld	r24, Z
     35c:	0e 94 77 01 	call	0x2ee	; 0x2ee <USART0_sendByte>

00000360 <.LVL15>:
    USART0_sendByte(hex[byte & 0x0F]);
     360:	1f 70       	andi	r17, 0x0F	; 15

00000362 <.Loc.57>:
     362:	e1 e0       	ldi	r30, 0x01	; 1
     364:	f0 e0       	ldi	r31, 0x00	; 0
     366:	ec 0f       	add	r30, r28
     368:	fd 1f       	adc	r31, r29
     36a:	e1 0f       	add	r30, r17
     36c:	f1 1d       	adc	r31, r1

0000036e <.Loc.58>:
     36e:	80 81       	ld	r24, Z
     370:	0e 94 77 01 	call	0x2ee	; 0x2ee <USART0_sendByte>

00000374 <.LVL17>:
}
     374:	61 96       	adiw	r28, 0x11	; 17
     376:	0f b6       	in	r0, 0x3f	; 63
     378:	f8 94       	cli
     37a:	de bf       	out	0x3e, r29	; 62
     37c:	0f be       	out	0x3f, r0	; 63
     37e:	cd bf       	out	0x3d, r28	; 61
     380:	df 91       	pop	r29
     382:	cf 91       	pop	r28
     384:	1f 91       	pop	r17
     386:	08 95       	ret

00000388 <USART1_sendCommand>:

// USART1: zend 4-byte commando naar Slave
void USART1_sendCommand(uint8_t b1, uint8_t b2, uint8_t b3, uint8_t b4) {
     388:	0f 93       	push	r16
     38a:	1f 93       	push	r17
     38c:	cf 93       	push	r28
     38e:	df 93       	push	r29
     390:	08 2f       	mov	r16, r24
     392:	16 2f       	mov	r17, r22
     394:	d4 2f       	mov	r29, r20
     396:	c2 2f       	mov	r28, r18

00000398 <.Loc.62>:
    USART0_sendString("MASTER: Sending to Slave: ");
     398:	82 e3       	ldi	r24, 0x32	; 50
     39a:	92 e0       	ldi	r25, 0x02	; 2

0000039c <.Loc.63>:
     39c:	0e 94 7f 01 	call	0x2fe	; 0x2fe <USART0_sendString>

000003a0 <.LVL20>:
    USART0_sendHexByte(b1); USART0_sendByte(' ');
     3a0:	80 2f       	mov	r24, r16
     3a2:	0e 94 8f 01 	call	0x31e	; 0x31e <USART0_sendHexByte>

000003a6 <.LVL21>:
     3a6:	80 e2       	ldi	r24, 0x20	; 32
     3a8:	0e 94 77 01 	call	0x2ee	; 0x2ee <USART0_sendByte>

000003ac <.LVL22>:
    USART0_sendHexByte(b2); USART0_sendByte(' ');
     3ac:	81 2f       	mov	r24, r17
     3ae:	0e 94 8f 01 	call	0x31e	; 0x31e <USART0_sendHexByte>

000003b2 <.LVL23>:
     3b2:	80 e2       	ldi	r24, 0x20	; 32
     3b4:	0e 94 77 01 	call	0x2ee	; 0x2ee <USART0_sendByte>

000003b8 <.LVL24>:
    USART0_sendHexByte(b3); USART0_sendByte(' ');
     3b8:	8d 2f       	mov	r24, r29
     3ba:	0e 94 8f 01 	call	0x31e	; 0x31e <USART0_sendHexByte>

000003be <.LVL25>:
     3be:	80 e2       	ldi	r24, 0x20	; 32
     3c0:	0e 94 77 01 	call	0x2ee	; 0x2ee <USART0_sendByte>

000003c4 <.LVL26>:
    USART0_sendHexByte(b4); USART0_sendString("\r\n");
     3c4:	8c 2f       	mov	r24, r28
     3c6:	0e 94 8f 01 	call	0x31e	; 0x31e <USART0_sendHexByte>

000003ca <.LVL27>:
     3ca:	82 e6       	ldi	r24, 0x62	; 98
     3cc:	92 e0       	ldi	r25, 0x02	; 2
     3ce:	0e 94 7f 01 	call	0x2fe	; 0x2fe <USART0_sendString>

000003d2 <.LVL28>:

    while (!(UCSR1A & (1 << UDRE1))) {}
     3d2:	e8 ec       	ldi	r30, 0xC8	; 200
     3d4:	f0 e0       	ldi	r31, 0x00	; 0

000003d6 <.L12>:
     3d6:	90 81       	ld	r25, Z

000003d8 <.Loc.77>:
     3d8:	95 ff       	sbrs	r25, 5
     3da:	fd cf       	rjmp	.-6      	; 0x3d6 <.L12>

000003dc <.Loc.78>:
    UDR1 = b1;
     3dc:	00 93 ce 00 	sts	0x00CE, r16	; 0x8000ce <__TEXT_REGION_LENGTH__+0x7000ce>

000003e0 <.Loc.80>:
    while (!(UCSR1A & (1 << UDRE1))) {}
     3e0:	e8 ec       	ldi	r30, 0xC8	; 200
     3e2:	f0 e0       	ldi	r31, 0x00	; 0

000003e4 <.L13>:
     3e4:	90 81       	ld	r25, Z

000003e6 <.Loc.85>:
     3e6:	95 ff       	sbrs	r25, 5
     3e8:	fd cf       	rjmp	.-6      	; 0x3e4 <.L13>

000003ea <.Loc.86>:
    UDR1 = b2;
     3ea:	10 93 ce 00 	sts	0x00CE, r17	; 0x8000ce <__TEXT_REGION_LENGTH__+0x7000ce>

000003ee <.Loc.88>:
    while (!(UCSR1A & (1 << UDRE1))) {}
     3ee:	e8 ec       	ldi	r30, 0xC8	; 200
     3f0:	f0 e0       	ldi	r31, 0x00	; 0

000003f2 <.L14>:
     3f2:	90 81       	ld	r25, Z

000003f4 <.Loc.93>:
     3f4:	95 ff       	sbrs	r25, 5
     3f6:	fd cf       	rjmp	.-6      	; 0x3f2 <.L14>

000003f8 <.Loc.94>:
    UDR1 = b3;
     3f8:	d0 93 ce 00 	sts	0x00CE, r29	; 0x8000ce <__TEXT_REGION_LENGTH__+0x7000ce>

000003fc <.Loc.96>:
    while (!(UCSR1A & (1 << UDRE1))) {}
     3fc:	e8 ec       	ldi	r30, 0xC8	; 200
     3fe:	f0 e0       	ldi	r31, 0x00	; 0

00000400 <.L15>:
     400:	90 81       	ld	r25, Z

00000402 <.Loc.101>:
     402:	95 ff       	sbrs	r25, 5
     404:	fd cf       	rjmp	.-6      	; 0x400 <.L15>

00000406 <.Loc.102>:
    UDR1 = b4;
     406:	c0 93 ce 00 	sts	0x00CE, r28	; 0x8000ce <__TEXT_REGION_LENGTH__+0x7000ce>

0000040a <.Loc.104>:
    USART0_sendString("MASTER: Command sent.\r\n");
     40a:	8d e4       	ldi	r24, 0x4D	; 77
     40c:	92 e0       	ldi	r25, 0x02	; 2
     40e:	0e 94 7f 01 	call	0x2fe	; 0x2fe <USART0_sendString>

00000412 <.LVL29>:
}
     412:	df 91       	pop	r29

00000414 <.Loc.106>:
     414:	cf 91       	pop	r28

00000416 <.Loc.107>:
     416:	1f 91       	pop	r17

00000418 <.Loc.108>:
     418:	0f 91       	pop	r16

0000041a <.Loc.109>:
     41a:	08 95       	ret

0000041c <USART1_receiveByte>:

// USART1: ontvang byte van Slave
uint8_t USART1_receiveByte(void) {
    while (!(UCSR1A & (1 << RXC1)));
     41c:	e8 ec       	ldi	r30, 0xC8	; 200
     41e:	f0 e0       	ldi	r31, 0x00	; 0

00000420 <.L21>:
     420:	80 81       	ld	r24, Z

00000422 <.Loc.115>:
     422:	88 23       	and	r24, r24
     424:	ec f7       	brge	.-6      	; 0x420 <.L21>

00000426 <.Loc.116>:
    return UDR1;
     426:	80 91 ce 00 	lds	r24, 0x00CE	; 0x8000ce <__TEXT_REGION_LENGTH__+0x7000ce>

0000042a <.Loc.118>:
}
     42a:	08 95       	ret

0000042c <task_manager>:



void task_manager(tasks_bibo current_task, uint8_t speed, uint8_t acceleration) {
     42c:	e8 2f       	mov	r30, r24
     42e:	f9 2f       	mov	r31, r25
     430:	24 2f       	mov	r18, r20

00000432 <.Loc.121>:
    switch (current_task) {
     432:	09 97       	sbiw	r24, 0x09	; 9
     434:	d8 f5       	brcc	.+118    	; 0x4ac <.L23>
     436:	88 27       	eor	r24, r24
     438:	e7 51       	subi	r30, 0x17	; 23
     43a:	f7 4f       	sbci	r31, 0xF7	; 247
     43c:	8f 4f       	sbci	r24, 0xFF	; 255
     43e:	0c 94 cb 08 	jmp	0x1196	; 0x1196 <__tablejump2__>

00000442 <.L34>:
        case forward_slow:  USART1_sendCommand(0x01, 0x80, speed, acceleration); break;
     442:	46 2f       	mov	r20, r22

00000444 <.Loc.123>:
     444:	60 e8       	ldi	r22, 0x80	; 128

00000446 <.Loc.124>:
     446:	81 e0       	ldi	r24, 0x01	; 1
     448:	0e 94 c4 01 	call	0x388	; 0x388 <USART1_sendCommand>

0000044c <.LVL38>:
     44c:	08 95       	ret

0000044e <.L33>:
        case forward_fast:  USART1_sendCommand(0x01, 0xFF, speed, acceleration); break;
     44e:	46 2f       	mov	r20, r22
     450:	6f ef       	ldi	r22, 0xFF	; 255

00000452 <.Loc.127>:
     452:	81 e0       	ldi	r24, 0x01	; 1
     454:	0e 94 c4 01 	call	0x388	; 0x388 <USART1_sendCommand>

00000458 <.LVL41>:
     458:	08 95       	ret

0000045a <.L32>:
        case backward_slow: USART1_sendCommand(0x01, 0x00, speed, acceleration); break;
     45a:	46 2f       	mov	r20, r22
     45c:	60 e0       	ldi	r22, 0x00	; 0

0000045e <.Loc.130>:
     45e:	81 e0       	ldi	r24, 0x01	; 1
     460:	0e 94 c4 01 	call	0x388	; 0x388 <USART1_sendCommand>

00000464 <.LVL44>:
     464:	08 95       	ret

00000466 <.L31>:
        case backward_fast: USART1_sendCommand(0x01, 0x7E, speed, acceleration); break;
     466:	46 2f       	mov	r20, r22
     468:	6e e7       	ldi	r22, 0x7E	; 126

0000046a <.Loc.133>:
     46a:	81 e0       	ldi	r24, 0x01	; 1
     46c:	0e 94 c4 01 	call	0x388	; 0x388 <USART1_sendCommand>

00000470 <.LVL47>:
     470:	08 95       	ret

00000472 <.L30>:
        case stop:          USART1_sendCommand(0x01, 0x7F, speed, acceleration); break;
     472:	46 2f       	mov	r20, r22
     474:	6f e7       	ldi	r22, 0x7F	; 127

00000476 <.Loc.136>:
     476:	81 e0       	ldi	r24, 0x01	; 1
     478:	0e 94 c4 01 	call	0x388	; 0x388 <USART1_sendCommand>

0000047c <.LVL50>:
     47c:	08 95       	ret

0000047e <.L29>:
        case turn_left:     USART1_sendCommand(0x02, 0x01, speed, acceleration); break;
     47e:	46 2f       	mov	r20, r22
     480:	61 e0       	ldi	r22, 0x01	; 1

00000482 <.Loc.139>:
     482:	82 e0       	ldi	r24, 0x02	; 2
     484:	0e 94 c4 01 	call	0x388	; 0x388 <USART1_sendCommand>

00000488 <.LVL53>:
     488:	08 95       	ret

0000048a <.L28>:
        case turn_right:    USART1_sendCommand(0x02, 0x02, speed, acceleration); break;
     48a:	46 2f       	mov	r20, r22
     48c:	62 e0       	ldi	r22, 0x02	; 2

0000048e <.Loc.142>:
     48e:	82 e0       	ldi	r24, 0x02	; 2
     490:	0e 94 c4 01 	call	0x388	; 0x388 <USART1_sendCommand>

00000494 <.LVL56>:
     494:	08 95       	ret

00000496 <.L27>:
        case turn_left_H:   USART1_sendCommand(0x03, 0x01, speed, acceleration); break;
     496:	46 2f       	mov	r20, r22
     498:	61 e0       	ldi	r22, 0x01	; 1

0000049a <.Loc.145>:
     49a:	83 e0       	ldi	r24, 0x03	; 3
     49c:	0e 94 c4 01 	call	0x388	; 0x388 <USART1_sendCommand>

000004a0 <.LVL59>:
     4a0:	08 95       	ret

000004a2 <.L25>:
        case turn_right_H:  USART1_sendCommand(0x03, 0x02, speed, acceleration); break;
     4a2:	46 2f       	mov	r20, r22
     4a4:	62 e0       	ldi	r22, 0x02	; 2

000004a6 <.Loc.148>:
     4a6:	83 e0       	ldi	r24, 0x03	; 3
     4a8:	0e 94 c4 01 	call	0x388	; 0x388 <USART1_sendCommand>

000004ac <.L23>:
    }
}
     4ac:	08 95       	ret

000004ae <init_gp_timer>:
    init_gp_timer();
}
// --- Init general purpose timer --- //
void init_gp_timer(void){
    // Mode 4 CTC, prescaler 64
    TCCR1A = 0;
     4ae:	10 92 80 00 	sts	0x0080, r1	; 0x800080 <__TEXT_REGION_LENGTH__+0x700080>

000004b2 <.Loc.3>:
    TCCR1B = (1<<WGM12) | (1<<CS11) | (1<<CS10);
     4b2:	8b e0       	ldi	r24, 0x0B	; 11
     4b4:	80 93 81 00 	sts	0x0081, r24	; 0x800081 <__TEXT_REGION_LENGTH__+0x700081>

000004b8 <.Loc.5>:
    // OCR1A is top in mode 4
    OCR1A = GP_TIMER_TOP;
     4b8:	88 ea       	ldi	r24, 0xA8	; 168
     4ba:	91 e6       	ldi	r25, 0x61	; 97
     4bc:	90 93 89 00 	sts	0x0089, r25	; 0x800089 <__TEXT_REGION_LENGTH__+0x700089>
     4c0:	80 93 88 00 	sts	0x0088, r24	; 0x800088 <__TEXT_REGION_LENGTH__+0x700088>

000004c4 <.Loc.7>:
}
     4c4:	08 95       	ret

000004c6 <itermediate_control_init>:
    init_gp_timer();
     4c6:	0e 94 57 02 	call	0x4ae	; 0x4ae <init_gp_timer>

000004ca <.LVL0>:
}
     4ca:	08 95       	ret

000004cc <init>:
    basic_io_init();
     4cc:	0e 94 33 01 	call	0x266	; 0x266 <basic_io_init>

000004d0 <.LVL1>:
    display_init();
     4d0:	0e 94 2d 07 	call	0xe5a	; 0xe5a <display_init>

000004d4 <.LBB4>:
    init_gp_timer();
     4d4:	0e 94 57 02 	call	0x4ae	; 0x4ae <init_gp_timer>

000004d8 <.LBE4>:
    music_init();
     4d8:	0e 94 25 04 	call	0x84a	; 0x84a <music_init>

000004dc <.LVL4>:
    sei();
     4dc:	78 94       	sei

000004de <.Loc.19>:
    USART0_init(9600);
     4de:	80 e8       	ldi	r24, 0x80	; 128
     4e0:	95 e2       	ldi	r25, 0x25	; 37
     4e2:	0e 94 4b 01 	call	0x296	; 0x296 <USART0_init>

000004e6 <.LVL5>:
    USART1_init(9600);
     4e6:	80 e8       	ldi	r24, 0x80	; 128
     4e8:	95 e2       	ldi	r25, 0x25	; 37
     4ea:	0e 94 61 01 	call	0x2c2	; 0x2c2 <USART1_init>

000004ee <.LVL6>:
}
     4ee:	08 95       	ret

000004f0 <gp_timer>:
// --- Genral purpose timer --- //
// Timers only returns 1 after it initially reaches 0. Then it can be set again
char gp_timer(int set_value){
     4f0:	28 2f       	mov	r18, r24
     4f2:	39 2f       	mov	r19, r25

000004f4 <.Loc.24>:
    static int count = -1;
    // Reset timer
    if(set_value == -1){
     4f4:	2f 3f       	cpi	r18, 0xFF	; 255
     4f6:	32 07       	cpc	r19, r18
     4f8:	c9 f0       	breq	.+50     	; 0x52c <.L5>

000004fa <.Loc.27>:
        count = -1;
    }
    // Set value if not running
    if(count == -1){
     4fa:	80 91 00 02 	lds	r24, 0x0200	; 0x800200 <count.0>
     4fe:	90 91 01 02 	lds	r25, 0x0201	; 0x800201 <count.0+0x1>

00000502 <.Loc.29>:
     502:	8f 3f       	cpi	r24, 0xFF	; 255
     504:	98 07       	cpc	r25, r24
     506:	91 f0       	breq	.+36     	; 0x52c <.L5>

00000508 <.Loc.30>:
        count = set_value;
        TIFR1 = (1<<OCF1A);
        TCNT1 = 0;
    }
    // If running, count down on flag
    else if(count > 0){
     508:	18 16       	cp	r1, r24
     50a:	19 06       	cpc	r1, r25
     50c:	dc f4       	brge	.+54     	; 0x544 <.L8>

0000050e <.Loc.32>:
        if(TIFR1 & (1<<OCF1A)){
     50e:	b1 9b       	sbis	0x16, 1	; 22
     510:	25 c0       	rjmp	.+74     	; 0x55c <.L9>

00000512 <.Loc.34>:
            TIFR1 = (1<<OCF1A);
     512:	82 e0       	ldi	r24, 0x02	; 2
     514:	86 bb       	out	0x16, r24	; 22

00000516 <.Loc.36>:
            count--;
     516:	80 91 00 02 	lds	r24, 0x0200	; 0x800200 <count.0>
     51a:	90 91 01 02 	lds	r25, 0x0201	; 0x800201 <count.0+0x1>
     51e:	01 97       	sbiw	r24, 0x01	; 1
     520:	90 93 01 02 	sts	0x0201, r25	; 0x800201 <count.0+0x1>
     524:	80 93 00 02 	sts	0x0200, r24	; 0x800200 <count.0>

00000528 <.Loc.38>:
    // If 0 is reached, return 1
    else if(count == 0){
        count = -1;
        return 1;
    }
    return 0;
     528:	80 e0       	ldi	r24, 0x00	; 0
     52a:	08 95       	ret

0000052c <.L5>:
        count = set_value;
     52c:	30 93 01 02 	sts	0x0201, r19	; 0x800201 <count.0+0x1>
     530:	20 93 00 02 	sts	0x0200, r18	; 0x800200 <count.0>

00000534 <.Loc.41>:
        TIFR1 = (1<<OCF1A);
     534:	82 e0       	ldi	r24, 0x02	; 2
     536:	86 bb       	out	0x16, r24	; 22

00000538 <.Loc.43>:
        TCNT1 = 0;
     538:	10 92 85 00 	sts	0x0085, r1	; 0x800085 <__TEXT_REGION_LENGTH__+0x700085>
     53c:	10 92 84 00 	sts	0x0084, r1	; 0x800084 <__TEXT_REGION_LENGTH__+0x700084>

00000540 <.Loc.45>:
    return 0;
     540:	80 e0       	ldi	r24, 0x00	; 0
     542:	08 95       	ret

00000544 <.L8>:
    else if(count == 0){
     544:	89 2b       	or	r24, r25
     546:	11 f0       	breq	.+4      	; 0x54c <.L11>

00000548 <.Loc.48>:
    return 0;
     548:	80 e0       	ldi	r24, 0x00	; 0

0000054a <.Loc.49>:
}
     54a:	08 95       	ret

0000054c <.L11>:
        count = -1;
     54c:	8f ef       	ldi	r24, 0xFF	; 255
     54e:	9f ef       	ldi	r25, 0xFF	; 255
     550:	90 93 01 02 	sts	0x0201, r25	; 0x800201 <count.0+0x1>
     554:	80 93 00 02 	sts	0x0200, r24	; 0x800200 <count.0>

00000558 <.Loc.52>:
        return 1;
     558:	81 e0       	ldi	r24, 0x01	; 1
     55a:	08 95       	ret

0000055c <.L9>:
    return 0;
     55c:	80 e0       	ldi	r24, 0x00	; 0
     55e:	08 95       	ret

00000560 <main>:
#include "music.h"                  // Buzzer control
#include "intermediate_control.h"   // Control functions from other libraries
#include "communication.h"          // communication between master and slave

int main(void)
{
     560:	00 d0       	rcall	.+0      	; 0x562 <L0^A>

00000562 <L0^A>:
     562:	cd b7       	in	r28, 0x3d	; 61
     564:	de b7       	in	r29, 0x3e	; 62

00000566 <.Loc.1>:
    int heavy_packages = 0;
    int forward_timer = INITIAL_FORWARD_TIME;
    char heavy_triggered = 0;

    /// --- Init --- ///
    init();
     566:	0e 94 66 02 	call	0x4cc	; 0x4cc <init>

0000056a <.LVL1>:
    char heavy_triggered = 0;
     56a:	19 82       	std	Y+1, r1	; 0x01

0000056c <.Loc.12>:
    int forward_timer = INITIAL_FORWARD_TIME;
     56c:	0f 2e       	mov	r0, r31
     56e:	fa e5       	ldi	r31, 0x5A	; 90
     570:	8f 2e       	mov	r8, r31
     572:	91 2c       	mov	r9, r1
     574:	f0 2d       	mov	r31, r0

00000576 <.Loc.13>:
    int heavy_packages = 0;
     576:	c1 2c       	mov	r12, r1
     578:	d1 2c       	mov	r13, r1

0000057a <.Loc.14>:
    int light_packages = 0;
     57a:	e1 2c       	mov	r14, r1
     57c:	f1 2c       	mov	r15, r1

0000057e <.Loc.15>:
    char first_package_detected = 0;
     57e:	31 2c       	mov	r3, r1

00000580 <.Loc.16>:
    enum available_sub_states current_sub_state = entry;
     580:	1b 82       	std	Y+3, r1	; 0x03
     582:	1a 82       	std	Y+2, r1	; 0x02

00000584 <.Loc.17>:
    enum available_states current_state = wait;
     584:	01 e0       	ldi	r16, 0x01	; 1
     586:	10 e0       	ldi	r17, 0x00	; 0

00000588 <.Loc.18>:
                    task_manager(stop, standard_speed, standard_acceleration);
                    display_end();
                    // Reset timer and play song
                    gp_timer(-1);
                    while(play_song());
                    current_sub_state = running;
     588:	66 24       	eor	r6, r6
     58a:	63 94       	inc	r6
     58c:	71 2c       	mov	r7, r1

0000058e <.Loc.19>:
                    if (UCSR1A & (1 << RXC1)) {
     58e:	0f 2e       	mov	r0, r31
     590:	f8 ec       	ldi	r31, 0xC8	; 200
     592:	af 2e       	mov	r10, r31
     594:	b1 2c       	mov	r11, r1
     596:	f0 2d       	mov	r31, r0

00000598 <.Loc.20>:
                            current_sub_state = entry;
     598:	41 2c       	mov	r4, r1
     59a:	51 2c       	mov	r5, r1

0000059c <.Loc.21>:
                current_state = forward;
     59c:	21 2c       	mov	r2, r1
     59e:	1c c0       	rjmp	.+56     	; 0x5d8 <.L3>

000005a0 <.L35>:
                            current_sub_state = entry;
     5a0:	1b 82       	std	Y+3, r1	; 0x03
     5a2:	1a 82       	std	Y+2, r1	; 0x02

000005a4 <.Loc.23>:
                            current_state = reverse;
     5a4:	05 e0       	ldi	r16, 0x05	; 5
     5a6:	10 e0       	ldi	r17, 0x00	; 0
     5a8:	17 c0       	rjmp	.+46     	; 0x5d8 <.L3>

000005aa <.L11>:
            if(heavy_limit_switch_26()){
     5aa:	0e 94 3f 01 	call	0x27e	; 0x27e <heavy_limit_switch_26>

000005ae <.LVL4>:
     5ae:	88 23       	and	r24, r24
     5b0:	19 f0       	breq	.+6      	; 0x5b8 <.L12>

000005b2 <.Loc.27>:
                display_dist();
     5b2:	0e 94 be 07 	call	0xf7c	; 0xf7c <display_dist>

000005b6 <.LVL5>:
     5b6:	10 c0       	rjmp	.+32     	; 0x5d8 <.L3>

000005b8 <.L12>:
            else if(light_limit_switch_25()){
     5b8:	0e 94 38 01 	call	0x270	; 0x270 <light_limit_switch_25>

000005bc <.LVL6>:
     5bc:	88 23       	and	r24, r24
     5be:	19 f0       	breq	.+6      	; 0x5c6 <.L14>

000005c0 <.Loc.31>:
                display_end();
     5c0:	0e 94 37 08 	call	0x106e	; 0x106e <display_end>

000005c4 <.LVL7>:
     5c4:	09 c0       	rjmp	.+18     	; 0x5d8 <.L3>

000005c6 <.L14>:
                display_go();
     5c6:	0e 94 22 08 	call	0x1044	; 0x1044 <display_go>

000005ca <.LVL8>:
     5ca:	06 c0       	rjmp	.+12     	; 0x5d8 <.L3>

000005cc <.L10>:
            display_cfg();
     5cc:	0e 94 41 07 	call	0xe82	; 0xe82 <display_cfg>

000005d0 <.LVL10>:
            if(starting_button()){
     5d0:	0e 94 45 01 	call	0x28a	; 0x28a <starting_button>

000005d4 <.LVL11>:
     5d4:	81 11       	cpse	r24, r1
     5d6:	0a c0       	rjmp	.+20     	; 0x5ec <.L15>

000005d8 <.L3>:
        switch(current_state){
     5d8:	07 30       	cpi	r16, 0x07	; 7
     5da:	11 05       	cpc	r17, r1
     5dc:	e8 f7       	brcc	.-6      	; 0x5d8 <.L3>
     5de:	f8 01       	movw	r30, r16
     5e0:	88 27       	eor	r24, r24
     5e2:	ee 50       	subi	r30, 0x0E	; 14
     5e4:	f7 4f       	sbci	r31, 0xF7	; 247
     5e6:	8f 4f       	sbci	r24, 0xFF	; 255
     5e8:	0c 94 cb 08 	jmp	0x1196	; 0x1196 <__tablejump2__>

000005ec <.L15>:
                while(!gp_timer(TEXT_DISPLAY_TIME)){
     5ec:	85 e0       	ldi	r24, 0x05	; 5
     5ee:	90 e0       	ldi	r25, 0x00	; 0
     5f0:	0e 94 78 02 	call	0x4f0	; 0x4f0 <gp_timer>

000005f4 <.LVL14>:
     5f4:	81 11       	cpse	r24, r1
     5f6:	03 c0       	rjmp	.+6      	; 0x5fe <.L40>

000005f8 <.Loc.42>:
                    display_go();
     5f8:	0e 94 22 08 	call	0x1044	; 0x1044 <display_go>

000005fc <.LVL15>:
     5fc:	f7 cf       	rjmp	.-18     	; 0x5ec <.L15>

000005fe <.L40>:
                current_state = forward;
     5fe:	02 e0       	ldi	r16, 0x02	; 2
     600:	12 2d       	mov	r17, r2
     602:	ea cf       	rjmp	.-44     	; 0x5d8 <.L3>

00000604 <.L9>:
            switch(current_sub_state){
     604:	8a 81       	ldd	r24, Y+2	; 0x02
     606:	9b 81       	ldd	r25, Y+3	; 0x03
     608:	81 30       	cpi	r24, 0x01	; 1
     60a:	91 05       	cpc	r25, r1
     60c:	91 f0       	breq	.+36     	; 0x632 <.L17>
     60e:	82 30       	cpi	r24, 0x02	; 2
     610:	91 05       	cpc	r25, r1
     612:	51 f1       	breq	.+84     	; 0x668 <.L18>
     614:	89 2b       	or	r24, r25
     616:	01 f7       	brne	.-64     	; 0x5d8 <.L3>

00000618 <.Loc.45>:
                    gp_timer(-1);
     618:	8f ef       	ldi	r24, 0xFF	; 255
     61a:	9f ef       	ldi	r25, 0xFF	; 255
     61c:	0e 94 78 02 	call	0x4f0	; 0x4f0 <gp_timer>

00000620 <.LVL17>:
                    task_manager(forward_fast, standard_speed, standard_acceleration);
     620:	4f ef       	ldi	r20, 0xFF	; 255
     622:	6f ef       	ldi	r22, 0xFF	; 255
     624:	86 2d       	mov	r24, r6
     626:	97 2d       	mov	r25, r7
     628:	0e 94 16 02 	call	0x42c	; 0x42c <task_manager>

0000062c <.LVL18>:
                    current_sub_state = running;
     62c:	6a 82       	std	Y+2, r6	; 0x02
     62e:	7b 82       	std	Y+3, r7	; 0x03

00000630 <.Loc.50>:
                    break;
     630:	d3 cf       	rjmp	.-90     	; 0x5d8 <.L3>

00000632 <.L17>:
                    display_metal_and_non_metal(heavy_packages, light_packages);
     632:	b7 01       	movw	r22, r14
     634:	c6 01       	movw	r24, r12
     636:	0e 94 af 06 	call	0xd5e	; 0xd5e <display_metal_and_non_metal>

0000063a <.LVL20>:
                    if(gp_timer(forward_timer)){
     63a:	c4 01       	movw	r24, r8
     63c:	0e 94 78 02 	call	0x4f0	; 0x4f0 <gp_timer>

00000640 <.LVL21>:
     640:	81 11       	cpse	r24, r1
     642:	09 c0       	rjmp	.+18     	; 0x656 <.L41>

00000644 <.L19>:
                    if(light_limit_switch_25()){
     644:	0e 94 38 01 	call	0x270	; 0x270 <light_limit_switch_25>

00000648 <.LVL23>:
     648:	88 23       	and	r24, r24
     64a:	31 f2       	breq	.-116    	; 0x5d8 <.L3>

0000064c <.Loc.58>:
                        current_sub_state = entry;
     64c:	4a 82       	std	Y+2, r4	; 0x02

0000064e <.Loc.59>:
     64e:	5b 82       	std	Y+3, r5	; 0x03

00000650 <.Loc.60>:
                        current_state = weight_detection;
     650:	03 e0       	ldi	r16, 0x03	; 3
     652:	10 e0       	ldi	r17, 0x00	; 0

00000654 <.Loc.61>:
     654:	c1 cf       	rjmp	.-126    	; 0x5d8 <.L3>

00000656 <.L41>:
                        task_manager(forward_fast, 0x20, standard_acceleration);
     656:	4f ef       	ldi	r20, 0xFF	; 255
     658:	60 e2       	ldi	r22, 0x20	; 32
     65a:	86 2d       	mov	r24, r6
     65c:	97 2d       	mov	r25, r7
     65e:	0e 94 16 02 	call	0x42c	; 0x42c <task_manager>

00000662 <.LVL27>:
                        current_sub_state = exit;
     662:	1b 83       	std	Y+3, r17	; 0x03
     664:	0a 83       	std	Y+2, r16	; 0x02
     666:	ee cf       	rjmp	.-36     	; 0x644 <.L19>

00000668 <.L18>:
                    display_metal_and_non_metal(heavy_packages, light_packages);
     668:	b7 01       	movw	r22, r14
     66a:	c6 01       	movw	r24, r12
     66c:	0e 94 af 06 	call	0xd5e	; 0xd5e <display_metal_and_non_metal>

00000670 <.LVL29>:
                    if(light_limit_switch_25()){
     670:	0e 94 38 01 	call	0x270	; 0x270 <light_limit_switch_25>

00000674 <.LVL30>:
     674:	0a 81       	ldd	r16, Y+2	; 0x02
     676:	1b 81       	ldd	r17, Y+3	; 0x03

00000678 <.Loc.69>:
     678:	88 23       	and	r24, r24
     67a:	09 f4       	brne	.+2      	; 0x67e <.Loc.70>

0000067c <L0^A>:
     67c:	ad cf       	rjmp	.-166    	; 0x5d8 <.L3>

0000067e <.Loc.70>:
                        current_sub_state = entry;
     67e:	4a 82       	std	Y+2, r4	; 0x02

00000680 <.Loc.71>:
     680:	5b 82       	std	Y+3, r5	; 0x03

00000682 <.Loc.72>:
                        current_state = weight_detection;
     682:	03 e0       	ldi	r16, 0x03	; 3
     684:	10 e0       	ldi	r17, 0x00	; 0
     686:	a8 cf       	rjmp	.-176    	; 0x5d8 <.L3>

00000688 <.L6>:
            switch(current_sub_state){
     688:	ea 81       	ldd	r30, Y+2	; 0x02
     68a:	fb 81       	ldd	r31, Y+3	; 0x03
     68c:	31 97       	sbiw	r30, 0x01	; 1
     68e:	49 f0       	breq	.+18     	; 0x6a2 <.L20>

00000690 <.Loc.74>:
                    task_manager(backward_fast, standard_speed, standard_acceleration);
     690:	4f ef       	ldi	r20, 0xFF	; 255
     692:	6f ef       	ldi	r22, 0xFF	; 255
     694:	83 e0       	ldi	r24, 0x03	; 3
     696:	90 e0       	ldi	r25, 0x00	; 0
     698:	0e 94 16 02 	call	0x42c	; 0x42c <task_manager>

0000069c <.LVL34>:
                    current_sub_state = running;
     69c:	6a 82       	std	Y+2, r6	; 0x02
     69e:	7b 82       	std	Y+3, r7	; 0x03

000006a0 <.Loc.78>:
                    break;
     6a0:	9b cf       	rjmp	.-202    	; 0x5d8 <.L3>

000006a2 <.L20>:
                    display_metal_and_non_metal(heavy_packages, light_packages);
     6a2:	b7 01       	movw	r22, r14
     6a4:	c6 01       	movw	r24, r12
     6a6:	0e 94 af 06 	call	0xd5e	; 0xd5e <display_metal_and_non_metal>

000006aa <.LVL36>:
                    if(USART1_receiveByte()==0x01){
     6aa:	0e 94 0e 02 	call	0x41c	; 0x41c <USART1_receiveByte>

000006ae <.LVL37>:
     6ae:	81 30       	cpi	r24, 0x01	; 1
     6b0:	09 f0       	breq	.+2      	; 0x6b4 <.Loc.83>

000006b2 <L0^A>:
     6b2:	92 cf       	rjmp	.-220    	; 0x5d8 <.L3>

000006b4 <.Loc.83>:
                        current_sub_state = entry;
     6b4:	4a 82       	std	Y+2, r4	; 0x02

000006b6 <.Loc.84>:
     6b6:	5b 82       	std	Y+3, r5	; 0x03

000006b8 <.Loc.85>:
                        current_state = end;
     6b8:	06 e0       	ldi	r16, 0x06	; 6

000006ba <.Loc.86>:
     6ba:	10 e0       	ldi	r17, 0x00	; 0
     6bc:	8d cf       	rjmp	.-230    	; 0x5d8 <.L3>

000006be <.L8>:
            switch(current_sub_state){
     6be:	8a 81       	ldd	r24, Y+2	; 0x02
     6c0:	9b 81       	ldd	r25, Y+3	; 0x03
     6c2:	81 30       	cpi	r24, 0x01	; 1
     6c4:	91 05       	cpc	r25, r1
     6c6:	79 f0       	breq	.+30     	; 0x6e6 <.L21>
     6c8:	82 30       	cpi	r24, 0x02	; 2
     6ca:	91 05       	cpc	r25, r1
     6cc:	81 f1       	breq	.+96     	; 0x72e <.L22>
     6ce:	89 2b       	or	r24, r25
     6d0:	09 f0       	breq	.+2      	; 0x6d4 <.Loc.88>

000006d2 <L0^A>:
     6d2:	82 cf       	rjmp	.-252    	; 0x5d8 <.L3>

000006d4 <.Loc.88>:
                    task_manager(forward_fast, 0x10, standard_acceleration);
     6d4:	4f ef       	ldi	r20, 0xFF	; 255
     6d6:	60 e1       	ldi	r22, 0x10	; 16
     6d8:	86 2d       	mov	r24, r6
     6da:	97 2d       	mov	r25, r7
     6dc:	0e 94 16 02 	call	0x42c	; 0x42c <task_manager>

000006e0 <.LVL41>:
                    current_sub_state = running;
     6e0:	6a 82       	std	Y+2, r6	; 0x02
     6e2:	7b 82       	std	Y+3, r7	; 0x03

000006e4 <.Loc.92>:
                    break;
     6e4:	79 cf       	rjmp	.-270    	; 0x5d8 <.L3>

000006e6 <.L21>:
                    display_metal_and_non_metal(heavy_packages, light_packages);
     6e6:	b7 01       	movw	r22, r14
     6e8:	c6 01       	movw	r24, r12
     6ea:	0e 94 af 06 	call	0xd5e	; 0xd5e <display_metal_and_non_metal>

000006ee <.LVL43>:
                    if(heavy_limit_switch_26()){
     6ee:	0e 94 3f 01 	call	0x27e	; 0x27e <heavy_limit_switch_26>

000006f2 <.LVL44>:
     6f2:	81 11       	cpse	r24, r1
     6f4:	a1 c0       	rjmp	.+322    	; 0x838 <.L23>

000006f6 <.Loc.97>:
                    if(gp_timer(7)){
     6f6:	87 e0       	ldi	r24, 0x07	; 7
     6f8:	90 e0       	ldi	r25, 0x00	; 0
     6fa:	0e 94 78 02 	call	0x4f0	; 0x4f0 <gp_timer>

000006fe <.LVL45>:
     6fe:	88 23       	and	r24, r24
     700:	09 f4       	brne	.+2      	; 0x704 <.Loc.100>

00000702 <L0^A>:
     702:	6a cf       	rjmp	.-300    	; 0x5d8 <.L3>

00000704 <.Loc.100>:
                        gp_timer(-1);
     704:	8f ef       	ldi	r24, 0xFF	; 255
     706:	9f ef       	ldi	r25, 0xFF	; 255
     708:	0e 94 78 02 	call	0x4f0	; 0x4f0 <gp_timer>

0000070c <.LVL46>:
                        task_manager(stop, standard_speed, standard_acceleration);
     70c:	4f ef       	ldi	r20, 0xFF	; 255
     70e:	6f ef       	ldi	r22, 0xFF	; 255
     710:	84 e0       	ldi	r24, 0x04	; 4
     712:	90 e0       	ldi	r25, 0x00	; 0
     714:	0e 94 16 02 	call	0x42c	; 0x42c <task_manager>

00000718 <.LVL47>:
                        if(heavy_triggered){
     718:	99 81       	ldd	r25, Y+1	; 0x01
     71a:	91 11       	cpse	r25, r1
     71c:	84 c0       	rjmp	.+264    	; 0x826 <.L29>

0000071e <.Loc.104>:
                            light_packages++;
     71e:	9f ef       	ldi	r25, 0xFF	; 255
     720:	e9 1a       	sub	r14, r25
     722:	f9 0a       	sbc	r15, r25

00000724 <.Loc.106>:
                        current_sub_state = exit;
     724:	e2 e0       	ldi	r30, 0x02	; 2
     726:	f0 e0       	ldi	r31, 0x00	; 0
     728:	fb 83       	std	Y+3, r31	; 0x03
     72a:	ea 83       	std	Y+2, r30	; 0x02

0000072c <.Loc.107>:
     72c:	55 cf       	rjmp	.-342    	; 0x5d8 <.L3>

0000072e <.L22>:
                    display_metal_and_non_metal(heavy_packages, light_packages);
     72e:	b7 01       	movw	r22, r14
     730:	c6 01       	movw	r24, r12
     732:	0e 94 af 06 	call	0xd5e	; 0xd5e <display_metal_and_non_metal>

00000736 <.LVL51>:
                    if(gp_timer(10)){
     736:	8a e0       	ldi	r24, 0x0A	; 10
     738:	90 e0       	ldi	r25, 0x00	; 0
     73a:	0e 94 78 02 	call	0x4f0	; 0x4f0 <gp_timer>

0000073e <.LVL52>:
     73e:	88 23       	and	r24, r24
     740:	09 f4       	brne	.+2      	; 0x744 <.Loc.112>

00000742 <L0^A>:
     742:	4a cf       	rjmp	.-364    	; 0x5d8 <.L3>

00000744 <.Loc.112>:
                        if(first_package_detected){
     744:	31 10       	cpse	r3, r1
     746:	07 c0       	rjmp	.+14     	; 0x756 <.L42>

00000748 <.Loc.114>:
                            first_package_detected = 1;
     748:	33 24       	eor	r3, r3
     74a:	33 94       	inc	r3

0000074c <.Loc.115>:
                            current_sub_state = entry;
     74c:	4a 82       	std	Y+2, r4	; 0x02

0000074e <.Loc.116>:
     74e:	5b 82       	std	Y+3, r5	; 0x03

00000750 <.Loc.117>:
                            current_state = s_turn;
     750:	04 e0       	ldi	r16, 0x04	; 4
     752:	10 e0       	ldi	r17, 0x00	; 0

00000754 <.Loc.118>:
     754:	41 cf       	rjmp	.-382    	; 0x5d8 <.L3>

00000756 <.L42>:
                            while (UCSR1A & (1 << RXC1)) {
     756:	80 91 c8 00 	lds	r24, 0x00C8	; 0x8000c8 <__TEXT_REGION_LENGTH__+0x7000c8>
     75a:	88 23       	and	r24, r24
     75c:	0c f0       	brlt	.+2      	; 0x760 <.L25>

0000075e <L0^A>:
     75e:	20 cf       	rjmp	.-448    	; 0x5a0 <.L35>

00000760 <.L25>:
                                USART1_receiveByte();
     760:	0e 94 0e 02 	call	0x41c	; 0x41c <USART1_receiveByte>

00000764 <.LVL57>:
                            while (UCSR1A & (1 << RXC1)) {
     764:	e8 ec       	ldi	r30, 0xC8	; 200
     766:	f0 e0       	ldi	r31, 0x00	; 0
     768:	80 81       	ld	r24, Z
     76a:	88 23       	and	r24, r24
     76c:	cc f3       	brlt	.-14     	; 0x760 <.L25>

0000076e <.Loc.122>:
                            current_sub_state = entry;
     76e:	1b 82       	std	Y+3, r1	; 0x03
     770:	1a 82       	std	Y+2, r1	; 0x02

00000772 <.Loc.123>:
                            current_state = reverse;
     772:	05 e0       	ldi	r16, 0x05	; 5
     774:	10 e0       	ldi	r17, 0x00	; 0
     776:	30 cf       	rjmp	.-416    	; 0x5d8 <.L3>

00000778 <.L7>:
            switch(current_sub_state){
     778:	8a 81       	ldd	r24, Y+2	; 0x02
     77a:	9b 81       	ldd	r25, Y+3	; 0x03
     77c:	01 97       	sbiw	r24, 0x01	; 1
     77e:	49 f0       	breq	.+18     	; 0x792 <.L26>

00000780 <.Loc.125>:
                    task_manager(turn_left_H, standard_speed, standard_acceleration);
     780:	4f ef       	ldi	r20, 0xFF	; 255
     782:	6f ef       	ldi	r22, 0xFF	; 255
     784:	87 e0       	ldi	r24, 0x07	; 7
     786:	90 e0       	ldi	r25, 0x00	; 0
     788:	0e 94 16 02 	call	0x42c	; 0x42c <task_manager>

0000078c <.LVL59>:
                    current_sub_state = running;
     78c:	6a 82       	std	Y+2, r6	; 0x02
     78e:	7b 82       	std	Y+3, r7	; 0x03

00000790 <.Loc.129>:
                    break;
     790:	23 cf       	rjmp	.-442    	; 0x5d8 <.L3>

00000792 <.L26>:
                    display_turn();
     792:	0e 94 a9 07 	call	0xf52	; 0xf52 <display_turn>

00000796 <.LVL61>:
                    if (UCSR1A & (1 << RXC1)) {
     796:	f5 01       	movw	r30, r10
     798:	80 81       	ld	r24, Z

0000079a <.Loc.133>:
     79a:	88 23       	and	r24, r24
     79c:	0c f0       	brlt	.+2      	; 0x7a0 <.Loc.134>

0000079e <L0^A>:
     79e:	1c cf       	rjmp	.-456    	; 0x5d8 <.L3>

000007a0 <.Loc.134>:
                        if(USART1_receiveByte()==0x01){
     7a0:	0e 94 0e 02 	call	0x41c	; 0x41c <USART1_receiveByte>

000007a4 <.LVL62>:
     7a4:	81 30       	cpi	r24, 0x01	; 1
     7a6:	09 f0       	breq	.+2      	; 0x7aa <.Loc.137>

000007a8 <L0^A>:
     7a8:	17 cf       	rjmp	.-466    	; 0x5d8 <.L3>

000007aa <.Loc.137>:
                            task_manager(stop, standard_speed, standard_acceleration);
     7aa:	4f ef       	ldi	r20, 0xFF	; 255
     7ac:	6f ef       	ldi	r22, 0xFF	; 255
     7ae:	84 e0       	ldi	r24, 0x04	; 4
     7b0:	90 e0       	ldi	r25, 0x00	; 0
     7b2:	0e 94 16 02 	call	0x42c	; 0x42c <task_manager>

000007b6 <.LVL63>:
                            gp_timer(-1);
     7b6:	8f ef       	ldi	r24, 0xFF	; 255
     7b8:	9f ef       	ldi	r25, 0xFF	; 255
     7ba:	0e 94 78 02 	call	0x4f0	; 0x4f0 <gp_timer>

000007be <.LVL64>:
                            forward_timer = SECOND_FORWARD_TIME;
     7be:	0f 2e       	mov	r0, r31
     7c0:	f6 e4       	ldi	r31, 0x46	; 70
     7c2:	8f 2e       	mov	r8, r31
     7c4:	91 2c       	mov	r9, r1
     7c6:	f0 2d       	mov	r31, r0

000007c8 <.Loc.143>:
                            current_sub_state = entry;
     7c8:	1b 82       	std	Y+3, r1	; 0x03
     7ca:	1a 82       	std	Y+2, r1	; 0x02

000007cc <.Loc.144>:
                            current_state = forward;
     7cc:	02 e0       	ldi	r16, 0x02	; 2
     7ce:	10 e0       	ldi	r17, 0x00	; 0
     7d0:	03 cf       	rjmp	.-506    	; 0x5d8 <.L3>

000007d2 <.L4>:
            switch(current_sub_state){
     7d2:	8a 81       	ldd	r24, Y+2	; 0x02
     7d4:	9b 81       	ldd	r25, Y+3	; 0x03
     7d6:	01 97       	sbiw	r24, 0x01	; 1
     7d8:	49 f4       	brne	.+18     	; 0x7ec <.L43>

000007da <.Loc.146>:
                    break;
                case running:
                    display_end();
     7da:	0e 94 37 08 	call	0x106e	; 0x106e <display_end>

000007de <.LVL66>:
                    task_manager(stop, standard_speed, standard_acceleration);
     7de:	4f ef       	ldi	r20, 0xFF	; 255
     7e0:	6f ef       	ldi	r22, 0xFF	; 255
     7e2:	84 e0       	ldi	r24, 0x04	; 4
     7e4:	90 e0       	ldi	r25, 0x00	; 0
     7e6:	0e 94 16 02 	call	0x42c	; 0x42c <task_manager>

000007ea <.LVL67>:
                    break;
     7ea:	f6 ce       	rjmp	.-532    	; 0x5d8 <.L3>

000007ec <.L43>:
                    task_manager(stop, standard_speed, standard_acceleration);
     7ec:	4f ef       	ldi	r20, 0xFF	; 255
     7ee:	6f ef       	ldi	r22, 0xFF	; 255
     7f0:	84 e0       	ldi	r24, 0x04	; 4
     7f2:	90 e0       	ldi	r25, 0x00	; 0
     7f4:	0e 94 16 02 	call	0x42c	; 0x42c <task_manager>

000007f8 <.LVL68>:
                    display_end();
     7f8:	0e 94 37 08 	call	0x106e	; 0x106e <display_end>

000007fc <.LVL69>:
                    gp_timer(-1);
     7fc:	8f ef       	ldi	r24, 0xFF	; 255
     7fe:	9f ef       	ldi	r25, 0xFF	; 255
     800:	0e 94 78 02 	call	0x4f0	; 0x4f0 <gp_timer>

00000804 <.L28>:
                    while(play_song());
     804:	0e 94 5c 05 	call	0xab8	; 0xab8 <play_song>

00000808 <.LVL71>:
     808:	81 11       	cpse	r24, r1
     80a:	fc cf       	rjmp	.-8      	; 0x804 <.L28>

0000080c <.Loc.154>:
                    current_sub_state = running;
     80c:	6a 82       	std	Y+2, r6	; 0x02

0000080e <.Loc.155>:
     80e:	7b 82       	std	Y+3, r7	; 0x03
     810:	e3 ce       	rjmp	.-570    	; 0x5d8 <.L3>

00000812 <.L30>:
                        gp_timer(-1);
     812:	8f ef       	ldi	r24, 0xFF	; 255
     814:	9f ef       	ldi	r25, 0xFF	; 255
     816:	0e 94 78 02 	call	0x4f0	; 0x4f0 <gp_timer>

0000081a <.LVL74>:
                        task_manager(stop, standard_speed, standard_acceleration);
     81a:	4f ef       	ldi	r20, 0xFF	; 255
     81c:	6f ef       	ldi	r22, 0xFF	; 255
     81e:	84 e0       	ldi	r24, 0x04	; 4
     820:	90 e0       	ldi	r25, 0x00	; 0
     822:	0e 94 16 02 	call	0x42c	; 0x42c <task_manager>

00000826 <.L29>:
                            heavy_packages++;
     826:	ef ef       	ldi	r30, 0xFF	; 255
     828:	ce 1a       	sub	r12, r30
     82a:	de 0a       	sbc	r13, r30

0000082c <.Loc.161>:
                            heavy_triggered = 0;
     82c:	19 82       	std	Y+1, r1	; 0x01

0000082e <.Loc.163>:
                        current_sub_state = exit;
     82e:	82 e0       	ldi	r24, 0x02	; 2
     830:	90 e0       	ldi	r25, 0x00	; 0
     832:	9b 83       	std	Y+3, r25	; 0x03
     834:	8a 83       	std	Y+2, r24	; 0x02

00000836 <.Loc.164>:
     836:	d0 ce       	rjmp	.-608    	; 0x5d8 <.L3>

00000838 <.L23>:
                    if(gp_timer(7)){
     838:	87 e0       	ldi	r24, 0x07	; 7
     83a:	90 e0       	ldi	r25, 0x00	; 0
     83c:	0e 94 78 02 	call	0x4f0	; 0x4f0 <gp_timer>

00000840 <.LVL79>:
     840:	81 11       	cpse	r24, r1
     842:	e7 cf       	rjmp	.-50     	; 0x812 <.L30>

00000844 <.Loc.169>:
                        heavy_triggered = 1;
     844:	91 e0       	ldi	r25, 0x01	; 1
     846:	99 83       	std	Y+1, r25	; 0x01

00000848 <.Loc.170>:
     848:	c7 ce       	rjmp	.-626    	; 0x5d8 <.L3>

0000084a <music_init>:
#include "intermediate_control.h"

void music_init(void){
    // Start as high input to prevent noise from voltage fluctuations
    // Set to output in separate function
    DDR_BUZZ &= ~(1<<PIN_BUZZ);
     84a:	6d 98       	cbi	0x0d, 5	; 13

0000084c <.Loc.3>:
    PORT_BUZZ |= (1<<PIN_BUZZ);
     84c:	75 9a       	sbi	0x0e, 5	; 14

0000084e <.Loc.5>:
    // OC3C Mode 14, Fast PWM, prescaler 1
    // COM bits are set in separate function
    TCCR3A = (1<<WGM31);
     84e:	82 e0       	ldi	r24, 0x02	; 2
     850:	80 93 90 00 	sts	0x0090, r24	; 0x800090 <__TEXT_REGION_LENGTH__+0x700090>

00000854 <.Loc.7>:
    TCCR3B = (1<<CS30) | (1<<WGM33) | (1<<WGM32);
     854:	89 e1       	ldi	r24, 0x19	; 25
     856:	80 93 91 00 	sts	0x0091, r24	; 0x800091 <__TEXT_REGION_LENGTH__+0x700091>

0000085a <.Loc.10>:
    OCR3C = 65535*0.02;
     85a:	8e e1       	ldi	r24, 0x1E	; 30
     85c:	95 e0       	ldi	r25, 0x05	; 5
     85e:	90 93 9d 00 	sts	0x009D, r25	; 0x80009d <__TEXT_REGION_LENGTH__+0x70009d>
     862:	80 93 9c 00 	sts	0x009C, r24	; 0x80009c <__TEXT_REGION_LENGTH__+0x70009c>

00000866 <.Loc.11>:
}
     866:	08 95       	ret

00000868 <buzzer_enable>:
// Set buzzer to output and enable COM bits for PWM
void buzzer_enable(char input){
    if(input){
     868:	88 23       	and	r24, r24
     86a:	39 f0       	breq	.+14     	; 0x87a <.L3>

0000086c <.Loc.15>:
        DDR_BUZZ |= (1<<PIN_BUZZ);
     86c:	6d 9a       	sbi	0x0d, 5	; 13

0000086e <.Loc.17>:
        TCCR3A |= (1<<COM3C1) | (1<<COM3C0);
     86e:	e0 e9       	ldi	r30, 0x90	; 144
     870:	f0 e0       	ldi	r31, 0x00	; 0
     872:	80 81       	ld	r24, Z

00000874 <.Loc.18>:
     874:	8c 60       	ori	r24, 0x0C	; 12
     876:	80 83       	st	Z, r24
     878:	08 95       	ret

0000087a <.L3>:
    }
    else{
        DDR_BUZZ &= ~(1<<PIN_BUZZ);
     87a:	6d 98       	cbi	0x0d, 5	; 13

0000087c <.Loc.21>:
        TCCR3A &= ~((1<<COM3C1) | (1<<COM3C0));
     87c:	e0 e9       	ldi	r30, 0x90	; 144
     87e:	f0 e0       	ldi	r31, 0x00	; 0
     880:	80 81       	ld	r24, Z

00000882 <.Loc.23>:
     882:	83 7f       	andi	r24, 0xF3	; 243
     884:	80 83       	st	Z, r24

00000886 <.Loc.24>:
    }
}
     886:	08 95       	ret

00000888 <hz_to_icr_value>:

int hz_to_icr_value(int hz){
    return (16000000/hz);
     888:	9c 01       	movw	r18, r24
     88a:	99 0f       	add	r25, r25
     88c:	44 0b       	sbc	r20, r20
     88e:	55 0b       	sbc	r21, r21
     890:	60 e0       	ldi	r22, 0x00	; 0
     892:	74 e2       	ldi	r23, 0x24	; 36
     894:	84 ef       	ldi	r24, 0xF4	; 244
     896:	90 e0       	ldi	r25, 0x00	; 0
     898:	0e 94 ac 08 	call	0x1158	; 0x1158 <__divmodsi4>

0000089c <.Loc.28>:
}
     89c:	c9 01       	movw	r24, r18

0000089e <.Loc.29>:
     89e:	08 95       	ret

000008a0 <play_note>:

void play_note(int note, int beats, int state, int *note_num){
     8a0:	ef 92       	push	r14
     8a2:	ff 92       	push	r15
     8a4:	0f 93       	push	r16
     8a6:	1f 93       	push	r17
     8a8:	cf 93       	push	r28
     8aa:	df 93       	push	r29
     8ac:	c8 2f       	mov	r28, r24
     8ae:	d9 2f       	mov	r29, r25
     8b0:	cb 01       	movw	r24, r22

000008b2 <.Loc.32>:
     8b2:	e4 2e       	mov	r14, r20
     8b4:	f5 2e       	mov	r15, r21
     8b6:	02 2f       	mov	r16, r18
     8b8:	13 2f       	mov	r17, r19

000008ba <.Loc.33>:
    // Use GP timer to time beats
    if(!gp_timer(beats)){
     8ba:	0e 94 78 02 	call	0x4f0	; 0x4f0 <gp_timer>

000008be <.LVL8>:
     8be:	81 11       	cpse	r24, r1
     8c0:	22 c0       	rjmp	.+68     	; 0x906 <.L7>

000008c2 <.LBB5>:
    return (16000000/hz);
     8c2:	9e 01       	movw	r18, r28
     8c4:	dd 0f       	add	r29, r29
     8c6:	44 0b       	sbc	r20, r20
     8c8:	55 0b       	sbc	r21, r21
     8ca:	60 e0       	ldi	r22, 0x00	; 0
     8cc:	74 e2       	ldi	r23, 0x24	; 36
     8ce:	84 ef       	ldi	r24, 0xF4	; 244
     8d0:	90 e0       	ldi	r25, 0x00	; 0
     8d2:	0e 94 ac 08 	call	0x1158	; 0x1158 <__divmodsi4>

000008d6 <.Loc.43>:
        // Set frequency and volume
        int ICR_value = (hz_to_icr_value(note));
        int OCR_value = 65535*0.01;
        ICR3 =  ICR_value;
     8d6:	30 93 97 00 	sts	0x0097, r19	; 0x800097 <__TEXT_REGION_LENGTH__+0x700097>
     8da:	20 93 96 00 	sts	0x0096, r18	; 0x800096 <__TEXT_REGION_LENGTH__+0x700096>

000008de <.Loc.44>:
        OCR3C = OCR_value*state;
     8de:	2f e8       	ldi	r18, 0x8F	; 143
     8e0:	32 e0       	ldi	r19, 0x02	; 2
     8e2:	e2 9e       	mul	r14, r18
     8e4:	c0 01       	movw	r24, r0
     8e6:	e3 9e       	mul	r14, r19
     8e8:	90 0d       	add	r25, r0
     8ea:	f2 9e       	mul	r15, r18
     8ec:	90 0d       	add	r25, r0
     8ee:	11 24       	eor	r1, r1

000008f0 <.Loc.46>:
     8f0:	90 93 9d 00 	sts	0x009D, r25	; 0x80009d <__TEXT_REGION_LENGTH__+0x70009d>
     8f4:	80 93 9c 00 	sts	0x009C, r24	; 0x80009c <__TEXT_REGION_LENGTH__+0x70009c>

000008f8 <.L6>:
    }
    // Next note
    else{
        (*note_num)++;
    }
}
     8f8:	df 91       	pop	r29
     8fa:	cf 91       	pop	r28
     8fc:	1f 91       	pop	r17
     8fe:	0f 91       	pop	r16
     900:	ff 90       	pop	r15
     902:	ef 90       	pop	r14
     904:	08 95       	ret

00000906 <.L7>:
        (*note_num)++;
     906:	f8 01       	movw	r30, r16
     908:	80 81       	ld	r24, Z
     90a:	91 81       	ldd	r25, Z+1	; 0x01
     90c:	01 96       	adiw	r24, 0x01	; 1
     90e:	91 83       	std	Z+1, r25	; 0x01
     910:	80 83       	st	Z, r24

00000912 <.Loc.51>:
}
     912:	f2 cf       	rjmp	.-28     	; 0x8f8 <.L6>

00000914 <play_beep>:
// Play multiple notes with switch
char play_beep(){
    static int note_number = 0;
    if(!note_number){
     914:	80 91 6a 02 	lds	r24, 0x026A	; 0x80026a <note_number.2>
     918:	90 91 6b 02 	lds	r25, 0x026B	; 0x80026b <note_number.2+0x1>
     91c:	89 2b       	or	r24, r25
     91e:	d9 f0       	breq	.+54     	; 0x956 <.L19>

00000920 <.L10>:
        buzzer_enable(1);
    }
    switch(note_number){
     920:	80 91 6a 02 	lds	r24, 0x026A	; 0x80026a <note_number.2>
     924:	90 91 6b 02 	lds	r25, 0x026B	; 0x80026b <note_number.2+0x1>
     928:	83 30       	cpi	r24, 0x03	; 3
     92a:	91 05       	cpc	r25, r1
     92c:	09 f4       	brne	.+2      	; 0x930 <L0^A+0x2>

0000092e <L0^A>:
     92e:	43 c0       	rjmp	.+134    	; 0x9b6 <.L11>
     930:	34 f5       	brge	.+76     	; 0x97e <.L12>
     932:	81 30       	cpi	r24, 0x01	; 1
     934:	91 05       	cpc	r25, r1
     936:	99 f1       	breq	.+102    	; 0x99e <.L13>
     938:	82 30       	cpi	r24, 0x02	; 2
     93a:	91 05       	cpc	r25, r1
     93c:	81 f4       	brne	.+32     	; 0x95e <.L20>

0000093e <.Loc.57>:
        break;
    case 1:
        play_note(NOTE_3, 1, 0, &note_number);
        break;
    case 2:
        play_note(NOTE_1, 1, 10, &note_number);
     93e:	2a e6       	ldi	r18, 0x6A	; 106
     940:	32 e0       	ldi	r19, 0x02	; 2
     942:	4a e0       	ldi	r20, 0x0A	; 10
     944:	50 e0       	ldi	r21, 0x00	; 0
     946:	61 e0       	ldi	r22, 0x01	; 1
     948:	70 e0       	ldi	r23, 0x00	; 0
     94a:	8a e6       	ldi	r24, 0x6A	; 106
     94c:	91 e0       	ldi	r25, 0x01	; 1
     94e:	0e 94 50 04 	call	0x8a0	; 0x8a0 <play_note>

00000952 <.LVL11>:
        buzzer_enable(0);
        note_number = 0;
        return 0;
        break;
    }
    return 1;
     952:	81 e0       	ldi	r24, 0x01	; 1

00000954 <.Loc.60>:
        break;
     954:	08 95       	ret

00000956 <.L19>:
        buzzer_enable(1);
     956:	81 e0       	ldi	r24, 0x01	; 1
     958:	0e 94 34 04 	call	0x868	; 0x868 <buzzer_enable>

0000095c <.LVL12>:
     95c:	e1 cf       	rjmp	.-62     	; 0x920 <.L10>

0000095e <.L20>:
    switch(note_number){
     95e:	89 2b       	or	r24, r25
     960:	61 f4       	brne	.+24     	; 0x97a <.L21>

00000962 <.Loc.63>:
        play_note(NOTE_5, 1, 10, &note_number);
     962:	2a e6       	ldi	r18, 0x6A	; 106
     964:	32 e0       	ldi	r19, 0x02	; 2
     966:	4a e0       	ldi	r20, 0x0A	; 10
     968:	50 e0       	ldi	r21, 0x00	; 0
     96a:	61 e0       	ldi	r22, 0x01	; 1
     96c:	70 e0       	ldi	r23, 0x00	; 0
     96e:	8c ee       	ldi	r24, 0xEC	; 236
     970:	91 e0       	ldi	r25, 0x01	; 1
     972:	0e 94 50 04 	call	0x8a0	; 0x8a0 <play_note>

00000976 <.LVL13>:
    return 1;
     976:	81 e0       	ldi	r24, 0x01	; 1

00000978 <.Loc.66>:
        break;
     978:	08 95       	ret

0000097a <.L21>:
    switch(note_number){
     97a:	81 e0       	ldi	r24, 0x01	; 1
     97c:	08 95       	ret

0000097e <.L12>:
     97e:	84 30       	cpi	r24, 0x04	; 4
     980:	91 05       	cpc	r25, r1
     982:	29 f1       	breq	.+74     	; 0x9ce <.L17>
     984:	05 97       	sbiw	r24, 0x05	; 5
     986:	49 f4       	brne	.+18     	; 0x99a <.L22>

00000988 <.Loc.68>:
        buzzer_enable(0);
     988:	80 e0       	ldi	r24, 0x00	; 0
     98a:	0e 94 34 04 	call	0x868	; 0x868 <buzzer_enable>

0000098e <.LVL14>:
        note_number = 0;
     98e:	10 92 6b 02 	sts	0x026B, r1	; 0x80026b <note_number.2+0x1>
     992:	10 92 6a 02 	sts	0x026A, r1	; 0x80026a <note_number.2>

00000996 <.Loc.71>:
        return 0;
     996:	80 e0       	ldi	r24, 0x00	; 0

00000998 <.Loc.73>:
}
     998:	08 95       	ret

0000099a <.L22>:
    switch(note_number){
     99a:	81 e0       	ldi	r24, 0x01	; 1
     99c:	08 95       	ret

0000099e <.L13>:
        play_note(NOTE_3, 1, 0, &note_number);
     99e:	2a e6       	ldi	r18, 0x6A	; 106
     9a0:	32 e0       	ldi	r19, 0x02	; 2
     9a2:	40 e0       	ldi	r20, 0x00	; 0
     9a4:	50 e0       	ldi	r21, 0x00	; 0
     9a6:	61 e0       	ldi	r22, 0x01	; 1
     9a8:	70 e0       	ldi	r23, 0x00	; 0
     9aa:	8e ea       	ldi	r24, 0xAE	; 174
     9ac:	91 e0       	ldi	r25, 0x01	; 1
     9ae:	0e 94 50 04 	call	0x8a0	; 0x8a0 <play_note>

000009b2 <.LVL15>:
    return 1;
     9b2:	81 e0       	ldi	r24, 0x01	; 1

000009b4 <.Loc.78>:
        break;
     9b4:	08 95       	ret

000009b6 <.L11>:
        play_note(NOTE_8, 1, 10, &note_number);
     9b6:	2a e6       	ldi	r18, 0x6A	; 106
     9b8:	32 e0       	ldi	r19, 0x02	; 2
     9ba:	4a e0       	ldi	r20, 0x0A	; 10
     9bc:	50 e0       	ldi	r21, 0x00	; 0
     9be:	61 e0       	ldi	r22, 0x01	; 1
     9c0:	70 e0       	ldi	r23, 0x00	; 0
     9c2:	8f e6       	ldi	r24, 0x6F	; 111
     9c4:	92 e0       	ldi	r25, 0x02	; 2
     9c6:	0e 94 50 04 	call	0x8a0	; 0x8a0 <play_note>

000009ca <.LVL16>:
    return 1;
     9ca:	81 e0       	ldi	r24, 0x01	; 1

000009cc <.Loc.82>:
        break;
     9cc:	08 95       	ret

000009ce <.L17>:
        play_note(NOTE_8, 1, 0, &note_number);
     9ce:	2a e6       	ldi	r18, 0x6A	; 106
     9d0:	32 e0       	ldi	r19, 0x02	; 2
     9d2:	40 e0       	ldi	r20, 0x00	; 0
     9d4:	50 e0       	ldi	r21, 0x00	; 0
     9d6:	61 e0       	ldi	r22, 0x01	; 1
     9d8:	70 e0       	ldi	r23, 0x00	; 0
     9da:	8f e6       	ldi	r24, 0x6F	; 111
     9dc:	92 e0       	ldi	r25, 0x02	; 2
     9de:	0e 94 50 04 	call	0x8a0	; 0x8a0 <play_note>

000009e2 <.LVL17>:
    return 1;
     9e2:	81 e0       	ldi	r24, 0x01	; 1

000009e4 <.Loc.86>:
        break;
     9e4:	08 95       	ret

000009e6 <play_beep_sad>:
// Slight variation on beep
char play_beep_sad(){
    static int note_number = 0;
    if(!note_number){
     9e6:	80 91 68 02 	lds	r24, 0x0268	; 0x800268 <note_number.1>
     9ea:	90 91 69 02 	lds	r25, 0x0269	; 0x800269 <note_number.1+0x1>
     9ee:	89 2b       	or	r24, r25
     9f0:	d9 f0       	breq	.+54     	; 0xa28 <.L33>

000009f2 <.L24>:
        buzzer_enable(1);
    }
    switch(note_number){
     9f2:	80 91 68 02 	lds	r24, 0x0268	; 0x800268 <note_number.1>
     9f6:	90 91 69 02 	lds	r25, 0x0269	; 0x800269 <note_number.1+0x1>
     9fa:	83 30       	cpi	r24, 0x03	; 3
     9fc:	91 05       	cpc	r25, r1
     9fe:	09 f4       	brne	.+2      	; 0xa02 <L0^A+0x2>

00000a00 <L0^A>:
     a00:	43 c0       	rjmp	.+134    	; 0xa88 <.L25>
     a02:	34 f5       	brge	.+76     	; 0xa50 <.L26>
     a04:	81 30       	cpi	r24, 0x01	; 1
     a06:	91 05       	cpc	r25, r1
     a08:	99 f1       	breq	.+102    	; 0xa70 <.L27>
     a0a:	82 30       	cpi	r24, 0x02	; 2
     a0c:	91 05       	cpc	r25, r1
     a0e:	81 f4       	brne	.+32     	; 0xa30 <.L34>

00000a10 <.Loc.92>:
        break;
    case 1:
        play_note(NOTE_3, 2, 0, &note_number);
        break;
    case 2:
        play_note(NOTE_2, 3, 1, &note_number);
     a10:	28 e6       	ldi	r18, 0x68	; 104
     a12:	32 e0       	ldi	r19, 0x02	; 2
     a14:	41 e0       	ldi	r20, 0x01	; 1
     a16:	50 e0       	ldi	r21, 0x00	; 0
     a18:	63 e0       	ldi	r22, 0x03	; 3
     a1a:	70 e0       	ldi	r23, 0x00	; 0
     a1c:	8a e8       	ldi	r24, 0x8A	; 138
     a1e:	91 e0       	ldi	r25, 0x01	; 1
     a20:	0e 94 50 04 	call	0x8a0	; 0x8a0 <play_note>

00000a24 <.LVL18>:
        buzzer_enable(0);
        note_number = 0;
        return 0;
        break;
    }
    return 1;
     a24:	81 e0       	ldi	r24, 0x01	; 1

00000a26 <.Loc.95>:
        break;
     a26:	08 95       	ret

00000a28 <.L33>:
        buzzer_enable(1);
     a28:	81 e0       	ldi	r24, 0x01	; 1
     a2a:	0e 94 34 04 	call	0x868	; 0x868 <buzzer_enable>

00000a2e <.LVL19>:
     a2e:	e1 cf       	rjmp	.-62     	; 0x9f2 <.L24>

00000a30 <.L34>:
    switch(note_number){
     a30:	89 2b       	or	r24, r25
     a32:	61 f4       	brne	.+24     	; 0xa4c <.L35>

00000a34 <.Loc.98>:
        play_note(NOTE_3, 3, 1, &note_number);
     a34:	28 e6       	ldi	r18, 0x68	; 104
     a36:	32 e0       	ldi	r19, 0x02	; 2
     a38:	41 e0       	ldi	r20, 0x01	; 1
     a3a:	50 e0       	ldi	r21, 0x00	; 0
     a3c:	63 e0       	ldi	r22, 0x03	; 3
     a3e:	70 e0       	ldi	r23, 0x00	; 0
     a40:	8e ea       	ldi	r24, 0xAE	; 174
     a42:	91 e0       	ldi	r25, 0x01	; 1
     a44:	0e 94 50 04 	call	0x8a0	; 0x8a0 <play_note>

00000a48 <.LVL20>:
    return 1;
     a48:	81 e0       	ldi	r24, 0x01	; 1

00000a4a <.Loc.101>:
        break;
     a4a:	08 95       	ret

00000a4c <.L35>:
    switch(note_number){
     a4c:	81 e0       	ldi	r24, 0x01	; 1
     a4e:	08 95       	ret

00000a50 <.L26>:
     a50:	84 30       	cpi	r24, 0x04	; 4
     a52:	91 05       	cpc	r25, r1
     a54:	29 f1       	breq	.+74     	; 0xaa0 <.L31>
     a56:	05 97       	sbiw	r24, 0x05	; 5
     a58:	49 f4       	brne	.+18     	; 0xa6c <.L36>

00000a5a <.Loc.103>:
        buzzer_enable(0);
     a5a:	80 e0       	ldi	r24, 0x00	; 0
     a5c:	0e 94 34 04 	call	0x868	; 0x868 <buzzer_enable>

00000a60 <.LVL21>:
        note_number = 0;
     a60:	10 92 69 02 	sts	0x0269, r1	; 0x800269 <note_number.1+0x1>
     a64:	10 92 68 02 	sts	0x0268, r1	; 0x800268 <note_number.1>

00000a68 <.Loc.106>:
        return 0;
     a68:	80 e0       	ldi	r24, 0x00	; 0

00000a6a <.Loc.108>:
}
     a6a:	08 95       	ret

00000a6c <.L36>:
    switch(note_number){
     a6c:	81 e0       	ldi	r24, 0x01	; 1
     a6e:	08 95       	ret

00000a70 <.L27>:
        play_note(NOTE_3, 2, 0, &note_number);
     a70:	28 e6       	ldi	r18, 0x68	; 104
     a72:	32 e0       	ldi	r19, 0x02	; 2
     a74:	40 e0       	ldi	r20, 0x00	; 0
     a76:	50 e0       	ldi	r21, 0x00	; 0
     a78:	62 e0       	ldi	r22, 0x02	; 2
     a7a:	70 e0       	ldi	r23, 0x00	; 0
     a7c:	8e ea       	ldi	r24, 0xAE	; 174
     a7e:	91 e0       	ldi	r25, 0x01	; 1
     a80:	0e 94 50 04 	call	0x8a0	; 0x8a0 <play_note>

00000a84 <.LVL22>:
    return 1;
     a84:	81 e0       	ldi	r24, 0x01	; 1

00000a86 <.Loc.113>:
        break;
     a86:	08 95       	ret

00000a88 <.L25>:
        play_note(NOTE_1, 7, 1, &note_number);
     a88:	28 e6       	ldi	r18, 0x68	; 104
     a8a:	32 e0       	ldi	r19, 0x02	; 2
     a8c:	41 e0       	ldi	r20, 0x01	; 1
     a8e:	50 e0       	ldi	r21, 0x00	; 0
     a90:	67 e0       	ldi	r22, 0x07	; 7
     a92:	70 e0       	ldi	r23, 0x00	; 0
     a94:	8a e6       	ldi	r24, 0x6A	; 106
     a96:	91 e0       	ldi	r25, 0x01	; 1
     a98:	0e 94 50 04 	call	0x8a0	; 0x8a0 <play_note>

00000a9c <.LVL23>:
    return 1;
     a9c:	81 e0       	ldi	r24, 0x01	; 1

00000a9e <.Loc.117>:
        break;
     a9e:	08 95       	ret

00000aa0 <.L31>:
        play_note(NOTE_8, 30, 0, &note_number);
     aa0:	28 e6       	ldi	r18, 0x68	; 104
     aa2:	32 e0       	ldi	r19, 0x02	; 2
     aa4:	40 e0       	ldi	r20, 0x00	; 0
     aa6:	50 e0       	ldi	r21, 0x00	; 0
     aa8:	6e e1       	ldi	r22, 0x1E	; 30
     aaa:	70 e0       	ldi	r23, 0x00	; 0
     aac:	8f e6       	ldi	r24, 0x6F	; 111
     aae:	92 e0       	ldi	r25, 0x02	; 2
     ab0:	0e 94 50 04 	call	0x8a0	; 0x8a0 <play_note>

00000ab4 <.LVL24>:
    return 1;
     ab4:	81 e0       	ldi	r24, 0x01	; 1

00000ab6 <.Loc.121>:
        break;
     ab6:	08 95       	ret

00000ab8 <play_song>:
// Sounds like old nokia
char play_song(){
    static int note_number = 0;
    if(!note_number){
     ab8:	80 91 66 02 	lds	r24, 0x0266	; 0x800266 <note_number.0>
     abc:	90 91 67 02 	lds	r25, 0x0267	; 0x800267 <note_number.0+0x1>
     ac0:	89 2b       	or	r24, r25
     ac2:	71 f0       	breq	.+28     	; 0xae0 <.L57>

00000ac4 <.L38>:
        buzzer_enable(1);
    }
    switch(note_number){
     ac4:	e0 91 66 02 	lds	r30, 0x0266	; 0x800266 <note_number.0>
     ac8:	f0 91 67 02 	lds	r31, 0x0267	; 0x800267 <note_number.0+0x1>
     acc:	ef 30       	cpi	r30, 0x0F	; 15
     ace:	f1 05       	cpc	r31, r1
     ad0:	08 f0       	brcs	.+2      	; 0xad4 <L0^A+0x2>

00000ad2 <L0^A>:
     ad2:	bb c0       	rjmp	.+374    	; 0xc4a <.L56>
     ad4:	88 27       	eor	r24, r24
     ad6:	e7 50       	subi	r30, 0x07	; 7
     ad8:	f7 4f       	sbci	r31, 0xF7	; 247
     ada:	8f 4f       	sbci	r24, 0xFF	; 255
     adc:	0c 94 cb 08 	jmp	0x1196	; 0x1196 <__tablejump2__>

00000ae0 <.L57>:
        buzzer_enable(1);
     ae0:	81 e0       	ldi	r24, 0x01	; 1
     ae2:	0e 94 34 04 	call	0x868	; 0x868 <buzzer_enable>

00000ae6 <.LVL25>:
     ae6:	ee cf       	rjmp	.-36     	; 0xac4 <.L38>

00000ae8 <.L55>:
    case 0:
        play_note(NOTE_8, 1, 1, &note_number);
     ae8:	26 e6       	ldi	r18, 0x66	; 102
     aea:	32 e0       	ldi	r19, 0x02	; 2
     aec:	41 e0       	ldi	r20, 0x01	; 1
     aee:	50 e0       	ldi	r21, 0x00	; 0
     af0:	61 e0       	ldi	r22, 0x01	; 1
     af2:	70 e0       	ldi	r23, 0x00	; 0
     af4:	8f e6       	ldi	r24, 0x6F	; 111
     af6:	92 e0       	ldi	r25, 0x02	; 2
     af8:	0e 94 50 04 	call	0x8a0	; 0x8a0 <play_note>

00000afc <.LVL26>:
        buzzer_enable(0);
        note_number = 0;
        return 0;
        break;
    }
    return 1;
     afc:	81 e0       	ldi	r24, 0x01	; 1

00000afe <.Loc.131>:
        break;
     afe:	08 95       	ret

00000b00 <.L54>:
        play_note(NOTE_7, 1, 1, &note_number);
     b00:	26 e6       	ldi	r18, 0x66	; 102
     b02:	32 e0       	ldi	r19, 0x02	; 2
     b04:	41 e0       	ldi	r20, 0x01	; 1
     b06:	50 e0       	ldi	r21, 0x00	; 0
     b08:	61 e0       	ldi	r22, 0x01	; 1
     b0a:	70 e0       	ldi	r23, 0x00	; 0
     b0c:	82 e5       	ldi	r24, 0x52	; 82
     b0e:	92 e0       	ldi	r25, 0x02	; 2
     b10:	0e 94 50 04 	call	0x8a0	; 0x8a0 <play_note>

00000b14 <.LVL27>:
    return 1;
     b14:	81 e0       	ldi	r24, 0x01	; 1

00000b16 <.Loc.135>:
        break;
     b16:	08 95       	ret

00000b18 <.L53>:
        play_note(NOTE_3, 2, 1, &note_number);
     b18:	26 e6       	ldi	r18, 0x66	; 102
     b1a:	32 e0       	ldi	r19, 0x02	; 2
     b1c:	41 e0       	ldi	r20, 0x01	; 1
     b1e:	50 e0       	ldi	r21, 0x00	; 0
     b20:	62 e0       	ldi	r22, 0x02	; 2
     b22:	70 e0       	ldi	r23, 0x00	; 0
     b24:	8e ea       	ldi	r24, 0xAE	; 174
     b26:	91 e0       	ldi	r25, 0x01	; 1
     b28:	0e 94 50 04 	call	0x8a0	; 0x8a0 <play_note>

00000b2c <.LVL28>:
    return 1;
     b2c:	81 e0       	ldi	r24, 0x01	; 1

00000b2e <.Loc.139>:
        break;
     b2e:	08 95       	ret

00000b30 <.L52>:
        play_note(NOTE_4, 2, 1, &note_number);
     b30:	26 e6       	ldi	r18, 0x66	; 102
     b32:	32 e0       	ldi	r19, 0x02	; 2
     b34:	41 e0       	ldi	r20, 0x01	; 1
     b36:	50 e0       	ldi	r21, 0x00	; 0
     b38:	62 e0       	ldi	r22, 0x02	; 2
     b3a:	70 e0       	ldi	r23, 0x00	; 0
     b3c:	81 ec       	ldi	r24, 0xC1	; 193
     b3e:	91 e0       	ldi	r25, 0x01	; 1
     b40:	0e 94 50 04 	call	0x8a0	; 0x8a0 <play_note>

00000b44 <.LVL29>:
    return 1;
     b44:	81 e0       	ldi	r24, 0x01	; 1

00000b46 <.Loc.143>:
        break;
     b46:	08 95       	ret

00000b48 <.L51>:
        play_note(NOTE_7, 1, 1, &note_number);
     b48:	26 e6       	ldi	r18, 0x66	; 102
     b4a:	32 e0       	ldi	r19, 0x02	; 2
     b4c:	41 e0       	ldi	r20, 0x01	; 1
     b4e:	50 e0       	ldi	r21, 0x00	; 0
     b50:	61 e0       	ldi	r22, 0x01	; 1
     b52:	70 e0       	ldi	r23, 0x00	; 0
     b54:	82 e5       	ldi	r24, 0x52	; 82
     b56:	92 e0       	ldi	r25, 0x02	; 2
     b58:	0e 94 50 04 	call	0x8a0	; 0x8a0 <play_note>

00000b5c <.LVL30>:
    return 1;
     b5c:	81 e0       	ldi	r24, 0x01	; 1

00000b5e <.Loc.147>:
        break;
     b5e:	08 95       	ret

00000b60 <.L50>:
        play_note(NOTE_6, 1, 1, &note_number);
     b60:	26 e6       	ldi	r18, 0x66	; 102
     b62:	32 e0       	ldi	r19, 0x02	; 2
     b64:	41 e0       	ldi	r20, 0x01	; 1
     b66:	50 e0       	ldi	r21, 0x00	; 0
     b68:	61 e0       	ldi	r22, 0x01	; 1
     b6a:	70 e0       	ldi	r23, 0x00	; 0
     b6c:	8c e1       	ldi	r24, 0x1C	; 28
     b6e:	92 e0       	ldi	r25, 0x02	; 2
     b70:	0e 94 50 04 	call	0x8a0	; 0x8a0 <play_note>

00000b74 <.LVL31>:
    return 1;
     b74:	81 e0       	ldi	r24, 0x01	; 1

00000b76 <.Loc.151>:
        break;
     b76:	08 95       	ret

00000b78 <.L49>:
        play_note(NOTE_1, 2, 1, &note_number);
     b78:	26 e6       	ldi	r18, 0x66	; 102
     b7a:	32 e0       	ldi	r19, 0x02	; 2
     b7c:	41 e0       	ldi	r20, 0x01	; 1
     b7e:	50 e0       	ldi	r21, 0x00	; 0
     b80:	62 e0       	ldi	r22, 0x02	; 2
     b82:	70 e0       	ldi	r23, 0x00	; 0
     b84:	8a e6       	ldi	r24, 0x6A	; 106
     b86:	91 e0       	ldi	r25, 0x01	; 1
     b88:	0e 94 50 04 	call	0x8a0	; 0x8a0 <play_note>

00000b8c <.LVL32>:
    return 1;
     b8c:	81 e0       	ldi	r24, 0x01	; 1

00000b8e <.Loc.155>:
        break;
     b8e:	08 95       	ret

00000b90 <.L48>:
        play_note(NOTE_2, 2, 1, &note_number);
     b90:	26 e6       	ldi	r18, 0x66	; 102
     b92:	32 e0       	ldi	r19, 0x02	; 2
     b94:	41 e0       	ldi	r20, 0x01	; 1
     b96:	50 e0       	ldi	r21, 0x00	; 0
     b98:	62 e0       	ldi	r22, 0x02	; 2
     b9a:	70 e0       	ldi	r23, 0x00	; 0
     b9c:	8a e8       	ldi	r24, 0x8A	; 138
     b9e:	91 e0       	ldi	r25, 0x01	; 1
     ba0:	0e 94 50 04 	call	0x8a0	; 0x8a0 <play_note>

00000ba4 <.LVL33>:
    return 1;
     ba4:	81 e0       	ldi	r24, 0x01	; 1

00000ba6 <.Loc.159>:
        break;
     ba6:	08 95       	ret

00000ba8 <.L47>:
        play_note(NOTE_6, 1, 1, &note_number);
     ba8:	26 e6       	ldi	r18, 0x66	; 102
     baa:	32 e0       	ldi	r19, 0x02	; 2
     bac:	41 e0       	ldi	r20, 0x01	; 1
     bae:	50 e0       	ldi	r21, 0x00	; 0
     bb0:	61 e0       	ldi	r22, 0x01	; 1
     bb2:	70 e0       	ldi	r23, 0x00	; 0
     bb4:	8c e1       	ldi	r24, 0x1C	; 28
     bb6:	92 e0       	ldi	r25, 0x02	; 2
     bb8:	0e 94 50 04 	call	0x8a0	; 0x8a0 <play_note>

00000bbc <.LVL34>:
    return 1;
     bbc:	81 e0       	ldi	r24, 0x01	; 1

00000bbe <.Loc.163>:
        break;
     bbe:	08 95       	ret

00000bc0 <.L46>:
        play_note(NOTE_5, 1, 1, &note_number);
     bc0:	26 e6       	ldi	r18, 0x66	; 102
     bc2:	32 e0       	ldi	r19, 0x02	; 2
     bc4:	41 e0       	ldi	r20, 0x01	; 1
     bc6:	50 e0       	ldi	r21, 0x00	; 0
     bc8:	61 e0       	ldi	r22, 0x01	; 1
     bca:	70 e0       	ldi	r23, 0x00	; 0
     bcc:	8c ee       	ldi	r24, 0xEC	; 236
     bce:	91 e0       	ldi	r25, 0x01	; 1
     bd0:	0e 94 50 04 	call	0x8a0	; 0x8a0 <play_note>

00000bd4 <.LVL35>:
    return 1;
     bd4:	81 e0       	ldi	r24, 0x01	; 1

00000bd6 <.Loc.167>:
        break;
     bd6:	08 95       	ret

00000bd8 <.L45>:
        play_note(NOTE_1, 2, 1, &note_number);
     bd8:	26 e6       	ldi	r18, 0x66	; 102
     bda:	32 e0       	ldi	r19, 0x02	; 2
     bdc:	41 e0       	ldi	r20, 0x01	; 1
     bde:	50 e0       	ldi	r21, 0x00	; 0
     be0:	62 e0       	ldi	r22, 0x02	; 2
     be2:	70 e0       	ldi	r23, 0x00	; 0
     be4:	8a e6       	ldi	r24, 0x6A	; 106
     be6:	91 e0       	ldi	r25, 0x01	; 1
     be8:	0e 94 50 04 	call	0x8a0	; 0x8a0 <play_note>

00000bec <.LVL36>:
    return 1;
     bec:	81 e0       	ldi	r24, 0x01	; 1

00000bee <.Loc.171>:
        break;
     bee:	08 95       	ret

00000bf0 <.L44>:
        play_note(NOTE_2, 2, 1, &note_number);
     bf0:	26 e6       	ldi	r18, 0x66	; 102
     bf2:	32 e0       	ldi	r19, 0x02	; 2
     bf4:	41 e0       	ldi	r20, 0x01	; 1
     bf6:	50 e0       	ldi	r21, 0x00	; 0
     bf8:	62 e0       	ldi	r22, 0x02	; 2
     bfa:	70 e0       	ldi	r23, 0x00	; 0
     bfc:	8a e8       	ldi	r24, 0x8A	; 138
     bfe:	91 e0       	ldi	r25, 0x01	; 1
     c00:	0e 94 50 04 	call	0x8a0	; 0x8a0 <play_note>

00000c04 <.LVL37>:
    return 1;
     c04:	81 e0       	ldi	r24, 0x01	; 1

00000c06 <.Loc.175>:
        break;
     c06:	08 95       	ret

00000c08 <.L43>:
        play_note(NOTE_3, 5, 1, &note_number);
     c08:	26 e6       	ldi	r18, 0x66	; 102
     c0a:	32 e0       	ldi	r19, 0x02	; 2
     c0c:	41 e0       	ldi	r20, 0x01	; 1
     c0e:	50 e0       	ldi	r21, 0x00	; 0
     c10:	65 e0       	ldi	r22, 0x05	; 5
     c12:	70 e0       	ldi	r23, 0x00	; 0
     c14:	8e ea       	ldi	r24, 0xAE	; 174
     c16:	91 e0       	ldi	r25, 0x01	; 1
     c18:	0e 94 50 04 	call	0x8a0	; 0x8a0 <play_note>

00000c1c <.LVL38>:
    return 1;
     c1c:	81 e0       	ldi	r24, 0x01	; 1

00000c1e <.Loc.179>:
        break;
     c1e:	08 95       	ret

00000c20 <.L42>:
        play_note(NOTE_1, 5, 0, &note_number);
     c20:	26 e6       	ldi	r18, 0x66	; 102
     c22:	32 e0       	ldi	r19, 0x02	; 2
     c24:	40 e0       	ldi	r20, 0x00	; 0
     c26:	50 e0       	ldi	r21, 0x00	; 0
     c28:	65 e0       	ldi	r22, 0x05	; 5
     c2a:	70 e0       	ldi	r23, 0x00	; 0
     c2c:	8a e6       	ldi	r24, 0x6A	; 106
     c2e:	91 e0       	ldi	r25, 0x01	; 1
     c30:	0e 94 50 04 	call	0x8a0	; 0x8a0 <play_note>

00000c34 <.LVL39>:
    return 1;
     c34:	81 e0       	ldi	r24, 0x01	; 1

00000c36 <.Loc.183>:
        break;
     c36:	08 95       	ret

00000c38 <.L40>:
        buzzer_enable(0);
     c38:	80 e0       	ldi	r24, 0x00	; 0
     c3a:	0e 94 34 04 	call	0x868	; 0x868 <buzzer_enable>

00000c3e <.LVL40>:
        note_number = 0;
     c3e:	10 92 67 02 	sts	0x0267, r1	; 0x800267 <note_number.0+0x1>
     c42:	10 92 66 02 	sts	0x0266, r1	; 0x800266 <note_number.0>

00000c46 <.Loc.187>:
        return 0;
     c46:	80 e0       	ldi	r24, 0x00	; 0
     c48:	08 95       	ret

00000c4a <.L56>:
    switch(note_number){
     c4a:	81 e0       	ldi	r24, 0x01	; 1

00000c4c <.Loc.190>:
}
     c4c:	08 95       	ret

00000c4e <display_start>:
    0b00000000      // BLANK 19
};

// Start Condition
void display_start(void){
    DDR_DIO |= (1<<PIN_DIO);
     c4e:	ea e0       	ldi	r30, 0x0A	; 10
     c50:	f1 e0       	ldi	r31, 0x01	; 1
     c52:	80 81       	ld	r24, Z

00000c54 <.Loc.2>:
     c54:	80 68       	ori	r24, 0x80	; 128
     c56:	80 83       	st	Z, r24

00000c58 <.Loc.3>:
    PORT_DIO |= (1<<PIN_DIO);
     c58:	eb e0       	ldi	r30, 0x0B	; 11
     c5a:	f1 e0       	ldi	r31, 0x01	; 1
     c5c:	80 81       	ld	r24, Z

00000c5e <.Loc.4>:
     c5e:	80 68       	ori	r24, 0x80	; 128
     c60:	80 83       	st	Z, r24

00000c62 <.Loc.5>:
    PORT_CLK |= (1<<PIN_CLK);
     c62:	80 81       	ld	r24, Z

00000c64 <.Loc.6>:
     c64:	80 62       	ori	r24, 0x20	; 32
     c66:	80 83       	st	Z, r24

00000c68 <.Loc.7>:
    PORT_DIO &= ~(1<<PIN_DIO);
     c68:	80 81       	ld	r24, Z
     c6a:	8f 77       	andi	r24, 0x7F	; 127
     c6c:	80 83       	st	Z, r24

00000c6e <.Loc.9>:
}
     c6e:	08 95       	ret

00000c70 <display_stop>:

// Stop Condition
void display_stop(void){
    DDR_DIO |= (1<<PIN_DIO);
     c70:	ea e0       	ldi	r30, 0x0A	; 10
     c72:	f1 e0       	ldi	r31, 0x01	; 1
     c74:	80 81       	ld	r24, Z

00000c76 <.Loc.12>:
     c76:	80 68       	ori	r24, 0x80	; 128
     c78:	80 83       	st	Z, r24

00000c7a <.Loc.13>:
    PORT_CLK &= ~(1<<PIN_CLK);
     c7a:	eb e0       	ldi	r30, 0x0B	; 11
     c7c:	f1 e0       	ldi	r31, 0x01	; 1
     c7e:	80 81       	ld	r24, Z
     c80:	8f 7d       	andi	r24, 0xDF	; 223
     c82:	80 83       	st	Z, r24

00000c84 <.Loc.15>:
    PORT_CLK |= (1<<PIN_CLK);
     c84:	80 81       	ld	r24, Z

00000c86 <.Loc.16>:
     c86:	80 62       	ori	r24, 0x20	; 32
     c88:	80 83       	st	Z, r24

00000c8a <.Loc.17>:
    PORT_DIO |= (1<<PIN_DIO);
     c8a:	80 81       	ld	r24, Z

00000c8c <.Loc.18>:
     c8c:	80 68       	ori	r24, 0x80	; 128
     c8e:	80 83       	st	Z, r24

00000c90 <.Loc.19>:
}
     c90:	08 95       	ret

00000c92 <display_sendbyte>:

// Write One Byte (LSB first)
void display_sendbyte(unsigned char data){
    DDR_DIO |= (1<<PIN_DIO);
     c92:	ea e0       	ldi	r30, 0x0A	; 10
     c94:	f1 e0       	ldi	r31, 0x01	; 1
     c96:	90 81       	ld	r25, Z

00000c98 <.Loc.22>:
     c98:	90 68       	ori	r25, 0x80	; 128
     c9a:	90 83       	st	Z, r25

00000c9c <.Loc.23>:
     c9c:	28 e0       	ldi	r18, 0x08	; 8
     c9e:	30 e0       	ldi	r19, 0x00	; 0

00000ca0 <.Loc.27>:
    for(int i = 0; i < 8; i++){
        PORT_CLK &= ~(1<<PIN_CLK);
     ca0:	eb e0       	ldi	r30, 0x0B	; 11
     ca2:	f1 e0       	ldi	r31, 0x01	; 1
     ca4:	0c c0       	rjmp	.+24     	; 0xcbe <.L6>

00000ca6 <.L4>:
        if(data & 0x01){
            PORT_DIO |= (1<<PIN_DIO);
        }
        else{
            PORT_DIO &= ~(1<<PIN_DIO);
     ca6:	90 81       	ld	r25, Z
     ca8:	9f 77       	andi	r25, 0x7F	; 127
     caa:	90 83       	st	Z, r25

00000cac <.L5>:
        }
        PORT_CLK |= (1<<PIN_CLK);
     cac:	90 81       	ld	r25, Z

00000cae <.Loc.31>:
     cae:	90 62       	ori	r25, 0x20	; 32
     cb0:	90 83       	st	Z, r25

00000cb2 <.Loc.32>:
        data >>= 1;
     cb2:	86 95       	lsr	r24

00000cb4 <.Loc.34>:
    for(int i = 0; i < 8; i++){
     cb4:	21 50       	subi	r18, 0x01	; 1
     cb6:	31 09       	sbc	r19, r1

00000cb8 <.Loc.36>:
     cb8:	21 15       	cp	r18, r1
     cba:	31 05       	cpc	r19, r1
     cbc:	49 f0       	breq	.+18     	; 0xcd0 <.L8>

00000cbe <.L6>:
        PORT_CLK &= ~(1<<PIN_CLK);
     cbe:	90 81       	ld	r25, Z
     cc0:	9f 7d       	andi	r25, 0xDF	; 223
     cc2:	90 83       	st	Z, r25

00000cc4 <.Loc.39>:
        if(data & 0x01){
     cc4:	80 ff       	sbrs	r24, 0
     cc6:	ef cf       	rjmp	.-34     	; 0xca6 <.L4>

00000cc8 <.Loc.41>:
            PORT_DIO |= (1<<PIN_DIO);
     cc8:	90 81       	ld	r25, Z

00000cca <.Loc.42>:
     cca:	90 68       	ori	r25, 0x80	; 128
     ccc:	90 83       	st	Z, r25
     cce:	ee cf       	rjmp	.-36     	; 0xcac <.L5>

00000cd0 <.L8>:
    }
    // Let IC ACK without polling
    PORT_CLK &= ~(1<<PIN_CLK);
     cd0:	eb e0       	ldi	r30, 0x0B	; 11
     cd2:	f1 e0       	ldi	r31, 0x01	; 1
     cd4:	80 81       	ld	r24, Z

00000cd6 <.Loc.46>:
     cd6:	8f 7d       	andi	r24, 0xDF	; 223
     cd8:	80 83       	st	Z, r24

00000cda <.Loc.47>:
    PORT_CLK |= (1<<PIN_CLK);
     cda:	80 81       	ld	r24, Z

00000cdc <.Loc.48>:
     cdc:	80 62       	ori	r24, 0x20	; 32
     cde:	80 83       	st	Z, r24

00000ce0 <.Loc.49>:
}
     ce0:	08 95       	ret

00000ce2 <display_brightness>:

// Set Brightness
void display_brightness(unsigned char brightness){
     ce2:	cf 93       	push	r28
     ce4:	c8 2f       	mov	r28, r24

00000ce6 <.Loc.52>:
    display_start();
     ce6:	0e 94 27 06 	call	0xc4e	; 0xc4e <display_start>

00000cea <.LVL8>:
    display_sendbyte(0x88 | (brightness & 0x07));
     cea:	8c 2f       	mov	r24, r28
     cec:	87 70       	andi	r24, 0x07	; 7
     cee:	88 68       	ori	r24, 0x88	; 136
     cf0:	0e 94 49 06 	call	0xc92	; 0xc92 <display_sendbyte>

00000cf4 <.LVL9>:
    display_stop();
     cf4:	0e 94 38 06 	call	0xc70	; 0xc70 <display_stop>

00000cf8 <.LVL10>:
}
     cf8:	cf 91       	pop	r28

00000cfa <.Loc.56>:
     cfa:	08 95       	ret

00000cfc <display_number>:

// Display 4 digit integer
void display_number(int number){
     cfc:	ef 92       	push	r14
     cfe:	ff 92       	push	r15
     d00:	1f 93       	push	r17
     d02:	cf 93       	push	r28
     d04:	df 93       	push	r29
     d06:	d8 2f       	mov	r29, r24
     d08:	c9 2f       	mov	r28, r25

00000d0a <.Loc.59>:
    display_start();
     d0a:	0e 94 27 06 	call	0xc4e	; 0xc4e <display_start>

00000d0e <.LVL13>:
    display_sendbyte(0x40);
     d0e:	80 e4       	ldi	r24, 0x40	; 64
     d10:	0e 94 49 06 	call	0xc92	; 0xc92 <display_sendbyte>

00000d14 <.LVL14>:
    display_stop();
     d14:	0e 94 38 06 	call	0xc70	; 0xc70 <display_stop>

00000d18 <.LVL15>:
     d18:	13 ec       	ldi	r17, 0xC3	; 195

00000d1a <.Loc.66>:
    // Write each digit separate
    for (int i = 0; i < 4; i++) {
        display_start();
        display_sendbyte(0xC0 + (3 - i));
        display_sendbyte(digits[number%10]);
     d1a:	0f 2e       	mov	r0, r31
     d1c:	fa e0       	ldi	r31, 0x0A	; 10
     d1e:	ef 2e       	mov	r14, r31
     d20:	f1 2c       	mov	r15, r1
     d22:	f0 2d       	mov	r31, r0

00000d24 <.L11>:
        display_start();
     d24:	0e 94 27 06 	call	0xc4e	; 0xc4e <display_start>

00000d28 <.LVL17>:
        display_sendbyte(0xC0 + (3 - i));
     d28:	81 2f       	mov	r24, r17
     d2a:	0e 94 49 06 	call	0xc92	; 0xc92 <display_sendbyte>

00000d2e <.LVL18>:
        display_sendbyte(digits[number%10]);
     d2e:	8d 2f       	mov	r24, r29
     d30:	9c 2f       	mov	r25, r28
     d32:	b7 01       	movw	r22, r14
     d34:	0e 94 76 08 	call	0x10ec	; 0x10ec <__divmodhi4>
     d38:	d6 2f       	mov	r29, r22

00000d3a <.Loc.71>:
     d3a:	c7 2f       	mov	r28, r23

00000d3c <.Loc.72>:
     d3c:	fc 01       	movw	r30, r24
     d3e:	ea 5e       	subi	r30, 0xEA	; 234
     d40:	fd 4f       	sbci	r31, 0xFD	; 253

00000d42 <.Loc.73>:
     d42:	80 81       	ld	r24, Z
     d44:	0e 94 49 06 	call	0xc92	; 0xc92 <display_sendbyte>

00000d48 <.LVL20>:
        number /= 10;
        display_stop();
     d48:	0e 94 38 06 	call	0xc70	; 0xc70 <display_stop>

00000d4c <.LVL21>:
    for (int i = 0; i < 4; i++) {
     d4c:	11 50       	subi	r17, 0x01	; 1
     d4e:	1f 3b       	cpi	r17, 0xBF	; 191
     d50:	49 f7       	brne	.-46     	; 0xd24 <.L11>

00000d52 <.Loc.78>:
    }
}
     d52:	df 91       	pop	r29

00000d54 <.Loc.79>:
     d54:	cf 91       	pop	r28
     d56:	1f 91       	pop	r17
     d58:	ff 90       	pop	r15
     d5a:	ef 90       	pop	r14
     d5c:	08 95       	ret

00000d5e <display_metal_and_non_metal>:
void display_metal_and_non_metal(int metal, int non_metal){
     d5e:	ef 92       	push	r14
     d60:	ff 92       	push	r15
     d62:	0f 93       	push	r16
     d64:	1f 93       	push	r17
     d66:	cf 93       	push	r28
     d68:	df 93       	push	r29
     d6a:	00 d0       	rcall	.+0      	; 0xd6c <L0^A>

00000d6c <L0^A>:
     d6c:	00 d0       	rcall	.+0      	; 0xd6e <L0^A>

00000d6e <L0^A>:
     d6e:	0f 92       	push	r0
     d70:	0f 92       	push	r0
     d72:	cd b7       	in	r28, 0x3d	; 61
     d74:	de b7       	in	r29, 0x3e	; 62

00000d76 <.Loc.82>:
    // Ensure values are within range 099
    if (metal < 0) metal = 0;
    if (metal > 99) metal = 99;
     d76:	e8 2e       	mov	r14, r24
     d78:	f9 2e       	mov	r15, r25
     d7a:	84 e6       	ldi	r24, 0x64	; 100
     d7c:	e8 16       	cp	r14, r24
     d7e:	f1 04       	cpc	r15, r1

00000d80 <.Loc.84>:
     d80:	2c f0       	brlt	.+10     	; 0xd8c <.L14>
     d82:	0f 2e       	mov	r0, r31
     d84:	f3 e6       	ldi	r31, 0x63	; 99
     d86:	ef 2e       	mov	r14, r31
     d88:	f1 2c       	mov	r15, r1
     d8a:	f0 2d       	mov	r31, r0

00000d8c <.L14>:
     d8c:	ff 20       	and	r15, r15
     d8e:	0c f4       	brge	.+2      	; 0xd92 <.L15>

00000d90 <L0^A>:
     d90:	47 c0       	rjmp	.+142    	; 0xe20 <.L20>

00000d92 <.L15>:
    if (non_metal < 0) non_metal = 0;
    if (non_metal > 99) non_metal = 99;
     d92:	06 2f       	mov	r16, r22
     d94:	17 2f       	mov	r17, r23
     d96:	04 36       	cpi	r16, 0x64	; 100
     d98:	11 05       	cpc	r17, r1
     d9a:	14 f0       	brlt	.+4      	; 0xda0 <.L16>
     d9c:	03 e6       	ldi	r16, 0x63	; 99
     d9e:	10 e0       	ldi	r17, 0x00	; 0

00000da0 <.L16>:
     da0:	11 23       	and	r17, r17
     da2:	0c f4       	brge	.+2      	; 0xda6 <.L17>

00000da4 <L0^A>:
     da4:	40 c0       	rjmp	.+128    	; 0xe26 <.L21>

00000da6 <.L17>:

    // Start communication
    display_start();
     da6:	0e 94 27 06 	call	0xc4e	; 0xc4e <display_start>

00000daa <.LVL27>:
    display_sendbyte(0x40); // Set auto-increment mode
     daa:	80 e4       	ldi	r24, 0x40	; 64
     dac:	0e 94 49 06 	call	0xc92	; 0xc92 <display_sendbyte>

00000db0 <.LVL28>:
    display_stop();
     db0:	0e 94 38 06 	call	0xc70	; 0xc70 <display_stop>

00000db4 <.LVL29>:

    // Combine into one 4-digit number: MMNN
    int display_digits[4];
    display_digits[0] = metal / 10;        // Tens place of metal
     db4:	2a e0       	ldi	r18, 0x0A	; 10
     db6:	30 e0       	ldi	r19, 0x00	; 0
     db8:	c7 01       	movw	r24, r14
     dba:	b9 01       	movw	r22, r18
     dbc:	0e 94 76 08 	call	0x10ec	; 0x10ec <__divmodhi4>

00000dc0 <.Loc.93>:
     dc0:	7a 83       	std	Y+2, r23	; 0x02
     dc2:	69 83       	std	Y+1, r22	; 0x01

00000dc4 <.Loc.94>:
    display_digits[1] = metal % 10;        // Units place of metal
     dc4:	9c 83       	std	Y+4, r25	; 0x04
     dc6:	8b 83       	std	Y+3, r24	; 0x03

00000dc8 <.Loc.96>:
    display_digits[2] = non_metal / 10;    // Tens place of non_metal
     dc8:	c8 01       	movw	r24, r16
     dca:	b9 01       	movw	r22, r18
     dcc:	0e 94 76 08 	call	0x10ec	; 0x10ec <__divmodhi4>

00000dd0 <.Loc.98>:
     dd0:	7e 83       	std	Y+6, r23	; 0x06
     dd2:	6d 83       	std	Y+5, r22	; 0x05

00000dd4 <.Loc.100>:
    display_digits[3] = non_metal % 10;    // Units place of non_metal
     dd4:	98 87       	std	Y+8, r25	; 0x08
     dd6:	8f 83       	std	Y+7, r24	; 0x07

00000dd8 <.Loc.101>:

    // Send digits to display
    for (int i = 0; i < 4; i++) {
     dd8:	de 01       	movw	r26, r28
     dda:	11 96       	adiw	r26, 0x01	; 1
     ddc:	7d 01       	movw	r14, r26

00000dde <.Loc.104>:
    display_digits[3] = non_metal % 10;    // Units place of non_metal
     dde:	10 ec       	ldi	r17, 0xC0	; 192

00000de0 <.L18>:
        display_start();
     de0:	0e 94 27 06 	call	0xc4e	; 0xc4e <display_start>

00000de4 <.LVL33>:
        display_sendbyte(0xC0 + i); // Address for digit i
     de4:	81 2f       	mov	r24, r17
     de6:	0e 94 49 06 	call	0xc92	; 0xc92 <display_sendbyte>

00000dea <.LVL34>:
        display_sendbyte(digits[display_digits[i]]);
     dea:	d7 01       	movw	r26, r14
     dec:	ed 91       	ld	r30, X+
     dee:	fd 91       	ld	r31, X+
     df0:	7d 01       	movw	r14, r26

00000df2 <.Loc.110>:
     df2:	ea 5e       	subi	r30, 0xEA	; 234
     df4:	fd 4f       	sbci	r31, 0xFD	; 253

00000df6 <.Loc.111>:
     df6:	80 81       	ld	r24, Z
     df8:	0e 94 49 06 	call	0xc92	; 0xc92 <display_sendbyte>

00000dfc <.LVL35>:
        display_stop();
     dfc:	0e 94 38 06 	call	0xc70	; 0xc70 <display_stop>

00000e00 <.LVL36>:
    for (int i = 0; i < 4; i++) {
     e00:	1f 5f       	subi	r17, 0xFF	; 255
     e02:	14 3c       	cpi	r17, 0xC4	; 196
     e04:	69 f7       	brne	.-38     	; 0xde0 <.L18>

00000e06 <.Loc.115>:
    }
}
     e06:	28 96       	adiw	r28, 0x08	; 8
     e08:	0f b6       	in	r0, 0x3f	; 63
     e0a:	f8 94       	cli
     e0c:	de bf       	out	0x3e, r29	; 62
     e0e:	0f be       	out	0x3f, r0	; 63
     e10:	cd bf       	out	0x3d, r28	; 61
     e12:	df 91       	pop	r29
     e14:	cf 91       	pop	r28
     e16:	1f 91       	pop	r17
     e18:	0f 91       	pop	r16

00000e1a <.Loc.116>:
     e1a:	ff 90       	pop	r15
     e1c:	ef 90       	pop	r14
     e1e:	08 95       	ret

00000e20 <.L20>:
     e20:	e1 2c       	mov	r14, r1
     e22:	f1 2c       	mov	r15, r1
     e24:	b6 cf       	rjmp	.-148    	; 0xd92 <.L15>

00000e26 <.L21>:
     e26:	00 e0       	ldi	r16, 0x00	; 0
     e28:	10 e0       	ldi	r17, 0x00	; 0
     e2a:	bd cf       	rjmp	.-134    	; 0xda6 <.L17>

00000e2c <display_letter>:
// Write a single letter
void display_letter(unsigned int letter, unsigned char position){
     e2c:	1f 93       	push	r17
     e2e:	cf 93       	push	r28
     e30:	df 93       	push	r29
     e32:	c8 2f       	mov	r28, r24
     e34:	d9 2f       	mov	r29, r25
     e36:	16 2f       	mov	r17, r22

00000e38 <.Loc.121>:
    display_start();
     e38:	0e 94 27 06 	call	0xc4e	; 0xc4e <display_start>

00000e3c <.LVL41>:
    // Send command before writing
    display_sendbyte(0xC0 + position);
     e3c:	80 ec       	ldi	r24, 0xC0	; 192
     e3e:	81 0f       	add	r24, r17
     e40:	0e 94 49 06 	call	0xc92	; 0xc92 <display_sendbyte>

00000e44 <.LVL42>:
    // Send letter
    display_sendbyte(letters[letter]);
     e44:	ce 5f       	subi	r28, 0xFE	; 254
     e46:	dd 4f       	sbci	r29, 0xFD	; 253

00000e48 <.Loc.125>:
     e48:	88 81       	ld	r24, Y
     e4a:	0e 94 49 06 	call	0xc92	; 0xc92 <display_sendbyte>

00000e4e <.LVL43>:
    display_stop();
     e4e:	0e 94 38 06 	call	0xc70	; 0xc70 <display_stop>

00000e52 <.LVL44>:
}
     e52:	df 91       	pop	r29
     e54:	cf 91       	pop	r28
     e56:	1f 91       	pop	r17

00000e58 <.Loc.128>:
     e58:	08 95       	ret

00000e5a <display_init>:



// **Initialize TM1637**
void display_init(void){
    DDR_DIO |= (1<<PIN_DIO);
     e5a:	ea e0       	ldi	r30, 0x0A	; 10
     e5c:	f1 e0       	ldi	r31, 0x01	; 1
     e5e:	80 81       	ld	r24, Z

00000e60 <.Loc.131>:
     e60:	80 68       	ori	r24, 0x80	; 128
     e62:	80 83       	st	Z, r24

00000e64 <.Loc.132>:
    DDR_CLK |= (1<<PIN_CLK);
     e64:	80 81       	ld	r24, Z

00000e66 <.Loc.133>:
     e66:	80 62       	ori	r24, 0x20	; 32
     e68:	80 83       	st	Z, r24

00000e6a <.Loc.134>:
    PORT_DIO |= (1<<PIN_DIO);
     e6a:	eb e0       	ldi	r30, 0x0B	; 11
     e6c:	f1 e0       	ldi	r31, 0x01	; 1
     e6e:	80 81       	ld	r24, Z

00000e70 <.Loc.135>:
     e70:	80 68       	ori	r24, 0x80	; 128
     e72:	80 83       	st	Z, r24

00000e74 <.Loc.136>:
    PORT_CLK |= (1<<PIN_CLK);
     e74:	80 81       	ld	r24, Z

00000e76 <.Loc.137>:
     e76:	80 62       	ori	r24, 0x20	; 32
     e78:	80 83       	st	Z, r24

00000e7a <.Loc.138>:
    display_brightness(NORMAL_BRIGHTNESS); // 7 is max brightness
     e7a:	82 e0       	ldi	r24, 0x02	; 2
     e7c:	0e 94 71 06 	call	0xce2	; 0xce2 <display_brightness>

00000e80 <.LVL46>:
}
     e80:	08 95       	ret

00000e82 <display_cfg>:
        display_left();
    }
}
// --- Various things to display --- //
void display_cfg(void){
    display_letter(19, 0);
     e82:	60 e0       	ldi	r22, 0x00	; 0
     e84:	83 e1       	ldi	r24, 0x13	; 19
     e86:	90 e0       	ldi	r25, 0x00	; 0
     e88:	0e 94 16 07 	call	0xe2c	; 0xe2c <display_letter>

00000e8c <.LVL47>:
    display_letter(3, 1);
     e8c:	61 e0       	ldi	r22, 0x01	; 1
     e8e:	83 e0       	ldi	r24, 0x03	; 3
     e90:	90 e0       	ldi	r25, 0x00	; 0
     e92:	0e 94 16 07 	call	0xe2c	; 0xe2c <display_letter>

00000e96 <.LVL48>:
    display_letter(6, 2);
     e96:	62 e0       	ldi	r22, 0x02	; 2
     e98:	86 e0       	ldi	r24, 0x06	; 6
     e9a:	90 e0       	ldi	r25, 0x00	; 0
     e9c:	0e 94 16 07 	call	0xe2c	; 0xe2c <display_letter>

00000ea0 <.LVL49>:
    display_letter(7, 3);
     ea0:	63 e0       	ldi	r22, 0x03	; 3
     ea2:	87 e0       	ldi	r24, 0x07	; 7
     ea4:	90 e0       	ldi	r25, 0x00	; 0
     ea6:	0e 94 16 07 	call	0xe2c	; 0xe2c <display_letter>

00000eaa <.LVL50>:
}
     eaa:	08 95       	ret

00000eac <display_heavy>:

void display_heavy(void){
    display_number(4);
     eac:	84 e0       	ldi	r24, 0x04	; 4
     eae:	90 e0       	ldi	r25, 0x00	; 0
     eb0:	0e 94 7e 06 	call	0xcfc	; 0xcfc <display_number>

00000eb4 <.LVL51>:
    display_letter(1, 1);
     eb4:	61 e0       	ldi	r22, 0x01	; 1
     eb6:	81 e0       	ldi	r24, 0x01	; 1
     eb8:	90 e0       	ldi	r25, 0x00	; 0
     eba:	0e 94 16 07 	call	0xe2c	; 0xe2c <display_letter>

00000ebe <.LVL52>:
    display_letter(5, 2);
     ebe:	62 e0       	ldi	r22, 0x02	; 2
     ec0:	85 e0       	ldi	r24, 0x05	; 5
     ec2:	90 e0       	ldi	r25, 0x00	; 0
     ec4:	0e 94 16 07 	call	0xe2c	; 0xe2c <display_letter>

00000ec8 <.LVL53>:
    display_letter(8, 3);
     ec8:	63 e0       	ldi	r22, 0x03	; 3
     eca:	88 e0       	ldi	r24, 0x08	; 8
     ecc:	90 e0       	ldi	r25, 0x00	; 0
     ece:	0e 94 16 07 	call	0xe2c	; 0xe2c <display_letter>

00000ed2 <.LVL54>:
}
     ed2:	08 95       	ret

00000ed4 <display_light>:

void display_light(void){
    display_letter(17, 0);
     ed4:	60 e0       	ldi	r22, 0x00	; 0
     ed6:	81 e1       	ldi	r24, 0x11	; 17
     ed8:	90 e0       	ldi	r25, 0x00	; 0
     eda:	0e 94 16 07 	call	0xe2c	; 0xe2c <display_letter>

00000ede <.LVL55>:
    display_letter(8, 1);
     ede:	61 e0       	ldi	r22, 0x01	; 1
     ee0:	88 e0       	ldi	r24, 0x08	; 8
     ee2:	90 e0       	ldi	r25, 0x00	; 0
     ee4:	0e 94 16 07 	call	0xe2c	; 0xe2c <display_letter>

00000ee8 <.LVL56>:
    display_letter(7, 2);
     ee8:	62 e0       	ldi	r22, 0x02	; 2
     eea:	87 e0       	ldi	r24, 0x07	; 7
     eec:	90 e0       	ldi	r25, 0x00	; 0
     eee:	0e 94 16 07 	call	0xe2c	; 0xe2c <display_letter>

00000ef2 <.LVL57>:
    display_letter(11, 3);
     ef2:	63 e0       	ldi	r22, 0x03	; 3
     ef4:	8b e0       	ldi	r24, 0x0B	; 11
     ef6:	90 e0       	ldi	r25, 0x00	; 0
     ef8:	0e 94 16 07 	call	0xe2c	; 0xe2c <display_letter>

00000efc <.LVL58>:
}
     efc:	08 95       	ret

00000efe <display_fol>:

void display_fol(void){
    display_letter(19, 0);
     efe:	60 e0       	ldi	r22, 0x00	; 0
     f00:	83 e1       	ldi	r24, 0x13	; 19
     f02:	90 e0       	ldi	r25, 0x00	; 0
     f04:	0e 94 16 07 	call	0xe2c	; 0xe2c <display_letter>

00000f08 <.LVL59>:
    display_letter(6, 1);
     f08:	61 e0       	ldi	r22, 0x01	; 1
     f0a:	86 e0       	ldi	r24, 0x06	; 6
     f0c:	90 e0       	ldi	r25, 0x00	; 0
     f0e:	0e 94 16 07 	call	0xe2c	; 0xe2c <display_letter>

00000f12 <.LVL60>:
    display_letter(13, 2);
     f12:	62 e0       	ldi	r22, 0x02	; 2
     f14:	8d e0       	ldi	r24, 0x0D	; 13
     f16:	90 e0       	ldi	r25, 0x00	; 0
     f18:	0e 94 16 07 	call	0xe2c	; 0xe2c <display_letter>

00000f1c <.LVL61>:
    display_letter(11, 3);
     f1c:	63 e0       	ldi	r22, 0x03	; 3
     f1e:	8b e0       	ldi	r24, 0x0B	; 11
     f20:	90 e0       	ldi	r25, 0x00	; 0
     f22:	0e 94 16 07 	call	0xe2c	; 0xe2c <display_letter>

00000f26 <.LVL62>:
}
     f26:	08 95       	ret

00000f28 <display_cnt>:

void display_cnt(void){
    display_letter(19, 0);
     f28:	60 e0       	ldi	r22, 0x00	; 0
     f2a:	83 e1       	ldi	r24, 0x13	; 19
     f2c:	90 e0       	ldi	r25, 0x00	; 0
     f2e:	0e 94 16 07 	call	0xe2c	; 0xe2c <display_letter>

00000f32 <.LVL63>:
    display_letter(3, 1);
     f32:	61 e0       	ldi	r22, 0x01	; 1
     f34:	83 e0       	ldi	r24, 0x03	; 3
     f36:	90 e0       	ldi	r25, 0x00	; 0
     f38:	0e 94 16 07 	call	0xe2c	; 0xe2c <display_letter>

00000f3c <.LVL64>:
    display_letter(12, 2);
     f3c:	62 e0       	ldi	r22, 0x02	; 2
     f3e:	8c e0       	ldi	r24, 0x0C	; 12
     f40:	90 e0       	ldi	r25, 0x00	; 0
     f42:	0e 94 16 07 	call	0xe2c	; 0xe2c <display_letter>

00000f46 <.LVL65>:
    display_letter(17, 3);
     f46:	63 e0       	ldi	r22, 0x03	; 3
     f48:	81 e1       	ldi	r24, 0x11	; 17
     f4a:	90 e0       	ldi	r25, 0x00	; 0
     f4c:	0e 94 16 07 	call	0xe2c	; 0xe2c <display_letter>

00000f50 <.LVL66>:
}
     f50:	08 95       	ret

00000f52 <display_turn>:

void display_turn(void){
    display_letter(17, 0);
     f52:	60 e0       	ldi	r22, 0x00	; 0
     f54:	81 e1       	ldi	r24, 0x11	; 17
     f56:	90 e0       	ldi	r25, 0x00	; 0
     f58:	0e 94 16 07 	call	0xe2c	; 0xe2c <display_letter>

00000f5c <.LVL67>:
    display_letter(18, 1);
     f5c:	61 e0       	ldi	r22, 0x01	; 1
     f5e:	82 e1       	ldi	r24, 0x12	; 18
     f60:	90 e0       	ldi	r25, 0x00	; 0
     f62:	0e 94 16 07 	call	0xe2c	; 0xe2c <display_letter>

00000f66 <.LVL68>:
    display_letter(15, 2);
     f66:	62 e0       	ldi	r22, 0x02	; 2
     f68:	8f e0       	ldi	r24, 0x0F	; 15
     f6a:	90 e0       	ldi	r25, 0x00	; 0
     f6c:	0e 94 16 07 	call	0xe2c	; 0xe2c <display_letter>

00000f70 <.LVL69>:
    display_letter(12, 3);
     f70:	63 e0       	ldi	r22, 0x03	; 3
     f72:	8c e0       	ldi	r24, 0x0C	; 12
     f74:	90 e0       	ldi	r25, 0x00	; 0
     f76:	0e 94 16 07 	call	0xe2c	; 0xe2c <display_letter>

00000f7a <.LVL70>:
}
     f7a:	08 95       	ret

00000f7c <display_dist>:

void display_dist(void){
    display_letter(4, 0);
     f7c:	60 e0       	ldi	r22, 0x00	; 0
     f7e:	84 e0       	ldi	r24, 0x04	; 4
     f80:	90 e0       	ldi	r25, 0x00	; 0
     f82:	0e 94 16 07 	call	0xe2c	; 0xe2c <display_letter>

00000f86 <.LVL71>:
    display_letter(9, 1);
     f86:	61 e0       	ldi	r22, 0x01	; 1
     f88:	89 e0       	ldi	r24, 0x09	; 9
     f8a:	90 e0       	ldi	r25, 0x00	; 0
     f8c:	0e 94 16 07 	call	0xe2c	; 0xe2c <display_letter>

00000f90 <.LVL72>:
    display_letter(16, 2);
     f90:	62 e0       	ldi	r22, 0x02	; 2
     f92:	80 e1       	ldi	r24, 0x10	; 16
     f94:	90 e0       	ldi	r25, 0x00	; 0
     f96:	0e 94 16 07 	call	0xe2c	; 0xe2c <display_letter>

00000f9a <.LVL73>:
    display_letter(17, 3);
     f9a:	63 e0       	ldi	r22, 0x03	; 3
     f9c:	81 e1       	ldi	r24, 0x11	; 17
     f9e:	90 e0       	ldi	r25, 0x00	; 0
     fa0:	0e 94 16 07 	call	0xe2c	; 0xe2c <display_letter>

00000fa4 <.LVL74>:
}
     fa4:	08 95       	ret

00000fa6 <display_pac>:

void display_pac(void){
    display_letter(19, 0);
     fa6:	60 e0       	ldi	r22, 0x00	; 0
     fa8:	83 e1       	ldi	r24, 0x13	; 19
     faa:	90 e0       	ldi	r25, 0x00	; 0
     fac:	0e 94 16 07 	call	0xe2c	; 0xe2c <display_letter>

00000fb0 <.LVL75>:
    display_letter(14, 1);
     fb0:	61 e0       	ldi	r22, 0x01	; 1
     fb2:	8e e0       	ldi	r24, 0x0E	; 14
     fb4:	90 e0       	ldi	r25, 0x00	; 0
     fb6:	0e 94 16 07 	call	0xe2c	; 0xe2c <display_letter>

00000fba <.LVL76>:
    display_letter(1, 2);
     fba:	62 e0       	ldi	r22, 0x02	; 2
     fbc:	81 e0       	ldi	r24, 0x01	; 1
     fbe:	90 e0       	ldi	r25, 0x00	; 0
     fc0:	0e 94 16 07 	call	0xe2c	; 0xe2c <display_letter>

00000fc4 <.LVL77>:
    display_letter(3, 3);
     fc4:	63 e0       	ldi	r22, 0x03	; 3
     fc6:	83 e0       	ldi	r24, 0x03	; 3
     fc8:	90 e0       	ldi	r25, 0x00	; 0
     fca:	0e 94 16 07 	call	0xe2c	; 0xe2c <display_letter>

00000fce <.LVL78>:
}
     fce:	08 95       	ret

00000fd0 <display_mode>:
    if(mode){
     fd0:	88 23       	and	r24, r24
     fd2:	19 f0       	breq	.+6      	; 0xfda <.L33>

00000fd4 <.Loc.191>:
        display_fol();
     fd4:	0e 94 7f 07 	call	0xefe	; 0xefe <display_fol>

00000fd8 <.LVL80>:
     fd8:	08 95       	ret

00000fda <.L33>:
        display_pac();
     fda:	0e 94 d3 07 	call	0xfa6	; 0xfa6 <display_pac>

00000fde <.LVL82>:
}
     fde:	08 95       	ret

00000fe0 <display_left>:

void display_left(void){
    display_letter(11, 0);
     fe0:	60 e0       	ldi	r22, 0x00	; 0
     fe2:	8b e0       	ldi	r24, 0x0B	; 11
     fe4:	90 e0       	ldi	r25, 0x00	; 0
     fe6:	0e 94 16 07 	call	0xe2c	; 0xe2c <display_letter>

00000fea <.LVL83>:
    display_letter(5, 1);
     fea:	61 e0       	ldi	r22, 0x01	; 1
     fec:	85 e0       	ldi	r24, 0x05	; 5
     fee:	90 e0       	ldi	r25, 0x00	; 0
     ff0:	0e 94 16 07 	call	0xe2c	; 0xe2c <display_letter>

00000ff4 <.LVL84>:
    display_letter(6, 2);
     ff4:	62 e0       	ldi	r22, 0x02	; 2
     ff6:	86 e0       	ldi	r24, 0x06	; 6
     ff8:	90 e0       	ldi	r25, 0x00	; 0
     ffa:	0e 94 16 07 	call	0xe2c	; 0xe2c <display_letter>

00000ffe <.LVL85>:
    display_letter(17, 3);
     ffe:	63 e0       	ldi	r22, 0x03	; 3
    1000:	81 e1       	ldi	r24, 0x11	; 17
    1002:	90 e0       	ldi	r25, 0x00	; 0
    1004:	0e 94 16 07 	call	0xe2c	; 0xe2c <display_letter>

00001008 <.LVL86>:
}
    1008:	08 95       	ret

0000100a <display_rght>:

void display_rght(void){
    display_letter(15, 0);
    100a:	60 e0       	ldi	r22, 0x00	; 0
    100c:	8f e0       	ldi	r24, 0x0F	; 15
    100e:	90 e0       	ldi	r25, 0x00	; 0
    1010:	0e 94 16 07 	call	0xe2c	; 0xe2c <display_letter>

00001014 <.LVL87>:
    display_letter(7, 1);
    1014:	61 e0       	ldi	r22, 0x01	; 1
    1016:	87 e0       	ldi	r24, 0x07	; 7
    1018:	90 e0       	ldi	r25, 0x00	; 0
    101a:	0e 94 16 07 	call	0xe2c	; 0xe2c <display_letter>

0000101e <.LVL88>:
    display_letter(8, 2);
    101e:	62 e0       	ldi	r22, 0x02	; 2
    1020:	88 e0       	ldi	r24, 0x08	; 8
    1022:	90 e0       	ldi	r25, 0x00	; 0
    1024:	0e 94 16 07 	call	0xe2c	; 0xe2c <display_letter>

00001028 <.LVL89>:
    display_letter(17, 3);
    1028:	63 e0       	ldi	r22, 0x03	; 3
    102a:	81 e1       	ldi	r24, 0x11	; 17
    102c:	90 e0       	ldi	r25, 0x00	; 0
    102e:	0e 94 16 07 	call	0xe2c	; 0xe2c <display_letter>

00001032 <.LVL90>:
}
    1032:	08 95       	ret

00001034 <display_direction>:
    if(dir){
    1034:	88 23       	and	r24, r24
    1036:	19 f0       	breq	.+6      	; 0x103e <.L38>

00001038 <.Loc.210>:
        display_rght();
    1038:	0e 94 05 08 	call	0x100a	; 0x100a <display_rght>

0000103c <.LVL92>:
    103c:	08 95       	ret

0000103e <.L38>:
        display_left();
    103e:	0e 94 f0 07 	call	0xfe0	; 0xfe0 <display_left>

00001042 <.LVL94>:
}
    1042:	08 95       	ret

00001044 <display_go>:

void display_go(void){
    display_letter(19, 0);
    1044:	60 e0       	ldi	r22, 0x00	; 0
    1046:	83 e1       	ldi	r24, 0x13	; 19
    1048:	90 e0       	ldi	r25, 0x00	; 0
    104a:	0e 94 16 07 	call	0xe2c	; 0xe2c <display_letter>

0000104e <.LVL95>:
    display_letter(19, 1);
    104e:	61 e0       	ldi	r22, 0x01	; 1
    1050:	83 e1       	ldi	r24, 0x13	; 19
    1052:	90 e0       	ldi	r25, 0x00	; 0
    1054:	0e 94 16 07 	call	0xe2c	; 0xe2c <display_letter>

00001058 <.LVL96>:
    display_letter(7, 2);
    1058:	62 e0       	ldi	r22, 0x02	; 2
    105a:	87 e0       	ldi	r24, 0x07	; 7
    105c:	90 e0       	ldi	r25, 0x00	; 0
    105e:	0e 94 16 07 	call	0xe2c	; 0xe2c <display_letter>

00001062 <.LVL97>:
    display_letter(13, 3);
    1062:	63 e0       	ldi	r22, 0x03	; 3
    1064:	8d e0       	ldi	r24, 0x0D	; 13
    1066:	90 e0       	ldi	r25, 0x00	; 0
    1068:	0e 94 16 07 	call	0xe2c	; 0xe2c <display_letter>

0000106c <.LVL98>:
}
    106c:	08 95       	ret

0000106e <display_end>:

void display_end(void){
    display_letter(19, 0);
    106e:	60 e0       	ldi	r22, 0x00	; 0
    1070:	83 e1       	ldi	r24, 0x13	; 19
    1072:	90 e0       	ldi	r25, 0x00	; 0
    1074:	0e 94 16 07 	call	0xe2c	; 0xe2c <display_letter>

00001078 <.LVL99>:
    display_letter(5, 1);
    1078:	61 e0       	ldi	r22, 0x01	; 1
    107a:	85 e0       	ldi	r24, 0x05	; 5
    107c:	90 e0       	ldi	r25, 0x00	; 0
    107e:	0e 94 16 07 	call	0xe2c	; 0xe2c <display_letter>

00001082 <.LVL100>:
    display_letter(12, 2);
    1082:	62 e0       	ldi	r22, 0x02	; 2
    1084:	8c e0       	ldi	r24, 0x0C	; 12
    1086:	90 e0       	ldi	r25, 0x00	; 0
    1088:	0e 94 16 07 	call	0xe2c	; 0xe2c <display_letter>

0000108c <.LVL101>:
    display_letter(4, 3);
    108c:	63 e0       	ldi	r22, 0x03	; 3
    108e:	84 e0       	ldi	r24, 0x04	; 4
    1090:	90 e0       	ldi	r25, 0x00	; 0
    1092:	0e 94 16 07 	call	0xe2c	; 0xe2c <display_letter>

00001096 <.LVL102>:
}
    1096:	08 95       	ret

00001098 <display_srch>:

void display_srch(void){
    display_letter(16, 0);
    1098:	60 e0       	ldi	r22, 0x00	; 0
    109a:	80 e1       	ldi	r24, 0x10	; 16
    109c:	90 e0       	ldi	r25, 0x00	; 0
    109e:	0e 94 16 07 	call	0xe2c	; 0xe2c <display_letter>

000010a2 <.LVL103>:
    display_letter(15, 1);
    10a2:	61 e0       	ldi	r22, 0x01	; 1
    10a4:	8f e0       	ldi	r24, 0x0F	; 15
    10a6:	90 e0       	ldi	r25, 0x00	; 0
    10a8:	0e 94 16 07 	call	0xe2c	; 0xe2c <display_letter>

000010ac <.LVL104>:
    display_letter(3, 2);
    10ac:	62 e0       	ldi	r22, 0x02	; 2
    10ae:	83 e0       	ldi	r24, 0x03	; 3
    10b0:	90 e0       	ldi	r25, 0x00	; 0
    10b2:	0e 94 16 07 	call	0xe2c	; 0xe2c <display_letter>

000010b6 <.LVL105>:
    display_letter(8, 3);
    10b6:	63 e0       	ldi	r22, 0x03	; 3
    10b8:	88 e0       	ldi	r24, 0x08	; 8
    10ba:	90 e0       	ldi	r25, 0x00	; 0
    10bc:	0e 94 16 07 	call	0xe2c	; 0xe2c <display_letter>

000010c0 <.LVL106>:
}
    10c0:	08 95       	ret

000010c2 <display_txt_stop>:

void display_txt_stop(void){
    display_letter(16, 0);
    10c2:	60 e0       	ldi	r22, 0x00	; 0
    10c4:	80 e1       	ldi	r24, 0x10	; 16
    10c6:	90 e0       	ldi	r25, 0x00	; 0
    10c8:	0e 94 16 07 	call	0xe2c	; 0xe2c <display_letter>

000010cc <.LVL107>:
    display_letter(17, 1);
    10cc:	61 e0       	ldi	r22, 0x01	; 1
    10ce:	81 e1       	ldi	r24, 0x11	; 17
    10d0:	90 e0       	ldi	r25, 0x00	; 0
    10d2:	0e 94 16 07 	call	0xe2c	; 0xe2c <display_letter>

000010d6 <.LVL108>:
    display_letter(13, 2);
    10d6:	62 e0       	ldi	r22, 0x02	; 2
    10d8:	8d e0       	ldi	r24, 0x0D	; 13
    10da:	90 e0       	ldi	r25, 0x00	; 0
    10dc:	0e 94 16 07 	call	0xe2c	; 0xe2c <display_letter>

000010e0 <.LVL109>:
    display_letter(14, 3);
    10e0:	63 e0       	ldi	r22, 0x03	; 3
    10e2:	8e e0       	ldi	r24, 0x0E	; 14
    10e4:	90 e0       	ldi	r25, 0x00	; 0
    10e6:	0e 94 16 07 	call	0xe2c	; 0xe2c <display_letter>

000010ea <.LVL110>:
}
    10ea:	08 95       	ret

000010ec <__divmodhi4>:
    10ec:	97 fb       	bst	r25, 7

000010ee <.Loc.1>:
    10ee:	07 2e       	mov	r0, r23

000010f0 <.Loc.2>:
    10f0:	16 f4       	brtc	.+4      	; 0x10f6 <.L^B1>

000010f2 <.Loc.3>:
    10f2:	00 94       	com	r0

000010f4 <.Loc.4>:
    10f4:	07 d0       	rcall	.+14     	; 0x1104 <__divmodhi4_neg1>

000010f6 <.L^B1>:
    10f6:	77 fd       	sbrc	r23, 7

000010f8 <.Loc.6>:
    10f8:	09 d0       	rcall	.+18     	; 0x110c <__divmodhi4_neg2>

000010fa <.Loc.7>:
    10fa:	0e 94 d3 08 	call	0x11a6	; 0x11a6 <__udivmodhi4>

000010fe <.Loc.8>:
    10fe:	07 fc       	sbrc	r0, 7

00001100 <.Loc.9>:
    1100:	05 d0       	rcall	.+10     	; 0x110c <__divmodhi4_neg2>

00001102 <.Loc.10>:
    1102:	3e f4       	brtc	.+14     	; 0x1112 <__divmodhi4_exit>

00001104 <__divmodhi4_neg1>:
    1104:	90 95       	com	r25

00001106 <.Loc.12>:
    1106:	81 95       	neg	r24

00001108 <.Loc.13>:
    1108:	9f 4f       	sbci	r25, 0xFF	; 255

0000110a <.Loc.14>:
    110a:	08 95       	ret

0000110c <__divmodhi4_neg2>:
    110c:	70 95       	com	r23

0000110e <.Loc.16>:
    110e:	61 95       	neg	r22

00001110 <.Loc.17>:
    1110:	7f 4f       	sbci	r23, 0xFF	; 255

00001112 <__divmodhi4_exit>:
    1112:	08 95       	ret

00001114 <__udivmodsi4>:
    1114:	a1 e2       	ldi	r26, 0x21	; 33

00001116 <.Loc.1>:
    1116:	1a 2e       	mov	r1, r26

00001118 <.Loc.2>:
    1118:	aa 1b       	sub	r26, r26

0000111a <.Loc.3>:
    111a:	bb 1b       	sub	r27, r27

0000111c <.Loc.4>:
    111c:	fd 01       	movw	r30, r26

0000111e <.Loc.5>:
    111e:	0d c0       	rjmp	.+26     	; 0x113a <__udivmodsi4_ep>

00001120 <__udivmodsi4_loop>:
    1120:	aa 1f       	adc	r26, r26

00001122 <.Loc.7>:
    1122:	bb 1f       	adc	r27, r27

00001124 <.Loc.8>:
    1124:	ee 1f       	adc	r30, r30

00001126 <.Loc.9>:
    1126:	ff 1f       	adc	r31, r31

00001128 <.Loc.10>:
    1128:	a2 17       	cp	r26, r18

0000112a <.Loc.11>:
    112a:	b3 07       	cpc	r27, r19

0000112c <.Loc.12>:
    112c:	e4 07       	cpc	r30, r20

0000112e <.Loc.13>:
    112e:	f5 07       	cpc	r31, r21

00001130 <.Loc.14>:
    1130:	20 f0       	brcs	.+8      	; 0x113a <__udivmodsi4_ep>

00001132 <.Loc.15>:
    1132:	a2 1b       	sub	r26, r18

00001134 <.Loc.16>:
    1134:	b3 0b       	sbc	r27, r19

00001136 <.Loc.17>:
    1136:	e4 0b       	sbc	r30, r20

00001138 <.Loc.18>:
    1138:	f5 0b       	sbc	r31, r21

0000113a <__udivmodsi4_ep>:
    113a:	66 1f       	adc	r22, r22

0000113c <.Loc.20>:
    113c:	77 1f       	adc	r23, r23

0000113e <.Loc.21>:
    113e:	88 1f       	adc	r24, r24

00001140 <.Loc.22>:
    1140:	99 1f       	adc	r25, r25

00001142 <.Loc.23>:
    1142:	1a 94       	dec	r1

00001144 <.Loc.24>:
    1144:	69 f7       	brne	.-38     	; 0x1120 <__udivmodsi4_loop>

00001146 <.Loc.25>:
    1146:	60 95       	com	r22

00001148 <.Loc.26>:
    1148:	70 95       	com	r23

0000114a <.Loc.27>:
    114a:	80 95       	com	r24

0000114c <.Loc.28>:
    114c:	90 95       	com	r25

0000114e <.Loc.29>:
    114e:	9b 01       	movw	r18, r22

00001150 <.Loc.30>:
    1150:	ac 01       	movw	r20, r24

00001152 <.Loc.31>:
    1152:	bd 01       	movw	r22, r26

00001154 <.Loc.32>:
    1154:	cf 01       	movw	r24, r30

00001156 <.Loc.33>:
    1156:	08 95       	ret

00001158 <__divmodsi4>:
    1158:	05 2e       	mov	r0, r21

0000115a <.Loc.1>:
    115a:	97 fb       	bst	r25, 7

0000115c <.Loc.2>:
    115c:	1e f4       	brtc	.+6      	; 0x1164 <.L^B1>

0000115e <.Loc.3>:
    115e:	00 94       	com	r0

00001160 <.Loc.4>:
    1160:	0e 94 c3 08 	call	0x1186	; 0x1186 <__negsi2>

00001164 <.L^B1>:
    1164:	57 fd       	sbrc	r21, 7

00001166 <.Loc.6>:
    1166:	07 d0       	rcall	.+14     	; 0x1176 <__divmodsi4_neg2>

00001168 <.Loc.7>:
    1168:	0e 94 8a 08 	call	0x1114	; 0x1114 <__udivmodsi4>

0000116c <.Loc.8>:
    116c:	07 fc       	sbrc	r0, 7

0000116e <.Loc.9>:
    116e:	03 d0       	rcall	.+6      	; 0x1176 <__divmodsi4_neg2>

00001170 <.Loc.10>:
    1170:	4e f4       	brtc	.+18     	; 0x1184 <__divmodsi4_exit>

00001172 <.Loc.11>:
    1172:	0c 94 c3 08 	jmp	0x1186	; 0x1186 <__negsi2>

00001176 <__divmodsi4_neg2>:
    1176:	50 95       	com	r21

00001178 <.Loc.13>:
    1178:	40 95       	com	r20

0000117a <.Loc.14>:
    117a:	30 95       	com	r19

0000117c <.Loc.15>:
    117c:	21 95       	neg	r18

0000117e <.Loc.16>:
    117e:	3f 4f       	sbci	r19, 0xFF	; 255

00001180 <.Loc.17>:
    1180:	4f 4f       	sbci	r20, 0xFF	; 255

00001182 <.Loc.18>:
    1182:	5f 4f       	sbci	r21, 0xFF	; 255

00001184 <__divmodsi4_exit>:
    1184:	08 95       	ret

00001186 <__negsi2>:
    1186:	90 95       	com	r25
    1188:	80 95       	com	r24
    118a:	70 95       	com	r23
    118c:	61 95       	neg	r22
    118e:	7f 4f       	sbci	r23, 0xFF	; 255
    1190:	8f 4f       	sbci	r24, 0xFF	; 255
    1192:	9f 4f       	sbci	r25, 0xFF	; 255

00001194 <.Loc.1>:
    1194:	08 95       	ret

00001196 <__tablejump2__>:
    1196:	ee 0f       	add	r30, r30

00001198 <.Loc.1>:
    1198:	ff 1f       	adc	r31, r31

0000119a <.Loc.2>:
    119a:	88 1f       	adc	r24, r24

0000119c <.Loc.3>:
    119c:	8b bf       	out	0x3b, r24	; 59

0000119e <.Loc.4>:
    119e:	07 90       	elpm	r0, Z+

000011a0 <.Loc.5>:
    11a0:	f6 91       	elpm	r31, Z

000011a2 <.Loc.6>:
    11a2:	e0 2d       	mov	r30, r0

000011a4 <.Loc.7>:
    11a4:	19 94       	eijmp

000011a6 <__udivmodhi4>:
    11a6:	aa 1b       	sub	r26, r26

000011a8 <.Loc.1>:
    11a8:	bb 1b       	sub	r27, r27

000011aa <.Loc.2>:
    11aa:	51 e1       	ldi	r21, 0x11	; 17

000011ac <.Loc.3>:
    11ac:	07 c0       	rjmp	.+14     	; 0x11bc <__udivmodhi4_ep>

000011ae <__udivmodhi4_loop>:
    11ae:	aa 1f       	adc	r26, r26

000011b0 <.Loc.5>:
    11b0:	bb 1f       	adc	r27, r27

000011b2 <.Loc.6>:
    11b2:	a6 17       	cp	r26, r22

000011b4 <.Loc.7>:
    11b4:	b7 07       	cpc	r27, r23

000011b6 <.Loc.8>:
    11b6:	10 f0       	brcs	.+4      	; 0x11bc <__udivmodhi4_ep>

000011b8 <.Loc.9>:
    11b8:	a6 1b       	sub	r26, r22

000011ba <.Loc.10>:
    11ba:	b7 0b       	sbc	r27, r23

000011bc <__udivmodhi4_ep>:
    11bc:	88 1f       	adc	r24, r24

000011be <.Loc.12>:
    11be:	99 1f       	adc	r25, r25

000011c0 <.Loc.13>:
    11c0:	5a 95       	dec	r21

000011c2 <.Loc.14>:
    11c2:	a9 f7       	brne	.-22     	; 0x11ae <__udivmodhi4_loop>

000011c4 <.Loc.15>:
    11c4:	80 95       	com	r24

000011c6 <.Loc.16>:
    11c6:	90 95       	com	r25

000011c8 <.Loc.17>:
    11c8:	bc 01       	movw	r22, r24

000011ca <.Loc.18>:
    11ca:	cd 01       	movw	r24, r26

000011cc <.Loc.19>:
    11cc:	08 95       	ret

000011ce <_exit>:
    11ce:	f8 94       	cli

000011d0 <__stop_program>:
    11d0:	ff cf       	rjmp	.-2      	; 0x11d0 <__stop_program>

000011d2 <L0^A>:
    11d2:	21 02       	muls	r18, r17
    11d4:	27 02       	muls	r18, r23
    11d6:	2d 02       	muls	r18, r29
    11d8:	33 02       	muls	r19, r19
    11da:	39 02       	muls	r19, r25
    11dc:	3f 02       	muls	r19, r31
    11de:	45 02       	muls	r20, r21
    11e0:	4b 02       	muls	r20, r27
    11e2:	51 02       	muls	r21, r17

000011e4 <.L5>:
    11e4:	d5 02       	muls	r29, r21
    11e6:	e6 02       	muls	r30, r22
    11e8:	02 03       	mulsu	r16, r18
    11ea:	5f 03       	fmul	r21, r23
    11ec:	bc 03       	fmulsu	r19, r20
    11ee:	44 03       	mulsu	r20, r20
    11f0:	e9 03       	fmulsu	r22, r17

000011f2 <.L41>:
    11f2:	74 05       	cpc	r23, r4
    11f4:	80 05       	cpc	r24, r0
    11f6:	8c 05       	cpc	r24, r12
    11f8:	98 05       	cpc	r25, r8
    11fa:	a4 05       	cpc	r26, r4
    11fc:	b0 05       	cpc	r27, r0
    11fe:	bc 05       	cpc	r27, r12
    1200:	c8 05       	cpc	r28, r8
    1202:	d4 05       	cpc	r29, r4
    1204:	e0 05       	cpc	r30, r0
    1206:	ec 05       	cpc	r30, r12
    1208:	f8 05       	cpc	r31, r8
    120a:	04 06       	cpc	r0, r20
    120c:	10 06       	cpc	r1, r16
    120e:	1c 06       	cpc	r1, r28
